 turtlecoin-crypto

 Timestamp is 64dfdfbd (Fri Aug 18 23:16:45 2023)

 Preferred load address is 0000000180000000

 Start         Length     Name                   Class
 0001:00000000 00000250H .text$di                CODE
 0001:00000250 00056c80H .text$mn                CODE
 0001:00056ed0 00000040H .text$mn$00             CODE
 0001:00056f10 00001db0H .text$x                 CODE
 0001:00058cc0 000000f4H .text$yd                CODE
 0002:00000000 000002a8H .idata$5                DATA
 0002:000002a8 00000028H .00cfg                  DATA
 0002:000002d0 00000008H .CRT$XCA                DATA
 0002:000002d8 00000018H .CRT$XCC                DATA
 0002:000002f0 00000010H .CRT$XCL                DATA
 0002:00000300 00000010H .CRT$XCU                DATA
 0002:00000310 00000008H .CRT$XCZ                DATA
 0002:00000318 00000008H .CRT$XDA                DATA
 0002:00000320 00000018H .CRT$XDU                DATA
 0002:00000338 00000008H .CRT$XDZ                DATA
 0002:00000340 00000008H .CRT$XIA                DATA
 0002:00000348 00000028H .CRT$XIC                DATA
 0002:00000370 00000008H .CRT$XIZ                DATA
 0002:00000378 00000008H .CRT$XLA                DATA
 0002:00000380 00000008H .CRT$XLC                DATA
 0002:00000388 00000008H .CRT$XLZ                DATA
 0002:00000390 00000008H .CRT$XPA                DATA
 0002:00000398 00000010H .CRT$XPX                DATA
 0002:000003a8 00000008H .CRT$XPXA               DATA
 0002:000003b0 00000008H .CRT$XPZ                DATA
 0002:000003b8 00000008H .CRT$XTA                DATA
 0002:000003c0 00000020H .CRT$XTZ                DATA
 0002:000003c8 00000000H .gehcont$y              DATA
 0002:000003c8 00000000H .gfids$y                DATA
 0002:000003e0 00018320H .rdata                  DATA
 0002:00018700 00000000H .rdata$CastGuardVftablesA DATA
 0002:00018700 00000000H .rdata$CastGuardVftablesC DATA
 0002:00018700 00000028H .rdata$T                DATA
 0002:00018728 00000484H .rdata$r                DATA
 0002:00018bac 00000018H .rdata$voltmd           DATA
 0002:00018bc4 00000534H .rdata$zzzdbg           DATA
 0002:000190f8 00000008H .rtc$IAA                DATA
 0002:00019100 00000008H .rtc$IZZ                DATA
 0002:00019108 00000008H .rtc$TAA                DATA
 0002:00019110 00000010H .rtc$TZZ                DATA
 0002:00019120 00000010H .tls                    DATA
 0002:00019130 00003ab8H .tls$                   DATA
 0002:0001cbe8 00000008H .tls$ZZZ                DATA
 0002:0001cbf0 00003fc0H .xdata                  DATA
 0002:00020bb0 000002ccH .xdata$x                DATA
 0002:00020e7c 00000020H .didat$2                DATA
 0002:00020e9c 00000024H .didat$3                DATA
 0002:00020ec0 00000120H .didat$4                DATA
 0002:00020fe0 00000958H .didat$6                DATA
 0002:00021938 00000128H .didat$7                DATA
 0002:00021a60 00000068H .edata                  DATA
 0002:00021ac8 00000014H .idata$2                DATA
 0002:00021adc 00000014H .idata$3                DATA
 0002:00021af0 000002a8H .idata$4                DATA
 0002:00021d98 00000654H .idata$6                DATA
 0003:00000000 00000c90H .data                   DATA
 0003:00000c90 00000170H .data$r                 DATA
 0003:00000e00 00000020H .data$rs                DATA
 0003:00000e20 00000120H .didat$5                DATA
 0003:00000f40 00082aa0H .bss                    DATA
 0004:00000000 00002880H .pdata                  DATA
 0005:00000000 000000fcH _RDATA                  DATA
 0006:00000000 00000060H .rsrc$01                DATA
 0006:00000060 00000180H .rsrc$02                DATA

  Address         Publics by Value              Rva+Base               Lib:Object

 0000:00000000       __guard_fids_count         0000000000000000     <absolute>
 0000:00000000       __guard_longjmp_table      0000000000000000     <absolute>
 0000:00000000       __arm64x_extra_rfe_table   0000000000000000     <absolute>
 0000:00000000       ___safe_se_handler_table   0000000000000000     <absolute>
 0000:00000000       __x64_code_ranges_to_entry_points_count 0000000000000000     <absolute>
 0000:00000000       __hybrid_code_map          0000000000000000     <absolute>
 0000:00000000       __arm64x_extra_rfe_table_size 0000000000000000     <absolute>
 0000:00000000       ___safe_se_handler_count   0000000000000000     <absolute>
 0000:00000000       __arm64x_redirection_metadata 0000000000000000     <absolute>
 0000:00000000       __guard_iat_table          0000000000000000     <absolute>
 0000:00000000       __x64_code_ranges_to_entry_points 0000000000000000     <absolute>
 0000:00000000       __guard_iat_count          0000000000000000     <absolute>
 0000:00000000       __guard_longjmp_count      0000000000000000     <absolute>
 0000:00000000       __dynamic_value_reloc_table 0000000000000000     <absolute>
 0000:00000000       __guard_eh_cont_count      0000000000000000     <absolute>
 0000:00000000       __hybrid_auxiliary_iat     0000000000000000     <absolute>
 0000:00000000       __hybrid_auxiliary_iat_copy 0000000000000000     <absolute>
 0000:00000000       __AbsoluteZero             0000000000000000     <absolute>
 0000:00000000       __guard_check_icall_a64n_fptr 0000000000000000     <absolute>
 0000:00000000       __guard_fids_table         0000000000000000     <absolute>
 0000:00000000       __arm64x_redirection_metadata_count 0000000000000000     <absolute>
 0000:00000000       __enclave_config           0000000000000000     <absolute>
 0000:00000000       __guard_eh_cont_table      0000000000000000     <absolute>
 0000:00000000       __arm64x_native_entrypoint 0000000000000000     <absolute>
 0000:00000000       __hybrid_code_map_count    0000000000000000     <absolute>
 0000:00000100       __guard_flags              0000000000000100     <absolute>
 0000:00000000       __ImageBase                0000000180000000     <linker-defined>
 0001:00000250       aesb_pseudo_round          0000000180001250 f   aesb.obj
 0001:00000c60       blake256_compress          0000000180001c60 f   blake256.obj
 0001:00001480       blake256_update            0000000180002480 f   blake256.obj
 0001:000015a0       blake256_final_h           00000001800025a0 f   blake256.obj
 0001:00001810       ?what@exception@stdext@@UEBAPEBDXZ 0000000180002810 f i crypto.obj
 0001:00001830       ?_Raise@exception@stdext@@QEBAXXZ 0000000180002830 f i crypto.obj
 0001:00001870       _guard_check_icall_nop     0000000180002870 f i LIBCMT:guard_support.obj
 0001:00001870       ?_Doraise@exception@stdext@@MEBAXXZ 0000000180002870 f i crypto.obj
 0001:00001880       ??_Ebad_array_new_length@stdext@@UEAAPEAXI@Z 0000000180002880 f i * CIL library *:* CIL module *
 0001:00001880       ??_Eruntime_error@std@@UEAAPEAXI@Z 0000000180002880 f i * CIL library *:* CIL module *
 0001:00001880       ??_Gbad_array_new_length@stdext@@UEAAPEAXI@Z 0000000180002880 f i crypto.obj
 0001:00001880       ??_Gruntime_error@std@@UEAAPEAXI@Z 0000000180002880 f i StringTools.obj
 0001:00001880       ??_Gexception@stdext@@UEAAPEAXI@Z 0000000180002880 f i crypto.obj
 0001:00001880       ??_Eexception@stdext@@UEAAPEAXI@Z 0000000180002880 f i * CIL library *:* CIL module *
 0001:000018b0       ?_Doraise@bad_alloc@stdext@@MEBAXXZ 00000001800028b0 f i crypto.obj
 0001:000018d0       ??0bad_array_new_length@stdext@@QEAA@XZ 00000001800028d0 f i crypto.obj
 0001:000018f0       ??1bad_array_new_length@stdext@@UEAA@XZ 00000001800028f0 f i crypto.obj
 0001:000018f0       ??1runtime_error@std@@UEAA@XZ 00000001800028f0 f i StringTools.obj
 0001:00001900       ?_Throw_bad_array_new_length@std@@YAXXZ 0000000180002900 f i crypto.obj
 0001:00001b30       ?prepareRingSignatures@crypto_ops@Crypto@@SA_NUHash@2@UKeyImage@2@V?$vector@UPublicKey@Crypto@@V?$allocator@UPublicKey@Crypto@@@std@@@std@@_KUEllipticCurveScalar@2@AEAV?$vector@USignature@Crypto@@V?$allocator@USignature@Crypto@@@std@@@6@@Z 0000000180002b30 f   crypto.obj
 0001:00002140       ?generateRingSignatures@crypto_ops@Crypto@@SA_NUHash@2@UKeyImage@2@V?$vector@UPublicKey@Crypto@@V?$allocator@UPublicKey@Crypto@@@std@@@std@@USecretKey@2@_KAEAV?$vector@USignature@Crypto@@V?$allocator@USignature@Crypto@@@std@@@6@@Z 0000000180003140 f   crypto.obj
 0001:00002380       ?checkRingSignature@crypto_ops@Crypto@@SA_NAEBUHash@2@AEBUKeyImage@2@V?$vector@UPublicKey@Crypto@@V?$allocator@UPublicKey@Crypto@@@std@@@std@@V?$vector@USignature@Crypto@@V?$allocator@USignature@Crypto@@@std@@@6@@Z 0000000180003380 f   crypto.obj
 0001:00002a20       ?generate_deterministic_subwallet_key@crypto_ops@Crypto@@CAXAEBUSecretKey@2@_KAEAU32@@Z 0000000180003a20 f   crypto.obj
 0001:00002bb0       ??1?$vector@USignature@Crypto@@V?$allocator@USignature@Crypto@@@std@@@std@@QEAA@XZ 0000000180003bb0 f i crypto.obj
 0001:00002c10       ??1?$vector@UKeyImage@Crypto@@V?$allocator@UKeyImage@Crypto@@@std@@@std@@QEAA@XZ 0000000180003c10 f i multisig.obj
 0001:00002c10       ??1?$vector@UHash@Crypto@@V?$allocator@UHash@Crypto@@@std@@@std@@QEAA@XZ 0000000180003c10 f i turtlecoin-crypto.obj
 0001:00002c10       ??1?$vector@UPublicKey@Crypto@@V?$allocator@UPublicKey@Crypto@@@std@@@std@@QEAA@XZ 0000000180003c10 f i crypto.obj
 0001:00002c10       ??1?$vector@USecretKey@Crypto@@V?$allocator@USecretKey@Crypto@@@std@@@std@@QEAA@XZ 0000000180003c10 f i multisig.obj
 0001:00002c70       ??0?$vector@UPublicKey@Crypto@@V?$allocator@UPublicKey@Crypto@@@std@@@std@@QEAA@AEBV01@@Z 0000000180003c70 f i crypto.obj
 0001:00002d60       ??1?$vector@EV?$allocator@E@std@@@std@@QEAA@XZ 0000000180003d60 f i crypto.obj
 0001:00002dc0       ??$?RV?$mersenne_twister_engine@I$0CA@$0CHA@$0BIN@$0BP@$0JJAILANP@$0L@$0PPPPPPPP@$06$0JNCMFGIA@$0P@$0OPMGAAAA@$0BC@$0GMAHIJGF@@std@@@?$uniform_int@H@std@@QEBAHAEAV?$mersenne_twister_engine@I$0CA@$0CHA@$0BIN@$0BP@$0JJAILANP@$0L@$0PPPPPPPP@$06$0JNCMFGIA@$0P@$0OPMGAAAA@$0BC@$0GMAHIJGF@@1@@Z 0000000180003dc0 f i crypto.obj
 0001:00002e90       ??$_Resize_reallocate@U_Value_init_tag@std@@@?$vector@USignature@Crypto@@V?$allocator@USignature@Crypto@@@std@@@std@@AEAAX_KAEBU_Value_init_tag@1@@Z 0000000180003e90 f i crypto.obj
 0001:00003080       ?_Xlength@?$vector@V?$basic_string@DU?$char_traits@D@std@@V?$allocator@D@2@@std@@V?$allocator@V?$basic_string@DU?$char_traits@D@std@@V?$allocator@D@2@@std@@@2@@std@@CAXXZ 0000000180004080 f i turtlecoin-crypto.obj
 0001:00003080       ?_Xlength@?$vector@UPublicKey@Crypto@@V?$allocator@UPublicKey@Crypto@@@std@@@std@@CAXXZ 0000000180004080 f i multisig.obj
 0001:00003080       ?_Xlength@?$vector@USecretKey@Crypto@@V?$allocator@USecretKey@Crypto@@@std@@@std@@CAXXZ 0000000180004080 f i multisig.obj
 0001:00003080       ?_Xlength@?$vector@USignature@Crypto@@V?$allocator@USignature@Crypto@@@std@@@std@@CAXXZ 0000000180004080 f i crypto.obj
 0001:00003080       ?_Xlength@?$vector@UKeyImage@Crypto@@V?$allocator@UKeyImage@Crypto@@@std@@@std@@CAXXZ 0000000180004080 f i multisig.obj
 0001:00003080       ?_Xlength@?$vector@UHash@Crypto@@V?$allocator@UHash@Crypto@@@std@@@std@@CAXXZ 0000000180004080 f i turtlecoin-crypto.obj
 0001:000030a0       ??R?$mersenne_twister@I$0CA@$0CHA@$0BIN@$0BP@$0JJAILANP@$0L@$06$0JNCMFGIA@$0P@$0OPMGAAAA@$0BC@@std@@QEAAIXZ 00000001800040a0 f i crypto.obj
 0001:00004c60       ge_add                     0000000180005c60 f   crypto-ops.obj
 0001:000051a0       ge_dsm_precomp             00000001800061a0 f   crypto-ops.obj
 0001:00005640       ge_double_scalarmult_base_vartime 0000000180006640 f   crypto-ops.obj
 0001:000059d0       ge_frombytes_vartime       00000001800069d0 f   crypto-ops.obj
 0001:000067f0       ge_p2_dbl                  00000001800077f0 f   crypto-ops.obj
 0001:00006ae0       ge_p3_to_cached            0000000180007ae0 f   crypto-ops.obj
 0001:00007170       ge_scalarmult_base         0000000180008170 f   crypto-ops.obj
 0001:000078a0       ge_sub                     00000001800088a0 f   crypto-ops.obj
 0001:00007c90       sc_reduce                  0000000180008c90 f   crypto-ops.obj
 0001:00009140       ge_scalarmult              000000018000a140 f   crypto-ops.obj
 0001:00009760       ge_double_scalarmult_precomp_vartime 000000018000a760 f   crypto-ops.obj
 0001:00009af0       ge_check_subgroup_precomp_vartime 000000018000aaf0 f   crypto-ops.obj
 0001:0000e7e0       ge_fromfe_frombytes_vartime 000000018000f7e0 f   crypto-ops.obj
 0001:0000eef0       sc_reduce32                000000018000fef0 f   crypto-ops.obj
 0001:0000f6c0       sc_add                     00000001800106c0 f   crypto-ops.obj
 0001:00010060       sc_sub                     0000000180011060 f   crypto-ops.obj
 0001:000109f0       sc_mul                     00000001800119f0 f   crypto-ops.obj
 0001:000123c0       sc_mulsub                  00000001800133c0 f   crypto-ops.obj
 0001:00014120       sc_check                   0000000180015120 f   crypto-ops.obj
 0001:00014340       sc_isnonzero               0000000180015340 f   crypto-ops.obj
 0001:00016310       hash_extra_blake           0000000180017310 f   hash-extra-blake.obj
 0001:000163c0       hash_extra_groestl         00000001800173c0 f   hash-extra-groestl.obj
 0001:00016450       hash_extra_jh              0000000180017450 f   hash-extra-jh.obj
 0001:00016530       hash_extra_skein           0000000180017530 f   hash-extra-skein.obj
 0001:000179b0       keccakf                    00000001800189b0 f   keccak.obj
 0001:00017d50       keccak                     0000000180018d50 f   keccak.obj
 0001:00018040       ?_Throw_tree_length_error@std@@YAXXZ 0000000180019040 f i multisig.obj
 0001:00018060       ?calculate_multisig_private_key@Multisig@Crypto@@YA_NAEBUPublicKey@2@AEBUSecretKey@2@AEAU42@@Z 0000000180019060 f   multisig.obj
 0001:000182b0       ?calculate_multisig_private_keys@Multisig@Crypto@@YA?AV?$vector@USecretKey@Crypto@@V?$allocator@USecretKey@Crypto@@@std@@@std@@AEBUSecretKey@2@AEBV?$vector@UPublicKey@Crypto@@V?$allocator@UPublicKey@Crypto@@@std@@@4@@Z 00000001800192b0 f   multisig.obj
 0001:00018390       ?calculate_shared_public_key@Multisig@Crypto@@YAXAEBV?$vector@UPublicKey@Crypto@@V?$allocator@UPublicKey@Crypto@@@std@@@std@@AEAUPublicKey@2@@Z 0000000180019390 f   multisig.obj
 0001:00018590       ?restore_key_image@Multisig@Crypto@@YA?AUKeyImage@2@AEBUPublicKey@2@AEBUEllipticCurveScalar@2@AEBV?$vector@UKeyImage@Crypto@@V?$allocator@UKeyImage@Crypto@@@std@@@std@@@Z 0000000180019590 f   multisig.obj
 0001:000188a0       ?restore_ring_signatures@Multisig@Crypto@@YA_NAEBUEllipticCurveScalar@2@AEBV?$vector@USecretKey@Crypto@@V?$allocator@USecretKey@Crypto@@@std@@@std@@_K0AEAV?$vector@USignature@Crypto@@V?$allocator@USignature@Crypto@@@std@@@5@@Z 00000001800198a0 f   multisig.obj
 0001:00018a40       ??$dedupeAndSortKeys@USecretKey@Crypto@@@Multisig@Crypto@@YA?AV?$vector@USecretKey@Crypto@@V?$allocator@USecretKey@Crypto@@@std@@@std@@AEBV23@@Z 0000000180019a40 f i multisig.obj
 0001:00018bf0       ??$addKeys@USecretKey@Crypto@@@Multisig@Crypto@@YA?AUSecretKey@1@AEBV?$vector@USecretKey@Crypto@@V?$allocator@USecretKey@Crypto@@@std@@@std@@@Z 0000000180019bf0 f i multisig.obj
 0001:00018bf0       ??$addKeys@UPublicKey@Crypto@@@Multisig@Crypto@@YA?AUPublicKey@1@AEBV?$vector@UPublicKey@Crypto@@V?$allocator@UPublicKey@Crypto@@@std@@@std@@@Z 0000000180019bf0 f i multisig.obj
 0001:00018bf0       ??$addKeys@UKeyImage@Crypto@@@Multisig@Crypto@@YA?AUKeyImage@1@AEBV?$vector@UKeyImage@Crypto@@V?$allocator@UKeyImage@Crypto@@@std@@@std@@@Z 0000000180019bf0 f i multisig.obj
 0001:00018e50       ??$addKeys@UKeyImage@Crypto@@@Multisig@Crypto@@YA?AUKeyImage@1@AEBU21@AEBV?$vector@UKeyImage@Crypto@@V?$allocator@UKeyImage@Crypto@@@std@@@std@@@Z 0000000180019e50 f i multisig.obj
 0001:00018e50       ??$addKeys@USecretKey@Crypto@@@Multisig@Crypto@@YA?AUSecretKey@1@AEBU21@AEBV?$vector@USecretKey@Crypto@@V?$allocator@USecretKey@Crypto@@@std@@@std@@@Z 0000000180019e50 f i multisig.obj
 0001:00018fd0       ??$_Emplace_reallocate@AEBUKeyImage@Crypto@@@?$vector@UKeyImage@Crypto@@V?$allocator@UKeyImage@Crypto@@@std@@@std@@QEAAPEAUKeyImage@Crypto@@QEAU23@AEBU23@@Z 0000000180019fd0 f i turtlecoin-crypto.obj
 0001:00018fd0       ??$_Emplace_reallocate@AEBUPublicKey@Crypto@@@?$vector@UPublicKey@Crypto@@V?$allocator@UPublicKey@Crypto@@@std@@@std@@QEAAPEAUPublicKey@Crypto@@QEAU23@AEBU23@@Z 0000000180019fd0 f i turtlecoin-crypto.obj
 0001:00018fd0       ??$_Emplace_reallocate@USecretKey@Crypto@@@?$vector@USecretKey@Crypto@@V?$allocator@USecretKey@Crypto@@@std@@@std@@QEAAPEAUSecretKey@Crypto@@QEAU23@$$QEAU23@@Z 0000000180019fd0 f i multisig.obj
 0001:00018fd0       ??$_Emplace_reallocate@AEBUHash@Crypto@@@?$vector@UHash@Crypto@@V?$allocator@UHash@Crypto@@@std@@@std@@QEAAPEAUHash@Crypto@@QEAU23@AEBU23@@Z 0000000180019fd0 f i turtlecoin-crypto.obj
 0001:00018fd0       ??$_Emplace_reallocate@AEBUSecretKey@Crypto@@@?$vector@USecretKey@Crypto@@V?$allocator@USecretKey@Crypto@@@std@@@std@@QEAAPEAUSecretKey@Crypto@@QEAU23@AEBU23@@Z 0000000180019fd0 f i turtlecoin-crypto.obj
 0001:000191e0       ??1?$set@USecretKey@Crypto@@V<lambda_1387b378ad95fc3feecc498563e668f1>@@V?$allocator@USecretKey@Crypto@@@std@@@std@@QEAA@XZ 000000018001a1e0 f i multisig.obj
 0001:000191e0       ??1?$set@UKeyImage@Crypto@@V<lambda_738093f31342dc7f78ed283946eb6f8a>@@V?$allocator@UKeyImage@Crypto@@@std@@@std@@QEAA@XZ 000000018001a1e0 f i multisig.obj
 0001:000191e0       ??1?$set@UPublicKey@Crypto@@V<lambda_b374d6cd7bfa8c7252b097a9a7bcf120>@@V?$allocator@UPublicKey@Crypto@@@std@@@std@@QEAA@XZ 000000018001a1e0 f i multisig.obj
 0001:000191e0       ??1?$_Tree@V?$_Tset_traits@UPublicKey@Crypto@@V<lambda_b374d6cd7bfa8c7252b097a9a7bcf120>@@V?$allocator@UPublicKey@Crypto@@@std@@$0A@@std@@@std@@QEAA@XZ 000000018001a1e0 f i multisig.obj
 0001:000191e0       ??1?$_Tree@V?$_Tset_traits@UKeyImage@Crypto@@V<lambda_738093f31342dc7f78ed283946eb6f8a>@@V?$allocator@UKeyImage@Crypto@@@std@@$0A@@std@@@std@@QEAA@XZ 000000018001a1e0 f i multisig.obj
 0001:000191e0       ??1?$_Tree@V?$_Tset_traits@USecretKey@Crypto@@V<lambda_1387b378ad95fc3feecc498563e668f1>@@V?$allocator@USecretKey@Crypto@@@std@@$0A@@std@@@std@@QEAA@XZ 000000018001a1e0 f i multisig.obj
 0001:00019240       ?_Xrange@?$vector@UKeyImage@Crypto@@V?$allocator@UKeyImage@Crypto@@@std@@@std@@CAXXZ 000000018001a240 f i multisig.obj
 0001:00019240       ?_Xrange@?$vector@UPublicKey@Crypto@@V?$allocator@UPublicKey@Crypto@@@std@@@std@@CAXXZ 000000018001a240 f i multisig.obj
 0001:00019240       ?_Xrange@?$vector@USecretKey@Crypto@@V?$allocator@USecretKey@Crypto@@@std@@@std@@CAXXZ 000000018001a240 f i multisig.obj
 0001:00019260       ??$_Range_construct_or_tidy@V?$_Tree_unchecked_const_iterator@V?$_Tree_val@U?$_Tree_simple_types@UKeyImage@Crypto@@@std@@@std@@U_Iterator_base0@2@@std@@@?$vector@UKeyImage@Crypto@@V?$allocator@UKeyImage@Crypto@@@std@@@std@@AEAAXV?$_Tree_unchecked_const_iterator@V?$_Tree_val@U?$_Tree_simple_types@UKeyImage@Crypto@@@std@@@std@@U_Iterator_base0@2@@1@0Uforward_iterator_tag@1@@Z 000000018001a260 f i multisig.obj
 0001:00019260       ??$_Range_construct_or_tidy@V?$_Tree_unchecked_const_iterator@V?$_Tree_val@U?$_Tree_simple_types@UPublicKey@Crypto@@@std@@@std@@U_Iterator_base0@2@@std@@@?$vector@UPublicKey@Crypto@@V?$allocator@UPublicKey@Crypto@@@std@@@std@@AEAAXV?$_Tree_unchecked_const_iterator@V?$_Tree_val@U?$_Tree_simple_types@UPublicKey@Crypto@@@std@@@std@@U_Iterator_base0@2@@1@0Uforward_iterator_tag@1@@Z 000000018001a260 f i multisig.obj
 0001:00019260       ??$_Range_construct_or_tidy@V?$_Tree_unchecked_const_iterator@V?$_Tree_val@U?$_Tree_simple_types@USecretKey@Crypto@@@std@@@std@@U_Iterator_base0@2@@std@@@?$vector@USecretKey@Crypto@@V?$allocator@USecretKey@Crypto@@@std@@@std@@AEAAXV?$_Tree_unchecked_const_iterator@V?$_Tree_val@U?$_Tree_simple_types@USecretKey@Crypto@@@std@@@std@@U_Iterator_base0@2@@1@0Uforward_iterator_tag@1@@Z 000000018001a260 f i multisig.obj
 0001:00019400       ??$_Erase_tree@V?$allocator@U?$_Tree_node@UPublicKey@Crypto@@PEAX@std@@@std@@@?$_Tree_val@U?$_Tree_simple_types@UPublicKey@Crypto@@@std@@@std@@QEAAXAEAV?$allocator@U?$_Tree_node@UPublicKey@Crypto@@PEAX@std@@@1@PEAU?$_Tree_node@UPublicKey@Crypto@@PEAX@1@@Z 000000018001a400 f i multisig.obj
 0001:00019400       ??$_Erase_tree@V?$allocator@U?$_Tree_node@USecretKey@Crypto@@PEAX@std@@@std@@@?$_Tree_val@U?$_Tree_simple_types@USecretKey@Crypto@@@std@@@std@@QEAAXAEAV?$allocator@U?$_Tree_node@USecretKey@Crypto@@PEAX@std@@@1@PEAU?$_Tree_node@USecretKey@Crypto@@PEAX@1@@Z 000000018001a400 f i multisig.obj
 0001:00019400       ??$_Erase_tree@V?$allocator@U?$_Tree_node@UKeyImage@Crypto@@PEAX@std@@@std@@@?$_Tree_val@U?$_Tree_simple_types@UKeyImage@Crypto@@@std@@@std@@QEAAXAEAV?$allocator@U?$_Tree_node@UKeyImage@Crypto@@PEAX@std@@@1@PEAU?$_Tree_node@UKeyImage@Crypto@@PEAX@1@@Z 000000018001a400 f i multisig.obj
 0001:00019460       ?_Insert_node@?$_Tree_val@U?$_Tree_simple_types@UKeyImage@Crypto@@@std@@@std@@QEAAPEAU?$_Tree_node@UKeyImage@Crypto@@PEAX@2@U?$_Tree_id@PEAU?$_Tree_node@UKeyImage@Crypto@@PEAX@std@@@2@QEAU32@@Z 000000018001a460 f i multisig.obj
 0001:00019460       ?_Insert_node@?$_Tree_val@U?$_Tree_simple_types@UPublicKey@Crypto@@@std@@@std@@QEAAPEAU?$_Tree_node@UPublicKey@Crypto@@PEAX@2@U?$_Tree_id@PEAU?$_Tree_node@UPublicKey@Crypto@@PEAX@std@@@2@QEAU32@@Z 000000018001a460 f i multisig.obj
 0001:00019460       ?_Insert_node@?$_Tree_val@U?$_Tree_simple_types@USecretKey@Crypto@@@std@@@std@@QEAAPEAU?$_Tree_node@USecretKey@Crypto@@PEAX@2@U?$_Tree_id@PEAU?$_Tree_node@USecretKey@Crypto@@PEAX@std@@@2@QEAU32@@Z 000000018001a460 f i multisig.obj
 0001:000196e0       ??1?$_Alloc_construct_ptr@V?$allocator@U?$_Tree_node@UKeyImage@Crypto@@PEAX@std@@@std@@@std@@QEAA@XZ 000000018001a6e0 f i multisig.obj
 0001:000196e0       ??1?$_Alloc_construct_ptr@V?$allocator@U?$_Tree_node@UPublicKey@Crypto@@PEAX@std@@@std@@@std@@QEAA@XZ 000000018001a6e0 f i multisig.obj
 0001:000196e0       ??1?$_Alloc_construct_ptr@V?$allocator@U?$_Tree_node@USecretKey@Crypto@@PEAX@std@@@std@@@std@@QEAA@XZ 000000018001a6e0 f i multisig.obj
 0001:00019700       ??$_Find_hint@USecretKey@Crypto@@@?$_Tree@V?$_Tset_traits@USecretKey@Crypto@@V<lambda_1387b378ad95fc3feecc498563e668f1>@@V?$allocator@USecretKey@Crypto@@@std@@$0A@@std@@@std@@IEBA?AU?$_Tree_find_hint_result@PEAU?$_Tree_node@USecretKey@Crypto@@PEAX@std@@@1@QEAU?$_Tree_node@USecretKey@Crypto@@PEAX@1@AEBUSecretKey@Crypto@@@Z 000000018001a700 f i multisig.obj
 0001:00019700       ??$_Find_hint@UKeyImage@Crypto@@@?$_Tree@V?$_Tset_traits@UKeyImage@Crypto@@V<lambda_738093f31342dc7f78ed283946eb6f8a>@@V?$allocator@UKeyImage@Crypto@@@std@@$0A@@std@@@std@@IEBA?AU?$_Tree_find_hint_result@PEAU?$_Tree_node@UKeyImage@Crypto@@PEAX@std@@@1@QEAU?$_Tree_node@UKeyImage@Crypto@@PEAX@1@AEBUKeyImage@Crypto@@@Z 000000018001a700 f i multisig.obj
 0001:00019700       ??$_Find_hint@UPublicKey@Crypto@@@?$_Tree@V?$_Tset_traits@UPublicKey@Crypto@@V<lambda_b374d6cd7bfa8c7252b097a9a7bcf120>@@V?$allocator@UPublicKey@Crypto@@@std@@$0A@@std@@@std@@IEBA?AU?$_Tree_find_hint_result@PEAU?$_Tree_node@UPublicKey@Crypto@@PEAX@std@@@1@QEAU?$_Tree_node@UPublicKey@Crypto@@PEAX@1@AEBUPublicKey@Crypto@@@Z 000000018001a700 f i multisig.obj
 0001:00019ad0       __local_stdio_printf_options 000000018001aad0 f i oaes_lib.obj
 0001:00019d90       oaes_key_import_data       000000018001ad90 f   oaes_lib.obj
 0001:0001cd70       fprintf                    000000018001dd70 f i slow-hash-portable.obj
 0001:0001cdc0       cn_slow_hash               000000018001ddc0 f   slow-hash-portable.obj
 0001:0001de40       __local_stdio_scanf_options 000000018001ee40 f i StringTools.obj
 0001:0001de50       ??0exception@stdext@@QEAA@AEBV01@@Z 000000018001ee50 f i StringTools.obj
 0001:0001de70       ?_Xlen_string@std@@YAXXZ   000000018001ee70 f i StringTools.obj
 0001:0001de90       ??0runtime_error@std@@QEAA@PEBD@Z 000000018001ee90 f i StringTools.obj
 0001:0001deb0       ??0runtime_error@std@@QEAA@AEBV01@@Z 000000018001eeb0 f i StringTools.obj
 0001:0001ded0       ?fromHex@Common@@YA?AV?$vector@EV?$allocator@E@std@@@std@@AEBV?$basic_string@DU?$char_traits@D@std@@V?$allocator@D@2@@3@@Z 000000018001eed0 f   StringTools.obj
 0001:0001e080       ??1?$basic_string@DU?$char_traits@D@std@@V?$allocator@D@2@@std@@QEAA@XZ 000000018001f080 f i StringTools.obj
 0001:0001e0e0       ??4?$basic_string@DU?$char_traits@D@std@@V?$allocator@D@2@@std@@QEAAAEAV01@$$QEAV01@@Z 000000018001f0e0 f i StringTools.obj
 0001:0001e170       ??0?$basic_string@DU?$char_traits@D@std@@V?$allocator@D@2@@std@@QEAA@AEBV01@@Z 000000018001f170 f i StringTools.obj
 0001:0001e250       ?assign@?$basic_string@DU?$char_traits@D@std@@V?$allocator@D@2@@std@@QEAAAEAV12@QEBD_K@Z 000000018001f250 f i StringTools.obj
 0001:0001e3b0       ??$_Reallocate_grow_by@V<lambda_319d5e083f45f90dcdce5dce53cbb275>@@D@?$basic_string@DU?$char_traits@D@std@@V?$allocator@D@2@@std@@AEAAAEAV01@_KV<lambda_319d5e083f45f90dcdce5dce53cbb275>@@D@Z 000000018001f3b0 f i StringTools.obj
 0001:0001e520       tree_hash                  000000018001f520 f   tree-hash.obj
 0001:0001e700       tree_branch                000000018001f700 f   tree-hash.obj
 0001:0001e8e0       argon2_ctx                 000000018001f8e0 f   argon2.obj
 0001:0001ea90       argon2_hash                000000018001fa90 f   argon2.obj
 0001:00023280       fill_segment_default       0000000180024280 f   argon2-arch.obj
 0001:000232a0       copy_block                 00000001800242a0 f   core.obj
 0001:00023300       xor_block                  0000000180024300 f   core.obj
 0001:000233b0       finalize                   00000001800243b0 f   core.obj
 0001:000238a0       validate_inputs            00000001800248a0 f   core.obj
 0001:000239a0       initial_hash               00000001800249a0 f   core.obj
 0001:000242d0       initialize                 00000001800252d0 f   core.obj
 0001:000244f0       printf                     00000001800254f0 f i genkat.obj
 0001:00024550       initial_kat                0000000180025550 f   genkat.obj
 0001:00024770       internal_kat               0000000180025770 f   genkat.obj
 0001:00024830       blake2b_compress           0000000180025830 f   blake2.obj
 0001:00026940       blake2b_update             0000000180027940 f   blake2.obj
 0001:00026a40       blake2b_final              0000000180027a40 f   blake2.obj
 0001:00026b50       blake2b_long               0000000180027b50 f   blake2.obj
 0001:00026fa0       ?tree_hash_from_branch@Crypto@@YAXPEBUHash@1@_KAEBU21@PEBXAEAU21@@Z 0000000180027fa0 f i turtlecoin-crypto.obj
 0001:00027140       ?cn_fast_hash@Cryptography@Core@@SA?AV?$basic_string@DU?$char_traits@D@std@@V?$allocator@D@2@@std@@V34@@Z 0000000180028140 f   turtlecoin-crypto.obj
 0001:000273a0       ?cn_slow_hash_v0@Cryptography@Core@@SA?AV?$basic_string@DU?$char_traits@D@std@@V?$allocator@D@2@@std@@V34@@Z 00000001800283a0 f   turtlecoin-crypto.obj
 0001:00027600       ?cn_slow_hash_v1@Cryptography@Core@@SA?AV?$basic_string@DU?$char_traits@D@std@@V?$allocator@D@2@@std@@V34@@Z 0000000180028600 f   turtlecoin-crypto.obj
 0001:00027870       ?cn_slow_hash_v2@Cryptography@Core@@SA?AV?$basic_string@DU?$char_traits@D@std@@V?$allocator@D@2@@std@@V34@@Z 0000000180028870 f   turtlecoin-crypto.obj
 0001:00027ae0       ?cn_lite_slow_hash_v0@Cryptography@Core@@SA?AV?$basic_string@DU?$char_traits@D@std@@V?$allocator@D@2@@std@@V34@@Z 0000000180028ae0 f   turtlecoin-crypto.obj
 0001:00027d50       ?cn_lite_slow_hash_v1@Cryptography@Core@@SA?AV?$basic_string@DU?$char_traits@D@std@@V?$allocator@D@2@@std@@V34@@Z 0000000180028d50 f   turtlecoin-crypto.obj
 0001:00027fc0       ?cn_lite_slow_hash_v2@Cryptography@Core@@SA?AV?$basic_string@DU?$char_traits@D@std@@V?$allocator@D@2@@std@@V34@@Z 0000000180028fc0 f   turtlecoin-crypto.obj
 0001:00028230       ?cn_dark_slow_hash_v0@Cryptography@Core@@SA?AV?$basic_string@DU?$char_traits@D@std@@V?$allocator@D@2@@std@@V34@@Z 0000000180029230 f   turtlecoin-crypto.obj
 0001:00028490       ?cn_dark_slow_hash_v1@Cryptography@Core@@SA?AV?$basic_string@DU?$char_traits@D@std@@V?$allocator@D@2@@std@@V34@@Z 0000000180029490 f   turtlecoin-crypto.obj
 0001:00028700       ?cn_dark_slow_hash_v2@Cryptography@Core@@SA?AV?$basic_string@DU?$char_traits@D@std@@V?$allocator@D@2@@std@@V34@@Z 0000000180029700 f   turtlecoin-crypto.obj
 0001:00028970       ?cn_dark_lite_slow_hash_v0@Cryptography@Core@@SA?AV?$basic_string@DU?$char_traits@D@std@@V?$allocator@D@2@@std@@V34@@Z 0000000180029970 f   turtlecoin-crypto.obj
 0001:00028be0       ?cn_dark_lite_slow_hash_v1@Cryptography@Core@@SA?AV?$basic_string@DU?$char_traits@D@std@@V?$allocator@D@2@@std@@V34@@Z 0000000180029be0 f   turtlecoin-crypto.obj
 0001:00028e50       ?cn_dark_lite_slow_hash_v2@Cryptography@Core@@SA?AV?$basic_string@DU?$char_traits@D@std@@V?$allocator@D@2@@std@@V34@@Z 0000000180029e50 f   turtlecoin-crypto.obj
 0001:000290c0       ?cn_turtle_slow_hash_v0@Cryptography@Core@@SA?AV?$basic_string@DU?$char_traits@D@std@@V?$allocator@D@2@@std@@V34@@Z 000000018002a0c0 f   turtlecoin-crypto.obj
 0001:00029320       ?cn_turtle_slow_hash_v1@Cryptography@Core@@SA?AV?$basic_string@DU?$char_traits@D@std@@V?$allocator@D@2@@std@@V34@@Z 000000018002a320 f   turtlecoin-crypto.obj
 0001:00029590       ?cn_turtle_slow_hash_v2@Cryptography@Core@@SA?AV?$basic_string@DU?$char_traits@D@std@@V?$allocator@D@2@@std@@V34@@Z 000000018002a590 f   turtlecoin-crypto.obj
 0001:00029800       ?cn_turtle_lite_slow_hash_v0@Cryptography@Core@@SA?AV?$basic_string@DU?$char_traits@D@std@@V?$allocator@D@2@@std@@V34@@Z 000000018002a800 f   turtlecoin-crypto.obj
 0001:00029a70       ?cn_turtle_lite_slow_hash_v1@Cryptography@Core@@SA?AV?$basic_string@DU?$char_traits@D@std@@V?$allocator@D@2@@std@@V34@@Z 000000018002aa70 f   turtlecoin-crypto.obj
 0001:00029ce0       ?cn_turtle_lite_slow_hash_v2@Cryptography@Core@@SA?AV?$basic_string@DU?$char_traits@D@std@@V?$allocator@D@2@@std@@V34@@Z 000000018002ace0 f   turtlecoin-crypto.obj
 0001:00029f50       ?chukwa_slow_hash@Cryptography@Core@@SA?AV?$basic_string@DU?$char_traits@D@std@@V?$allocator@D@2@@std@@V34@@Z 000000018002af50 f   turtlecoin-crypto.obj
 0001:0002a1e0       ?tree_hash@Cryptography@Core@@SA?AV?$basic_string@DU?$char_traits@D@std@@V?$allocator@D@2@@std@@V?$vector@V?$basic_string@DU?$char_traits@D@std@@V?$allocator@D@2@@std@@V?$allocator@V?$basic_string@DU?$char_traits@D@std@@V?$allocator@D@2@@std@@@2@@4@@Z 000000018002b1e0 f   turtlecoin-crypto.obj
 0001:0002a390       ?tree_branch@Cryptography@Core@@SA?AV?$vector@V?$basic_string@DU?$char_traits@D@std@@V?$allocator@D@2@@std@@V?$allocator@V?$basic_string@DU?$char_traits@D@std@@V?$allocator@D@2@@std@@@2@@std@@V34@@Z 000000018002b390 f   turtlecoin-crypto.obj
 0001:0002a5b0       ?tree_hash_from_branch@Cryptography@Core@@SA?AV?$basic_string@DU?$char_traits@D@std@@V?$allocator@D@2@@std@@V?$vector@V?$basic_string@DU?$char_traits@D@std@@V?$allocator@D@2@@std@@V?$allocator@V?$basic_string@DU?$char_traits@D@std@@V?$allocator@D@2@@std@@@2@@4@V34@1@Z 000000018002b5b0 f   turtlecoin-crypto.obj
 0001:0002aad0       ?generateRingSignatures@Cryptography@Core@@SA_NV?$basic_string@DU?$char_traits@D@std@@V?$allocator@D@2@@std@@0V?$vector@V?$basic_string@DU?$char_traits@D@std@@V?$allocator@D@2@@std@@V?$allocator@V?$basic_string@DU?$char_traits@D@std@@V?$allocator@D@2@@std@@@2@@4@0_KAEAV54@@Z 000000018002bad0 f   turtlecoin-crypto.obj
 0001:0002aff0       ?checkRingSignature@Cryptography@Core@@SA_NV?$basic_string@DU?$char_traits@D@std@@V?$allocator@D@2@@std@@0V?$vector@V?$basic_string@DU?$char_traits@D@std@@V?$allocator@D@2@@std@@V?$allocator@V?$basic_string@DU?$char_traits@D@std@@V?$allocator@D@2@@std@@@2@@4@1@Z 000000018002bff0 f   turtlecoin-crypto.obj
 0001:0002b4b0       ?generatePrivateViewKeyFromPrivateSpendKey@Cryptography@Core@@SA?AV?$basic_string@DU?$char_traits@D@std@@V?$allocator@D@2@@std@@V34@@Z 000000018002c4b0 f   turtlecoin-crypto.obj
 0001:0002b740       ?generateViewKeysFromPrivateSpendKey@Cryptography@Core@@SAXV?$basic_string@DU?$char_traits@D@std@@V?$allocator@D@2@@std@@AEAV34@1@Z 000000018002c740 f   turtlecoin-crypto.obj
 0001:0002bae0       ?generateKeys@Cryptography@Core@@SAXAEAV?$basic_string@DU?$char_traits@D@std@@V?$allocator@D@2@@std@@0@Z 000000018002cae0 f   turtlecoin-crypto.obj
 0001:0002bd40       ?checkKey@Cryptography@Core@@SA_NV?$basic_string@DU?$char_traits@D@std@@V?$allocator@D@2@@std@@@Z 000000018002cd40 f   turtlecoin-crypto.obj
 0001:0002be80       ?secretKeyToPublicKey@Cryptography@Core@@SA_NV?$basic_string@DU?$char_traits@D@std@@V?$allocator@D@2@@std@@AEAV34@@Z 000000018002ce80 f   turtlecoin-crypto.obj
 0001:0002c0b0       ?generateKeyDerivation@Cryptography@Core@@SA_NV?$basic_string@DU?$char_traits@D@std@@V?$allocator@D@2@@std@@0AEAV34@@Z 000000018002d0b0 f   turtlecoin-crypto.obj
 0001:0002c600       ?derivePublicKey@Cryptography@Core@@SA_NV?$basic_string@DU?$char_traits@D@std@@V?$allocator@D@2@@std@@_K0AEAV34@@Z 000000018002d600 f   turtlecoin-crypto.obj
 0001:0002ca60       ?deriveSecretKey@Cryptography@Core@@SA?AV?$basic_string@DU?$char_traits@D@std@@V?$allocator@D@2@@std@@V34@_K0@Z 000000018002da60 f   turtlecoin-crypto.obj
 0001:0002ce00       ?underivePublicKey@Cryptography@Core@@SA_NV?$basic_string@DU?$char_traits@D@std@@V?$allocator@D@2@@std@@_K0AEAV34@@Z 000000018002de00 f   turtlecoin-crypto.obj
 0001:0002d260       ?generateSignature@Cryptography@Core@@SA?AV?$basic_string@DU?$char_traits@D@std@@V?$allocator@D@2@@std@@V34@00@Z 000000018002e260 f   turtlecoin-crypto.obj
 0001:0002d760       ?checkSignature@Cryptography@Core@@SA_NV?$basic_string@DU?$char_traits@D@std@@V?$allocator@D@2@@std@@00@Z 000000018002e760 f   turtlecoin-crypto.obj
 0001:0002dbe0       ?generateKeyImage@Cryptography@Core@@SA?AV?$basic_string@DU?$char_traits@D@std@@V?$allocator@D@2@@std@@V34@0@Z 000000018002ebe0 f   turtlecoin-crypto.obj
 0001:0002dee0       ?scalarmultKey@Cryptography@Core@@SA?AV?$basic_string@DU?$char_traits@D@std@@V?$allocator@D@2@@std@@V34@0@Z 000000018002eee0 f   turtlecoin-crypto.obj
 0001:0002e1d0       ?hashToEllipticCurve@Cryptography@Core@@SA?AV?$basic_string@DU?$char_traits@D@std@@V?$allocator@D@2@@std@@V34@@Z 000000018002f1d0 f   turtlecoin-crypto.obj
 0001:0002e4f0       ?scReduce32@Cryptography@Core@@SA?AV?$basic_string@DU?$char_traits@D@std@@V?$allocator@D@2@@std@@V34@@Z 000000018002f4f0 f   turtlecoin-crypto.obj
 0001:0002e640       ?hashToScalar@Cryptography@Core@@SA?AV?$basic_string@DU?$char_traits@D@std@@V?$allocator@D@2@@std@@V34@@Z 000000018002f640 f   turtlecoin-crypto.obj
 0001:0002e810       ?generateDeterministicSubwalletKeys@Cryptography@Core@@SA_NV?$basic_string@DU?$char_traits@D@std@@V?$allocator@D@2@@std@@_KAEAV34@2@Z 000000018002f810 f   turtlecoin-crypto.obj
 0001:0002ebe0       ?restoreKeyImage@Cryptography@Core@@SA?AV?$basic_string@DU?$char_traits@D@std@@V?$allocator@D@2@@std@@AEBV34@0_KAEBV?$vector@V?$basic_string@DU?$char_traits@D@std@@V?$allocator@D@2@@std@@V?$allocator@V?$basic_string@DU?$char_traits@D@std@@V?$allocator@D@2@@std@@@2@@4@@Z 000000018002fbe0 f   turtlecoin-crypto.obj
 0001:0002ee80       ?restoreRingSignatures@Cryptography@Core@@SA_NAEBV?$basic_string@DU?$char_traits@D@std@@V?$allocator@D@2@@std@@_KAEBV?$vector@V?$basic_string@DU?$char_traits@D@std@@V?$allocator@D@2@@std@@V?$allocator@V?$basic_string@DU?$char_traits@D@std@@V?$allocator@D@2@@std@@@2@@4@10AEAV54@@Z 000000018002fe80 f   turtlecoin-crypto.obj
 0001:0002f180       ?generatePartialSigningKey@Cryptography@Core@@SA?AV?$basic_string@DU?$char_traits@D@std@@V?$allocator@D@2@@std@@AEBV34@0@Z 0000000180030180 f   turtlecoin-crypto.obj
 0001:0002f3d0       ?prepareRingSignatures@Cryptography@Core@@SA_NV?$basic_string@DU?$char_traits@D@std@@V?$allocator@D@2@@std@@0V?$vector@V?$basic_string@DU?$char_traits@D@std@@V?$allocator@D@2@@std@@V?$allocator@V?$basic_string@DU?$char_traits@D@std@@V?$allocator@D@2@@std@@@2@@4@_KAEAV54@AEAV34@@Z 00000001800303d0 f   turtlecoin-crypto.obj
 0001:0002f8e0       ?prepareRingSignatures@Cryptography@Core@@SA_NV?$basic_string@DU?$char_traits@D@std@@V?$allocator@D@2@@std@@0V?$vector@V?$basic_string@DU?$char_traits@D@std@@V?$allocator@D@2@@std@@V?$allocator@V?$basic_string@DU?$char_traits@D@std@@V?$allocator@D@2@@std@@@2@@4@_K0AEAV54@@Z 00000001800308e0 f   turtlecoin-crypto.obj
 0001:0002fe00       ?completeRingSignatures@Cryptography@Core@@SA_NV?$basic_string@DU?$char_traits@D@std@@V?$allocator@D@2@@std@@_KAEBV34@AEAV?$vector@V?$basic_string@DU?$char_traits@D@std@@V?$allocator@D@2@@std@@V?$allocator@V?$basic_string@DU?$char_traits@D@std@@V?$allocator@D@2@@std@@@2@@4@@Z 0000000180030e00 f   turtlecoin-crypto.obj
 0001:00030070       ?calculateMultisigPrivateKeys@Cryptography@Core@@SA?AV?$vector@V?$basic_string@DU?$char_traits@D@std@@V?$allocator@D@2@@std@@V?$allocator@V?$basic_string@DU?$char_traits@D@std@@V?$allocator@D@2@@std@@@2@@std@@AEBV?$basic_string@DU?$char_traits@D@std@@V?$allocator@D@2@@4@AEBV34@@Z 0000000180031070 f   turtlecoin-crypto.obj
 0001:00030230       ?calculateSharedPrivateKey@Cryptography@Core@@SA?AV?$basic_string@DU?$char_traits@D@std@@V?$allocator@D@2@@std@@AEBV?$vector@V?$basic_string@DU?$char_traits@D@std@@V?$allocator@D@2@@std@@V?$allocator@V?$basic_string@DU?$char_traits@D@std@@V?$allocator@D@2@@std@@@2@@4@@Z 0000000180031230 f   turtlecoin-crypto.obj
 0001:00030420       ??1?$vector@V?$basic_string@DU?$char_traits@D@std@@V?$allocator@D@2@@std@@V?$allocator@V?$basic_string@DU?$char_traits@D@std@@V?$allocator@D@2@@std@@@2@@std@@QEAA@XZ 0000000180031420 f i turtlecoin-crypto.obj
 0001:00030430       ??0?$vector@V?$basic_string@DU?$char_traits@D@std@@V?$allocator@D@2@@std@@V?$allocator@V?$basic_string@DU?$char_traits@D@std@@V?$allocator@D@2@@std@@@2@@std@@QEAA@AEBV01@@Z 0000000180031430 f i turtlecoin-crypto.obj
 0001:00030540       ??1?$_Tidy_guard@V?$vector@V?$basic_string@DU?$char_traits@D@std@@V?$allocator@D@2@@std@@V?$allocator@V?$basic_string@DU?$char_traits@D@std@@V?$allocator@D@2@@std@@@2@@std@@@std@@QEAA@XZ 0000000180031540 f i turtlecoin-crypto.obj
 0001:00030550       ?_Tidy@?$vector@V?$basic_string@DU?$char_traits@D@std@@V?$allocator@D@2@@std@@V?$allocator@V?$basic_string@DU?$char_traits@D@std@@V?$allocator@D@2@@std@@@2@@std@@AEAAXXZ 0000000180031550 f i turtlecoin-crypto.obj
 0001:000305c0       ??$podToHex@UPublicKey@Crypto@@@Common@@YA?AV?$basic_string@DU?$char_traits@D@std@@V?$allocator@D@2@@std@@AEBUPublicKey@Crypto@@@Z 00000001800315c0 f i turtlecoin-crypto.obj
 0001:000305c0       ??$podToHex@UEllipticCurveScalar@Crypto@@@Common@@YA?AV?$basic_string@DU?$char_traits@D@std@@V?$allocator@D@2@@std@@AEBUEllipticCurveScalar@Crypto@@@Z 00000001800315c0 f i turtlecoin-crypto.obj
 0001:000305c0       ??$podToHex@UKeyImage@Crypto@@@Common@@YA?AV?$basic_string@DU?$char_traits@D@std@@V?$allocator@D@2@@std@@AEBUKeyImage@Crypto@@@Z 00000001800315c0 f i turtlecoin-crypto.obj
 0001:000306c0       ??$podToHex@USignature@Crypto@@@Common@@YA?AV?$basic_string@DU?$char_traits@D@std@@V?$allocator@D@2@@std@@AEBUSignature@Crypto@@@Z 00000001800316c0 f i turtlecoin-crypto.obj
 0001:000307c0       ??$toTypedVector@UKeyImage@Crypto@@@Core@@YAXAEBV?$vector@V?$basic_string@DU?$char_traits@D@std@@V?$allocator@D@2@@std@@V?$allocator@V?$basic_string@DU?$char_traits@D@std@@V?$allocator@D@2@@std@@@2@@std@@AEAV?$vector@UKeyImage@Crypto@@V?$allocator@UKeyImage@Crypto@@@std@@@2@@Z 00000001800317c0 f i turtlecoin-crypto.obj
 0001:000307c0       ??$toTypedVector@UPublicKey@Crypto@@@Core@@YAXAEBV?$vector@V?$basic_string@DU?$char_traits@D@std@@V?$allocator@D@2@@std@@V?$allocator@V?$basic_string@DU?$char_traits@D@std@@V?$allocator@D@2@@std@@@2@@std@@AEAV?$vector@UPublicKey@Crypto@@V?$allocator@UPublicKey@Crypto@@@std@@@2@@Z 00000001800317c0 f i turtlecoin-crypto.obj
 0001:000307c0       ??$toTypedVector@USecretKey@Crypto@@@Core@@YAXAEBV?$vector@V?$basic_string@DU?$char_traits@D@std@@V?$allocator@D@2@@std@@V?$allocator@V?$basic_string@DU?$char_traits@D@std@@V?$allocator@D@2@@std@@@2@@std@@AEAV?$vector@USecretKey@Crypto@@V?$allocator@USecretKey@Crypto@@@std@@@2@@Z 00000001800317c0 f i turtlecoin-crypto.obj
 0001:000307c0       ??$toTypedVector@UHash@Crypto@@@Core@@YAXAEBV?$vector@V?$basic_string@DU?$char_traits@D@std@@V?$allocator@D@2@@std@@V?$allocator@V?$basic_string@DU?$char_traits@D@std@@V?$allocator@D@2@@std@@@2@@std@@AEAV?$vector@UHash@Crypto@@V?$allocator@UHash@Crypto@@@std@@@2@@Z 00000001800317c0 f i turtlecoin-crypto.obj
 0001:00030940       ??$toStringVector@UHash@Crypto@@@Core@@YAXAEBV?$vector@UHash@Crypto@@V?$allocator@UHash@Crypto@@@std@@@std@@AEAV?$vector@V?$basic_string@DU?$char_traits@D@std@@V?$allocator@D@2@@std@@V?$allocator@V?$basic_string@DU?$char_traits@D@std@@V?$allocator@D@2@@std@@@2@@2@@Z 0000000180031940 f i turtlecoin-crypto.obj
 0001:00030940       ??$toStringVector@USecretKey@Crypto@@@Core@@YAXAEBV?$vector@USecretKey@Crypto@@V?$allocator@USecretKey@Crypto@@@std@@@std@@AEAV?$vector@V?$basic_string@DU?$char_traits@D@std@@V?$allocator@D@2@@std@@V?$allocator@V?$basic_string@DU?$char_traits@D@std@@V?$allocator@D@2@@std@@@2@@2@@Z 0000000180031940 f i turtlecoin-crypto.obj
 0001:00030b30       ??$toStringVector@USignature@Crypto@@@Core@@YAXAEBV?$vector@USignature@Crypto@@V?$allocator@USignature@Crypto@@@std@@@std@@AEAV?$vector@V?$basic_string@DU?$char_traits@D@std@@V?$allocator@D@2@@std@@V?$allocator@V?$basic_string@DU?$char_traits@D@std@@V?$allocator@D@2@@std@@@2@@2@@Z 0000000180031b30 f i turtlecoin-crypto.obj
 0001:00030d40       ??$toTypedVector@USignature@Crypto@@@Core@@YAXAEBV?$vector@V?$basic_string@DU?$char_traits@D@std@@V?$allocator@D@2@@std@@V?$allocator@V?$basic_string@DU?$char_traits@D@std@@V?$allocator@D@2@@std@@@2@@std@@AEAV?$vector@USignature@Crypto@@V?$allocator@USignature@Crypto@@@std@@@2@@Z 0000000180031d40 f i turtlecoin-crypto.obj
 0001:00030f00       ??$_Destroy_range@V?$allocator@V?$basic_string@DU?$char_traits@D@std@@V?$allocator@D@2@@std@@@std@@@std@@YAXPEAV?$basic_string@DU?$char_traits@D@std@@V?$allocator@D@2@@0@QEAV10@AEAV?$allocator@V?$basic_string@DU?$char_traits@D@std@@V?$allocator@D@2@@std@@@0@@Z 0000000180031f00 f i turtlecoin-crypto.obj
 0001:00030f90       ??$_Emplace_reallocate@AEBUSignature@Crypto@@@?$vector@USignature@Crypto@@V?$allocator@USignature@Crypto@@@std@@@std@@QEAAPEAUSignature@Crypto@@QEAU23@AEBU23@@Z 0000000180031f90 f i turtlecoin-crypto.obj
 0001:000311f0       ??$_Emplace_reallocate@V?$basic_string@DU?$char_traits@D@std@@V?$allocator@D@2@@std@@@?$vector@V?$basic_string@DU?$char_traits@D@std@@V?$allocator@D@2@@std@@V?$allocator@V?$basic_string@DU?$char_traits@D@std@@V?$allocator@D@2@@std@@@2@@std@@QEAAPEAV?$basic_string@DU?$char_traits@D@std@@V?$allocator@D@2@@1@QEAV21@$$QEAV21@@Z 00000001800321f0 f i turtlecoin-crypto.obj
 0001:00031480       ??1?$_Uninitialized_backout_al@V?$allocator@V?$basic_string@DU?$char_traits@D@std@@V?$allocator@D@2@@std@@@std@@@std@@QEAA@XZ 0000000180032480 f i turtlecoin-crypto.obj
 0001:00031570       ??1HandleScope@Nan@@QEAA@XZ 0000000180032570 f i turtlecoin-crypto-node.obj
 0001:00031580       ??0Utf8String@Nan@@QEAA@V?$Local@VValue@v8@@@v8@@@Z 0000000180032580 f i turtlecoin-crypto-node.obj
 0001:00031660       ??1Utf8String@Nan@@QEAA@XZ 0000000180032660 f i turtlecoin-crypto-node.obj
 0001:00031680       ?prepareResult@@YA?AV?$Local@VArray@v8@@@v8@@_NV?$Local@VValue@v8@@@2@@Z 0000000180032680 f i turtlecoin-crypto-node.obj
 0001:00031790       ?getString@@YA?AV?$basic_string@DU?$char_traits@D@std@@V?$allocator@D@2@@std@@AEBV?$FunctionCallbackInfo@VValue@v8@@@Nan@@E@Z 0000000180032790 f i turtlecoin-crypto-node.obj
 0001:00031960       ?toStringVector@@YA?AV?$vector@V?$basic_string@DU?$char_traits@D@std@@V?$allocator@D@2@@std@@V?$allocator@V?$basic_string@DU?$char_traits@D@std@@V?$allocator@D@2@@std@@@2@@std@@AEBV?$FunctionCallbackInfo@VValue@v8@@@Nan@@E@Z 0000000180032960 f i turtlecoin-crypto-node.obj
 0001:00031ba0       ?getUInt32@@YAIAEBV?$FunctionCallbackInfo@VValue@v8@@@Nan@@E@Z 0000000180032ba0 f i turtlecoin-crypto-node.obj
 0001:00031c70       ?getUInt64@@YA_KAEBV?$FunctionCallbackInfo@VValue@v8@@@Nan@@E@Z 0000000180032c70 f i turtlecoin-crypto-node.obj
 0001:00031d50       ?toV8Array@@YA?AV?$Local@VArray@v8@@@v8@@AEBV?$vector@V?$basic_string@DU?$char_traits@D@std@@V?$allocator@D@2@@std@@V?$allocator@V?$basic_string@DU?$char_traits@D@std@@V?$allocator@D@2@@std@@@2@@std@@@Z 0000000180032d50 f i turtlecoin-crypto-node.obj
 0001:00031ef0       ?calculateMultisigPrivateKeys@@YAXAEBV?$FunctionCallbackInfo@VValue@v8@@@Nan@@@Z 0000000180032ef0 f   turtlecoin-crypto-node.obj
 0001:00032090       ?calculateSharedPrivateKey@@YAXAEBV?$FunctionCallbackInfo@VValue@v8@@@Nan@@@Z 0000000180033090 f   turtlecoin-crypto-node.obj
 0001:000322b0       ?calculateSharedPublicKey@@YAXAEBV?$FunctionCallbackInfo@VValue@v8@@@Nan@@@Z 00000001800332b0 f   turtlecoin-crypto-node.obj
 0001:00032570       ?prepareRingSignatures@@YAXAEBV?$FunctionCallbackInfo@VValue@v8@@@Nan@@@Z 0000000180033570 f   turtlecoin-crypto-node.obj
 0001:00032b40       ?completeRingSignatures@@YAXAEBV?$FunctionCallbackInfo@VValue@v8@@@Nan@@@Z 0000000180033b40 f   turtlecoin-crypto-node.obj
 0001:00032d90       ?restoreRingSignatures@@YAXAEBV?$FunctionCallbackInfo@VValue@v8@@@Nan@@@Z 0000000180033d90 f   turtlecoin-crypto-node.obj
 0001:00033020       ?generatePartialSigningKey@@YAXAEBV?$FunctionCallbackInfo@VValue@v8@@@Nan@@@Z 0000000180034020 f   turtlecoin-crypto-node.obj
 0001:000332e0       ?restoreKeyImage@@YAXAEBV?$FunctionCallbackInfo@VValue@v8@@@Nan@@@Z 00000001800342e0 f   turtlecoin-crypto-node.obj
 0001:000335f0       ?checkKey@@YAXAEBV?$FunctionCallbackInfo@VValue@v8@@@Nan@@@Z 00000001800345f0 f   turtlecoin-crypto-node.obj
 0001:000336f0       ?checkRingSignature@@YAXAEBV?$FunctionCallbackInfo@VValue@v8@@@Nan@@@Z 00000001800346f0 f   turtlecoin-crypto-node.obj
 0001:00033980       ?checkSignature@@YAXAEBV?$FunctionCallbackInfo@VValue@v8@@@Nan@@@Z 0000000180034980 f   turtlecoin-crypto-node.obj
 0001:00033c00       ?derivePublicKey@@YAXAEBV?$FunctionCallbackInfo@VValue@v8@@@Nan@@@Z 0000000180034c00 f   turtlecoin-crypto-node.obj
 0001:00033f60       ?deriveSecretKey@@YAXAEBV?$FunctionCallbackInfo@VValue@v8@@@Nan@@@Z 0000000180034f60 f   turtlecoin-crypto-node.obj
 0001:00034340       ?generateKeys@@YAXAEBV?$FunctionCallbackInfo@VValue@v8@@@Nan@@@Z 0000000180035340 f   turtlecoin-crypto-node.obj
 0001:00034760       ?generateKeyDerivation@@YAXAEBV?$FunctionCallbackInfo@VValue@v8@@@Nan@@@Z 0000000180035760 f   turtlecoin-crypto-node.obj
 0001:00034ab0       ?generateKeyImage@@YAXAEBV?$FunctionCallbackInfo@VValue@v8@@@Nan@@@Z 0000000180035ab0 f   turtlecoin-crypto-node.obj
 0001:00034e70       ?generatePrivateViewKeyFromPrivateSpendKey@@YAXAEBV?$FunctionCallbackInfo@VValue@v8@@@Nan@@@Z 0000000180035e70 f   turtlecoin-crypto-node.obj
 0001:000350d0       ?generateDeterministicSubwalletKeys@@YAXAEBV?$FunctionCallbackInfo@VValue@v8@@@Nan@@@Z 00000001800360d0 f   turtlecoin-crypto-node.obj
 0001:00035590       ?generateViewKeysFromPrivateSpendKey@@YAXAEBV?$FunctionCallbackInfo@VValue@v8@@@Nan@@@Z 0000000180036590 f   turtlecoin-crypto-node.obj
 0001:00035a20       ?generateRingSignatures@@YAXAEBV?$FunctionCallbackInfo@VValue@v8@@@Nan@@@Z 0000000180036a20 f   turtlecoin-crypto-node.obj
 0001:00035db0       ?generateSignature@@YAXAEBV?$FunctionCallbackInfo@VValue@v8@@@Nan@@@Z 0000000180036db0 f   turtlecoin-crypto-node.obj
 0001:00036220       ?hashToEllipticCurve@@YAXAEBV?$FunctionCallbackInfo@VValue@v8@@@Nan@@@Z 0000000180037220 f   turtlecoin-crypto-node.obj
 0001:00036480       ?hashToScalar@@YAXAEBV?$FunctionCallbackInfo@VValue@v8@@@Nan@@@Z 0000000180037480 f   turtlecoin-crypto-node.obj
 0001:000366e0       ?scalarmultKey@@YAXAEBV?$FunctionCallbackInfo@VValue@v8@@@Nan@@@Z 00000001800376e0 f   turtlecoin-crypto-node.obj
 0001:000369f0       ?scReduce32@@YAXAEBV?$FunctionCallbackInfo@VValue@v8@@@Nan@@@Z 00000001800379f0 f   turtlecoin-crypto-node.obj
 0001:00036c50       ?secretKeyToPublicKey@@YAXAEBV?$FunctionCallbackInfo@VValue@v8@@@Nan@@@Z 0000000180037c50 f   turtlecoin-crypto-node.obj
 0001:00036ee0       ?tree_depth@@YAXAEBV?$FunctionCallbackInfo@VValue@v8@@@Nan@@@Z 0000000180037ee0 f   turtlecoin-crypto-node.obj
 0001:00037090       ?tree_hash@@YAXAEBV?$FunctionCallbackInfo@VValue@v8@@@Nan@@@Z 0000000180038090 f   turtlecoin-crypto-node.obj
 0001:000372c0       ?tree_branch@@YAXAEBV?$FunctionCallbackInfo@VValue@v8@@@Nan@@@Z 00000001800382c0 f   turtlecoin-crypto-node.obj
 0001:00037550       ?tree_hash_from_branch@@YAXAEBV?$FunctionCallbackInfo@VValue@v8@@@Nan@@@Z 0000000180038550 f   turtlecoin-crypto-node.obj
 0001:00037a00       ?underivePublicKey@@YAXAEBV?$FunctionCallbackInfo@VValue@v8@@@Nan@@@Z 0000000180038a00 f   turtlecoin-crypto-node.obj
 0001:00037d60       ?cn_fast_hash@@YAXAEBV?$FunctionCallbackInfo@VValue@v8@@@Nan@@@Z 0000000180038d60 f   turtlecoin-crypto-node.obj
 0001:00037fc0       ?cn_slow_hash_v0@@YAXAEBV?$FunctionCallbackInfo@VValue@v8@@@Nan@@@Z 0000000180038fc0 f   turtlecoin-crypto-node.obj
 0001:00038220       ?cn_slow_hash_v1@@YAXAEBV?$FunctionCallbackInfo@VValue@v8@@@Nan@@@Z 0000000180039220 f   turtlecoin-crypto-node.obj
 0001:00038480       ?cn_slow_hash_v2@@YAXAEBV?$FunctionCallbackInfo@VValue@v8@@@Nan@@@Z 0000000180039480 f   turtlecoin-crypto-node.obj
 0001:000386e0       ?cn_lite_slow_hash_v0@@YAXAEBV?$FunctionCallbackInfo@VValue@v8@@@Nan@@@Z 00000001800396e0 f   turtlecoin-crypto-node.obj
 0001:00038940       ?cn_lite_slow_hash_v1@@YAXAEBV?$FunctionCallbackInfo@VValue@v8@@@Nan@@@Z 0000000180039940 f   turtlecoin-crypto-node.obj
 0001:00038ba0       ?cn_lite_slow_hash_v2@@YAXAEBV?$FunctionCallbackInfo@VValue@v8@@@Nan@@@Z 0000000180039ba0 f   turtlecoin-crypto-node.obj
 0001:00038e00       ?cn_dark_slow_hash_v0@@YAXAEBV?$FunctionCallbackInfo@VValue@v8@@@Nan@@@Z 0000000180039e00 f   turtlecoin-crypto-node.obj
 0001:00039060       ?cn_dark_slow_hash_v1@@YAXAEBV?$FunctionCallbackInfo@VValue@v8@@@Nan@@@Z 000000018003a060 f   turtlecoin-crypto-node.obj
 0001:000392c0       ?cn_dark_slow_hash_v2@@YAXAEBV?$FunctionCallbackInfo@VValue@v8@@@Nan@@@Z 000000018003a2c0 f   turtlecoin-crypto-node.obj
 0001:00039520       ?cn_dark_lite_slow_hash_v0@@YAXAEBV?$FunctionCallbackInfo@VValue@v8@@@Nan@@@Z 000000018003a520 f   turtlecoin-crypto-node.obj
 0001:00039780       ?cn_dark_lite_slow_hash_v1@@YAXAEBV?$FunctionCallbackInfo@VValue@v8@@@Nan@@@Z 000000018003a780 f   turtlecoin-crypto-node.obj
 0001:000399e0       ?cn_dark_lite_slow_hash_v2@@YAXAEBV?$FunctionCallbackInfo@VValue@v8@@@Nan@@@Z 000000018003a9e0 f   turtlecoin-crypto-node.obj
 0001:00039c40       ?cn_turtle_slow_hash_v0@@YAXAEBV?$FunctionCallbackInfo@VValue@v8@@@Nan@@@Z 000000018003ac40 f   turtlecoin-crypto-node.obj
 0001:00039ea0       ?cn_turtle_slow_hash_v1@@YAXAEBV?$FunctionCallbackInfo@VValue@v8@@@Nan@@@Z 000000018003aea0 f   turtlecoin-crypto-node.obj
 0001:0003a100       ?cn_turtle_slow_hash_v2@@YAXAEBV?$FunctionCallbackInfo@VValue@v8@@@Nan@@@Z 000000018003b100 f   turtlecoin-crypto-node.obj
 0001:0003a360       ?cn_turtle_lite_slow_hash_v0@@YAXAEBV?$FunctionCallbackInfo@VValue@v8@@@Nan@@@Z 000000018003b360 f   turtlecoin-crypto-node.obj
 0001:0003a5c0       ?cn_turtle_lite_slow_hash_v1@@YAXAEBV?$FunctionCallbackInfo@VValue@v8@@@Nan@@@Z 000000018003b5c0 f   turtlecoin-crypto-node.obj
 0001:0003a820       ?cn_turtle_lite_slow_hash_v2@@YAXAEBV?$FunctionCallbackInfo@VValue@v8@@@Nan@@@Z 000000018003b820 f   turtlecoin-crypto-node.obj
 0001:0003aa80       ?chukwa_slow_hash@@YAXAEBV?$FunctionCallbackInfo@VValue@v8@@@Nan@@@Z 000000018003ba80 f   turtlecoin-crypto-node.obj
 0001:0003ace0       ?InitModule@@YAXV?$Local@VObject@v8@@@v8@@@Z 000000018003bce0 f   turtlecoin-crypto-node.obj
 0001:0003dd70       ??$New@VFunctionTemplate@v8@@@Nan@@YA?AV?$Local@VFunctionTemplate@v8@@@v8@@P6AXAEBV?$FunctionCallbackInfo@VValue@v8@@@0@@ZV?$Local@VValue@v8@@@2@@Z 000000018003ed70 f i turtlecoin-crypto-node.obj
 0001:0003df10       ??$_Emplace_reallocate@AEBV?$basic_string@DU?$char_traits@D@std@@V?$allocator@D@2@@std@@@?$vector@V?$basic_string@DU?$char_traits@D@std@@V?$allocator@D@2@@std@@V?$allocator@V?$basic_string@DU?$char_traits@D@std@@V?$allocator@D@2@@std@@@2@@std@@QEAAPEAV?$basic_string@DU?$char_traits@D@std@@V?$allocator@D@2@@1@QEAV21@AEBV21@@Z 000000018003ef10 f i turtlecoin-crypto-node.obj
 0001:0003e1c4       __imp_load_?Value@External@v8@@QEBAPEAXXZ 000000018003f1c4 f   node:node.exe
 0001:0003e1d0       __tailMerge_node_exe       000000018003f1d0     node:node.exe
 0001:0003e249       __imp_load_?New@External@v8@@SA?AV?$Local@VExternal@v8@@@2@PEAVIsolate@2@PEAX@Z 000000018003f249 f   node:node.exe
 0001:0003e255       __imp_load_?NewFromUnsigned@Integer@v8@@SA?AV?$Local@VInteger@v8@@@2@PEAVIsolate@2@I@Z 000000018003f255 f   node:node.exe
 0001:0003e261       __imp_load_?GetCurrentContext@Isolate@v8@@QEAA?AV?$Local@VContext@v8@@@2@XZ 000000018003f261 f   node:node.exe
 0001:0003e26d       __imp_load_?GetCurrent@Isolate@v8@@SAPEAV12@XZ 000000018003f26d f   node:node.exe
 0001:0003e279       __imp_load_?CreateHandle@HandleScope@v8@@KAPEAPEAVObject@internal@2@PEAVIsolate@42@PEAV342@@Z 000000018003f279 f   node:node.exe
 0001:0003e285       __imp_load_?CreateHandle@HandleScope@v8@@CAPEAPEAVObject@internal@2@PEAVNeverReadOnlySpaceObject@42@PEAV342@@Z 000000018003f285 f   node:node.exe
 0001:0003e291       __imp_load_??1HandleScope@v8@@QEAA@XZ 000000018003f291 f   node:node.exe
 0001:0003e29d       ??1HandleScope@v8@@QEAA@XZ 000000018003f29d f   node:node.exe
 0001:0003e2a3       __imp_load_??0HandleScope@v8@@QEAA@PEAVIsolate@1@@Z 000000018003f2a3 f   node:node.exe
 0001:0003e2af       __imp_load_?New@Array@v8@@SA?AV?$Local@VArray@v8@@@2@PEAVIsolate@2@H@Z 000000018003f2af f   node:node.exe
 0001:0003e2bb       __imp_load_?Length@Array@v8@@QEBAIXZ 000000018003f2bb f   node:node.exe
 0001:0003e2c7       __imp_load_?GetFunction@FunctionTemplate@v8@@QEAA?AV?$MaybeLocal@VFunction@v8@@@2@V?$Local@VContext@v8@@@2@@Z 000000018003f2c7 f   node:node.exe
 0001:0003e2d3       __imp_load_?New@FunctionTemplate@v8@@SA?AV?$Local@VFunctionTemplate@v8@@@2@PEAVIsolate@2@P6AXAEBV?$FunctionCallbackInfo@VValue@v8@@@2@@ZV?$Local@VValue@v8@@@2@V?$Local@VSignature@v8@@@2@HW4ConstructorBehavior@2@W4SideEffectType@2@@Z 000000018003f2d3 f   node:node.exe
 0001:0003e2df       __imp_load_?ToLocalEmpty@V8@v8@@CAXXZ 000000018003f2df f   node:node.exe
 0001:0003e2eb       __imp_load_?Uint32Value@Value@v8@@QEBA?AV?$Maybe@I@2@V?$Local@VContext@v8@@@2@@Z 000000018003f2eb f   node:node.exe
 0001:0003e2f7       __imp_load_?ToUint32@Value@v8@@QEBA?AV?$MaybeLocal@VUint32@v8@@@2@V?$Local@VContext@v8@@@2@@Z 000000018003f2f7 f   node:node.exe
 0001:0003e303       __imp_load_?ToString@Value@v8@@QEBA?AV?$MaybeLocal@VString@v8@@@2@V?$Local@VContext@v8@@@2@@Z 000000018003f303 f   node:node.exe
 0001:0003e30f       __imp_load_?IsNumber@Value@v8@@QEBA_NXZ 000000018003f30f f   node:node.exe
 0001:0003e31b       __imp_load_?IsArray@Value@v8@@QEBA_NXZ 000000018003f31b f   node:node.exe
 0001:0003e327       __imp_load_?Escape@EscapableHandleScope@v8@@AEAAPEAPEAVObject@internal@2@PEAPEAV342@@Z 000000018003f327 f   node:node.exe
 0001:0003e333       __imp_load_??0EscapableHandleScope@v8@@QEAA@PEAVIsolate@1@@Z 000000018003f333 f   node:node.exe
 0001:0003e33f       __imp_load_?NewFromUtf8@String@v8@@SA?AV?$MaybeLocal@VString@v8@@@2@PEAVIsolate@2@PEBDW4NewStringType@2@H@Z 000000018003f33f f   node:node.exe
 0001:0003e34b       __imp_load_?WriteUtf8@String@v8@@QEBAHPEADHPEAHH@Z 000000018003f34b f   node:node.exe
 0001:0003e357       __imp_load_?Length@String@v8@@QEBAHXZ 000000018003f357 f   node:node.exe
 0001:0003e363       __imp_load_?SlowGetInternalField@Object@v8@@AEAA?AV?$Local@VValue@v8@@@2@H@Z 000000018003f363 f   node:node.exe
 0001:0003e36f       __imp_load_?New@Object@v8@@SA?AV?$Local@VObject@v8@@@2@PEAVIsolate@2@@Z 000000018003f36f f   node:node.exe
 0001:0003e37b       __imp_load_?SetInternalField@Object@v8@@QEAAXHV?$Local@VValue@v8@@@2@@Z 000000018003f37b f   node:node.exe
 0001:0003e387       __imp_load_?Get@Object@v8@@QEAA?AV?$MaybeLocal@VValue@v8@@@2@V?$Local@VContext@v8@@@2@I@Z 000000018003f387 f   node:node.exe
 0001:0003e393       __imp_load_?Set@Object@v8@@QEAA?AV?$Maybe@_N@2@V?$Local@VContext@v8@@@2@V?$Local@VValue@v8@@@2@1@Z 000000018003f393 f   node:node.exe
 0001:0003e39f       __imp_load_?Set@Object@v8@@QEAA?AV?$Maybe@_N@2@V?$Local@VContext@v8@@@2@IV?$Local@VValue@v8@@@2@@Z 000000018003f39f f   node:node.exe
 0001:0003e3ab       __imp_load_?SetInternalFieldCount@ObjectTemplate@v8@@QEAAXH@Z 000000018003f3ab f   node:node.exe
 0001:0003e3b7       __imp_load_?NewInstance@ObjectTemplate@v8@@QEAA?AV?$MaybeLocal@VObject@v8@@@2@V?$Local@VContext@v8@@@2@@Z 000000018003f3b7 f   node:node.exe
 0001:0003e3c3       __imp_load_?New@ObjectTemplate@v8@@SA?AV?$Local@VObjectTemplate@v8@@@2@PEAVIsolate@2@V?$Local@VFunctionTemplate@v8@@@2@@Z 000000018003f3c3 f   node:node.exe
 0001:0003e3cf       __imp_load_node_module_register 000000018003f3cf f   node:node.exe
 0001:0003e3db       __imp_load_??1EscapableHandleScope@v8@@QEAA@XZ 000000018003f3db f   node:node.exe
 0001:0003e3e7       ??1EscapableHandleScope@v8@@QEAA@XZ 000000018003f3e7 f   node:node.exe
 0001:0003e400       __security_check_cookie    000000018003f400 f   LIBCMT:amdsecgs.obj
 0001:0003e420       __dyn_tls_init             000000018003f420 f   LIBCMT:tlsdyn.obj
 0001:0003e488       __dyn_tls_on_demand_init   000000018003f488 f   LIBCMT:tlsdyn.obj
 0001:0003e498       ??2@YAPEAX_K@Z             000000018003f498 f   LIBCMT:new_scalar.obj
 0001:0003e4d4       ??3@YAXPEAX_K@Z            000000018003f4d4 f   LIBCMT:delete_scalar_size.obj
 0001:0003e4dc       ??_Gtype_info@@UEAAPEAXI@Z 000000018003f4dc f i LIBCMT:std_type_info_static.obj
 0001:0003e4dc       ??_Etype_info@@UEAAPEAXI@Z 000000018003f4dc f i LIBCMT:std_type_info_static.obj
 0001:0003e828       _DllMainCRTStartup         000000018003f828 f   LIBCMT:dll_dllmain.obj
 0001:0003e868       __raise_securityfailure    000000018003f868 f   LIBCMT:gs_report.obj
 0001:0003e89c       __report_gsfailure         000000018003f89c f   LIBCMT:gs_report.obj
 0001:0003e970       __report_rangecheckfailure 000000018003f970 f   LIBCMT:gs_report.obj
 0001:0003e984       __report_securityfailure   000000018003f984 f   LIBCMT:gs_report.obj
 0001:0003eb04       ??0bad_alloc@std@@QEAA@AEBV01@@Z 000000018003fb04 f i LIBCMT:throw_bad_alloc.obj
 0001:0003eb40       ??0bad_alloc@std@@QEAA@XZ  000000018003fb40 f i LIBCMT:throw_bad_alloc.obj
 0001:0003eb60       ??0bad_array_new_length@std@@QEAA@AEBV01@@Z 000000018003fb60 f i LIBCMT:throw_bad_alloc.obj
 0001:0003eb9c       ??0bad_array_new_length@std@@QEAA@XZ 000000018003fb9c f i LIBCMT:throw_bad_alloc.obj
 0001:0003ebbc       ??0exception@std@@QEAA@AEBV01@@Z 000000018003fbbc f i LIBCMT:throw_bad_alloc.obj
 0001:0003ebf0       ??1out_of_range@std@@UEAA@XZ 000000018003fbf0 f i libcpmt:xthrow.obj
 0001:0003ebf0       ??1bad_exception@std@@UEAA@XZ 000000018003fbf0 f i libvcruntime:frame.obj
 0001:0003ebf0       ??1length_error@std@@UEAA@XZ 000000018003fbf0 f i libcpmt:xthrow.obj
 0001:0003ebf0       ??1bad_array_new_length@std@@UEAA@XZ 000000018003fbf0 f i LIBCMT:throw_bad_alloc.obj
 0001:0003ebf0       ??1bad_alloc@std@@UEAA@XZ  000000018003fbf0 f i LIBCMT:throw_bad_alloc.obj
 0001:0003ec04       ??_Glogic_error@std@@UEAAPEAXI@Z 000000018003fc04 f i libcpmt:xthrow.obj
 0001:0003ec04       ??_Glength_error@std@@UEAAPEAXI@Z 000000018003fc04 f i libcpmt:xthrow.obj
 0001:0003ec04       ??_Ebad_array_new_length@std@@UEAAPEAXI@Z 000000018003fc04 f i LIBCMT:throw_bad_alloc.obj
 0001:0003ec04       ??_Eexception@std@@UEAAPEAXI@Z 000000018003fc04 f i LIBCMT:throw_bad_alloc.obj
 0001:0003ec04       ??_Gbad_array_new_length@std@@UEAAPEAXI@Z 000000018003fc04 f i LIBCMT:throw_bad_alloc.obj
 0001:0003ec04       ??_Ebad_alloc@std@@UEAAPEAXI@Z 000000018003fc04 f i LIBCMT:throw_bad_alloc.obj
 0001:0003ec04       ??_Gout_of_range@std@@UEAAPEAXI@Z 000000018003fc04 f i libcpmt:xthrow.obj
 0001:0003ec04       ??_Elength_error@std@@UEAAPEAXI@Z 000000018003fc04 f i libcpmt:xthrow.obj
 0001:0003ec04       ??_Elogic_error@std@@UEAAPEAXI@Z 000000018003fc04 f i libcpmt:xthrow.obj
 0001:0003ec04       ??_Eout_of_range@std@@UEAAPEAXI@Z 000000018003fc04 f i libcpmt:xthrow.obj
 0001:0003ec04       ??_Gexception@std@@UEAAPEAXI@Z 000000018003fc04 f i LIBCMT:throw_bad_alloc.obj
 0001:0003ec04       ??_Gbad_alloc@std@@UEAAPEAXI@Z 000000018003fc04 f i LIBCMT:throw_bad_alloc.obj
 0001:0003ec04       ??_Ebad_exception@std@@UEAAPEAXI@Z 000000018003fc04 f i libvcruntime:frame.obj
 0001:0003ec04       ??_Gbad_exception@std@@UEAAPEAXI@Z 000000018003fc04 f i libvcruntime:frame.obj
 0001:0003ec48       ?__scrt_throw_std_bad_alloc@@YAXXZ 000000018003fc48 f   LIBCMT:throw_bad_alloc.obj
 0001:0003ec68       ?__scrt_throw_std_bad_array_new_length@@YAXXZ 000000018003fc68 f   LIBCMT:throw_bad_alloc.obj
 0001:0003ec88       ?what@exception@std@@UEBAPEBDXZ 000000018003fc88 f i LIBCMT:throw_bad_alloc.obj
 0001:0003ec9c       ??3@YAXPEAX@Z              000000018003fc9c f   LIBCMT:delete_scalar.obj
 0001:0003eca4       __security_init_cookie     000000018003fca4 f   LIBCMT:gs_support.obj
 0001:0003ed50       _get_startup_argv_mode     000000018003fd50 f   LIBCMT:argv_mode.obj
 0001:0003ed50       DllMain                    000000018003fd50 f   LIBCMT:dll_dllmain_stub.obj
 0001:0003ed58       ?__scrt_initialize_type_info@@YAXXZ 000000018003fd58 f   LIBCMT:tncleanup.obj
 0001:0003ed68       ?__scrt_uninitialize_type_info@@YAXXZ 000000018003fd68 f   LIBCMT:tncleanup.obj
 0001:0003ed74       __scrt_initialize_default_local_stdio_options 000000018003fd74 f   LIBCMT:default_local_stdio_options.obj
 0001:0003ed90       __scrt_acquire_startup_lock 000000018003fd90 f   LIBCMT:utility.obj
 0001:0003edcc       __scrt_dllmain_after_initialize_c 000000018003fdcc f   LIBCMT:utility.obj
 0001:0003ee00       __scrt_dllmain_before_initialize_c 000000018003fe00 f   LIBCMT:utility.obj
 0001:0003ee18       __scrt_dllmain_crt_thread_attach 000000018003fe18 f   LIBCMT:utility.obj
 0001:0003ee40       __scrt_dllmain_crt_thread_detach 000000018003fe40 f   LIBCMT:utility.obj
 0001:0003ee58       __scrt_dllmain_exception_filter 000000018003fe58 f   LIBCMT:utility.obj
 0001:0003eeb8       __scrt_dllmain_uninitialize_c 000000018003feb8 f   LIBCMT:utility.obj
 0001:0003eee8       __scrt_dllmain_uninitialize_critical 000000018003fee8 f   LIBCMT:utility.obj
 0001:0003eefc       __scrt_initialize_crt      000000018003fefc f   LIBCMT:utility.obj
 0001:0003ef48       __scrt_initialize_onexit_tables 000000018003ff48 f   LIBCMT:utility.obj
 0001:0003efd4       __scrt_is_nonwritable_in_current_image 000000018003ffd4 f   LIBCMT:utility.obj
 0001:0003f06c       __scrt_release_startup_lock 000000018004006c f   LIBCMT:utility.obj
 0001:0003f090       __scrt_uninitialize_crt    0000000180040090 f   LIBCMT:utility.obj
 0001:0003f0bc       _onexit                    00000001800400bc f   LIBCMT:utility.obj
 0001:0003f0f8       atexit                     00000001800400f8 f   LIBCMT:utility.obj
 0001:0003f110       __scrt_get_dyn_tls_init_callback 0000000180040110 f   LIBCMT:dyn_tls_init.obj
 0001:0003f118       __crt_debugger_hook        0000000180040118 f   LIBCMT:utility_desktop.obj
 0001:0003f120       __scrt_fastfail            0000000180040120 f   LIBCMT:utility_desktop.obj
 0001:0003f26c       _RTC_Initialize            000000018004026c f   LIBCMT:initsect.obj
 0001:0003f2a8       _RTC_Terminate             00000001800402a8 f   LIBCMT:initsect.obj
 0001:0003f2f0       __isa_available_init       00000001800402f0 f   LIBCMT:cpu_disp.obj
 0001:0003f494       __scrt_is_ucrt_dll_in_use  0000000180040494 f   LIBCMT:ucrt_detection.obj
 0001:0003f4a0       ?_Random_device@std@@YAIXZ 00000001800404a0 f   libcpmt:xrngdev.obj
 0001:0003f4c8       ??0length_error@std@@QEAA@AEBV01@@Z 00000001800404c8 f i libcpmt:xthrow.obj
 0001:0003f504       ??0length_error@std@@QEAA@PEBD@Z 0000000180040504 f i libcpmt:xthrow.obj
 0001:0003f54c       ??0logic_error@std@@QEAA@AEBV01@@Z 000000018004054c f i libcpmt:xthrow.obj
 0001:0003f588       ??0out_of_range@std@@QEAA@AEBV01@@Z 0000000180040588 f i libcpmt:xthrow.obj
 0001:0003f5c4       ??0out_of_range@std@@QEAA@PEBD@Z 00000001800405c4 f i libcpmt:xthrow.obj
 0001:0003f60c       ?_Xlength_error@std@@YAXPEBD@Z 000000018004060c f   libcpmt:xthrow.obj
 0001:0003f630       ?_Xout_of_range@std@@YAXPEBD@Z 0000000180040630 f   libcpmt:xthrow.obj
 0001:0003f654       ??0_Init_locks@std@@QEAA@XZ 0000000180040654 f   libcpmt:xlock.obj
 0001:0003f698       ??1_Init_locks@std@@QEAA@XZ 0000000180040698 f   libcpmt:xlock.obj
 0001:0003f6d4       _Mtxdst                    00000001800406d4 f   libcpmt:xmtx.obj
 0001:0003f6dc       _Mtxinit                   00000001800406dc f   libcpmt:xmtx.obj
 0001:0003f6ec       ??$_CallSETranslator@V__FrameHandler4@@@@YAHPEAUEHExceptionRecord@@PEA_KPEAU_CONTEXT@@PEAU_xDISPATCHER_CONTEXT@@PEAUFuncInfo4@FH4@@K1H@Z 00000001800406ec f i libvcruntime:risctrnsctrl.obj
 0001:0003f740       ?DecompFuncInfo@FH4@@YA_JPEAEAEAUFuncInfo4@1@_KH_N@Z 0000000180040740 f i libvcruntime:risctrnsctrl.obj
 0001:0003f864       ?ExecutionInCatch@__FrameHandler4@@SA_NPEAU_xDISPATCHER_CONTEXT@@PEAUFuncInfo4@FH4@@@Z 0000000180040864 f   libvcruntime:risctrnsctrl.obj
 0001:0003f86c       ?FrameUnwindToEmptyState@__FrameHandler4@@SAXPEA_KPEAU_xDISPATCHER_CONTEXT@@PEAUFuncInfo4@FH4@@@Z 000000018004086c f   libvcruntime:risctrnsctrl.obj
 0001:0003f8a0       ?GetEstablisherFrame@__FrameHandler4@@SAPEA_KPEA_KPEAU_xDISPATCHER_CONTEXT@@PEAUFuncInfo4@FH4@@0@Z 00000001800408a0 f   libvcruntime:risctrnsctrl.obj
 0001:0003f8c4       ?GetRangeOfTrysToCheck@__FrameHandler4@@SA?AU?$pair@Viterator@TryBlockMap4@FH4@@V123@@std@@AEAVTryBlockMap4@FH4@@HPEAU_xDISPATCHER_CONTEXT@@PEAUFuncInfo4@5@H@Z 00000001800408c4 f   libvcruntime:risctrnsctrl.obj
 0001:0003fa2c       ?UnwindNestedFrames@__FrameHandler4@@SAXPEA_KPEAUEHExceptionRecord@@PEAU_CONTEXT@@0PEAXPEAUFuncInfo4@FH4@@HHPEAUHandlerType4@5@PEAU_xDISPATCHER_CONTEXT@@E@Z 0000000180040a2c f   libvcruntime:risctrnsctrl.obj
 0001:0003fb4c       ?setBuffer@TryBlockMap4@FH4@@QEAAXViterator@12@@Z 0000000180040b4c f i libvcruntime:risctrnsctrl.obj
 0001:0003fd0c       _CreateFrameInfo           0000000180040d0c f   libvcruntime:risctrnsctrl.obj
 0001:0003fd48       _FindAndUnlinkFrame        0000000180040d48 f   libvcruntime:risctrnsctrl.obj
 0001:0003fd9c       _GetImageBase              0000000180040d9c f   libvcruntime:risctrnsctrl.obj
 0001:0003fdb0       _GetThrowImageBase         0000000180040db0 f   libvcruntime:risctrnsctrl.obj
 0001:0003fdc4       _SetImageBase              0000000180040dc4 f   libvcruntime:risctrnsctrl.obj
 0001:0003fddc       _SetThrowImageBase         0000000180040ddc f   libvcruntime:risctrnsctrl.obj
 0001:0003fdf4       __CxxFrameHandler4         0000000180040df4 f   libvcruntime:risctrnsctrl.obj
 0001:0003feb4       __DestructExceptionObject  0000000180040eb4 f   libvcruntime:ehhelpers.obj
 0001:0003ff24       ?_CallMemberFunction0@@YAXQEAX0@Z 0000000180040f24 f i libvcruntime:ehhelpers.obj
 0001:0003ff28       _IsExceptionObjectToBeDestroyed 0000000180040f28 f   libvcruntime:ehhelpers.obj
 0001:0003ff58       __AdjustPointer            0000000180040f58 f   libvcruntime:ehhelpers.obj
 0001:0003ff7c       __FrameUnwindFilter        0000000180040f7c f   libvcruntime:ehhelpers.obj
 0001:0003ffe4       __std_terminate            0000000180040fe4 f   libvcruntime:ehhelpers.obj
 0001:0003fff0       __C_specific_handler       0000000180040ff0 f   libvcruntime:riscchandler.obj
 0001:000401fc       __std_exception_copy       00000001800411fc f   libvcruntime:std_exception.obj
 0001:0004028c       __std_exception_destroy    000000018004128c f   libvcruntime:std_exception.obj
 0001:000402b4       _CxxThrowException         00000001800412b4 f   libvcruntime:throw.obj
 0001:00040354       __std_type_info_compare    0000000180041354 f   libvcruntime:std_type_info.obj
 0001:0004037c       __std_type_info_destroy_list 000000018004137c f   libvcruntime:std_type_info.obj
 0001:000403a8       __vcrt_initialize          00000001800413a8 f   libvcruntime:initialization.obj
 0001:000403d0       __vcrt_thread_attach       00000001800413d0 f   libvcruntime:initialization.obj
 0001:000403e4       __vcrt_thread_detach       00000001800413e4 f   libvcruntime:initialization.obj
 0001:000403f8       __vcrt_uninitialize        00000001800413f8 f   libvcruntime:initialization.obj
 0001:00040414       __vcrt_uninitialize_critical 0000000180041414 f   libvcruntime:initialization.obj
 0001:00040440       memset_repmovs             0000000180041440 f   libvcruntime:memset.obj
 0001:00040460       memset                     0000000180041460 f   libvcruntime:memset.obj
 0001:00040600       memcpy_repmovs             0000000180041600 f   libvcruntime:memcpy.obj
 0001:00040620       memcpy                     0000000180041620 f   libvcruntime:memcpy.obj
 0001:00040620       memmove                    0000000180041620 f   libvcruntime:memcpy.obj
 0001:00040cb0       memchr                     0000000180041cb0 f   libvcruntime:memchr.obj
 0001:00040d30       memcmp                     0000000180041d30 f   libvcruntime:memcmp.obj
 0001:00040df8       __vcrt_freefls             0000000180041df8 f   libvcruntime:per_thread_data.obj
 0001:00040e18       __vcrt_freeptd             0000000180041e18 f   libvcruntime:per_thread_data.obj
 0001:00040e68       __vcrt_getptd              0000000180041e68 f   libvcruntime:per_thread_data.obj
 0001:00040e84       __vcrt_getptd_noexit       0000000180041e84 f   libvcruntime:per_thread_data.obj
 0001:00040f44       __vcrt_initialize_ptd      0000000180041f44 f   libvcruntime:per_thread_data.obj
 0001:00040f8c       __vcrt_uninitialize_ptd    0000000180041f8c f   libvcruntime:per_thread_data.obj
 0001:00040fb0       ?StateFromControlPc@__FrameHandler4@@SAHPEAUFuncInfo4@FH4@@PEAU_xDISPATCHER_CONTEXT@@@Z 0000000180041fb0 f   libvcruntime:ehstate.obj
 0001:00040fb8       ?StateFromIp@__FrameHandler4@@SAHPEAUFuncInfo4@FH4@@PEAU_xDISPATCHER_CONTEXT@@_K@Z 0000000180041fb8 f   libvcruntime:ehstate.obj
 0001:00041c28       ??$TypeMatchHelper@V__FrameHandler3@@@@YAHPEBU_s_HandlerType@@PEBU_s_CatchableType@@PEBU_s_ThrowInfo@@@Z 0000000180042c28 f i libvcruntime:frame.obj
 0001:00041d68       ??$TypeMatchHelper@V__FrameHandler4@@@@YAHPEAUHandlerType4@FH4@@PEBU_s_CatchableType@@PEBU_s_ThrowInfo@@@Z 0000000180042d68 f i libvcruntime:frame.obj
 0001:00041eac       ??$__InternalCxxFrameHandler@V__FrameHandler4@@@@YA?AW4_EXCEPTION_DISPOSITION@@PEAUEHExceptionRecord@@PEA_KPEAU_CONTEXT@@PEAU_xDISPATCHER_CONTEXT@@PEAUFuncInfo4@FH4@@H1E@Z 0000000180042eac f i libvcruntime:frame.obj
 0001:00042140       ??0HandlerMap4@FH4@@QEAA@PEBUTryBlockMapEntry4@1@_KH@Z 0000000180043140 f i libvcruntime:frame.obj
 0001:000421bc       ??0TryBlockMap4@FH4@@QEAA@PEBUFuncInfo4@1@_K@Z 00000001800431bc f i libvcruntime:frame.obj
 0001:00042294       ??0bad_exception@std@@QEAA@AEBV01@@Z 0000000180043294 f i libvcruntime:frame.obj
 0001:000422d0       ??0bad_exception@std@@QEAA@XZ 00000001800432d0 f i libvcruntime:frame.obj
 0001:000422f0       ?CxxCallCatchBlock@__FrameHandler4@@SAPEAXPEAU_EXCEPTION_RECORD@@@Z 00000001800432f0 f   libvcruntime:frame.obj
 0001:00042540       ?DecompHandler@HandlerMap4@FH4@@AEAAXXZ 0000000180043540 f i libvcruntime:frame.obj
 0001:00042780       ?FrameUnwindToState@__FrameHandler4@@SAXPEA_KPEAU_xDISPATCHER_CONTEXT@@PEAUFuncInfo4@FH4@@H@Z 0000000180043780 f   libvcruntime:frame.obj
 0001:00042be0       ?ReadEntry@UWMap4@FH4@@AEAAXPEAPEAE@Z 0000000180043be0 f i libvcruntime:frame.obj
 0001:00042c80       ?_CallMemberFunction1@@YAXQEAX00@Z 0000000180043c80 f i libvcruntime:frame.obj
 0001:00042c8c       ?_CallMemberFunction2@@YAXQEAX00H@Z 0000000180043c8c f i libvcruntime:frame.obj
 0001:00042c9c       ?getStartStop@UWMap4@FH4@@QEAAXHHAEAViterator@12@0@Z 0000000180043c9c f i libvcruntime:frame.obj
 0001:00042d6c       ?getStateFromIterators@UWMap4@FH4@@SAHAEBViterator@12@H0H0@Z 0000000180043d6c f i libvcruntime:frame.obj
 0001:00042e50       _NLG_Notify                0000000180043e50 f   libvcruntime:notify.obj
 0001:00042e70       __NLG_Dispatch2            0000000180043e70 f   libvcruntime:notify.obj
 0001:00042e80       __NLG_Return2              0000000180043e80 f   libvcruntime:notify.obj
 0001:00042e84       __except_validate_context_record 0000000180043e84 f   libvcruntime:jbcxrval.obj
 0001:00042ebc       __vcrt_initialize_locks    0000000180043ebc f   libvcruntime:locks.obj
 0001:00042ef0       __vcrt_uninitialize_locks  0000000180043ef0 f   libvcruntime:locks.obj
 0001:00043078       __vcrt_FlsAlloc            0000000180044078 f   libvcruntime:winapi_downlevel.obj
 0001:000430c0       __vcrt_FlsFree             00000001800440c0 f   libvcruntime:winapi_downlevel.obj
 0001:00043108       __vcrt_FlsGetValue         0000000180044108 f   libvcruntime:winapi_downlevel.obj
 0001:00043150       __vcrt_FlsSetValue         0000000180044150 f   libvcruntime:winapi_downlevel.obj
 0001:000431a4       __vcrt_InitializeCriticalSectionEx 00000001800441a4 f   libvcruntime:winapi_downlevel.obj
 0001:00043220       _CallSettingFrame          0000000180044220 f   libvcruntime:handlers.obj
 0001:00043270       _CallSettingFrame_LookupContinuationIndex 0000000180044270 f   libvcruntime:handlers.obj
 0001:000432a0       _CallSettingFrame_NotifyContinuationAddr 00000001800442a0 f   libvcruntime:handlers.obj
 0001:000432d0       _CallSettingFrameEncoded   00000001800442d0 f   libvcruntime:handlers.obj
 0001:00043318       __acrt_call_reportfault    0000000180044318 f   libucrt:invalid_parameter.obj
 0001:00043474       __acrt_initialize_invalid_parameter_handler 0000000180044474 f   libucrt:invalid_parameter.obj
 0001:0004347c       _invalid_parameter         000000018004447c f   libucrt:invalid_parameter.obj
 0001:0004352c       _invalid_parameter_noinfo  000000018004452c f   libucrt:invalid_parameter.obj
 0001:0004354c       _invalid_parameter_noinfo_noreturn 000000018004454c f   libucrt:invalid_parameter.obj
 0001:0004357c       _invoke_watson             000000018004457c f   libucrt:invalid_parameter.obj
 0001:000435c4       calloc                     00000001800445c4 f   libucrt:calloc.obj
 0001:000435cc       _ftime64                   00000001800445cc f   libucrt:ftime.obj
 0001:000435d4       _ftime64_s                 00000001800445d4 f   libucrt:ftime.obj
 0001:00043770       rand                       0000000180044770 f   libucrt:rand.obj
 0001:0004379c       srand                      000000018004479c f   libucrt:rand.obj
 0001:000437b4       ??$__crt_time_is_leap_year@H@@YA_NH@Z 00000001800447b4 f i libucrt:gmtime.obj
 0001:00043a9c       __getgmtimebuf             0000000180044a9c f   libucrt:gmtime.obj
 0001:00043ae8       _gmtime64                  0000000180044ae8 f   libucrt:gmtime.obj
 0001:00043b70       ??$ensure_buffer_is_big_enough@D@formatting_buffer@__crt_stdio_output@@QEAA_N_K@Z 0000000180044b70 f i libucrt:output.obj
 0001:00043c18       ??$type_case_integer_parse_into_buffer@I@?$output_processor@DV?$stream_output_adapter@D@__crt_stdio_output@@V?$standard_base@DV?$stream_output_adapter@D@__crt_stdio_output@@@2@@__crt_stdio_output@@AEAAXII_N@Z 0000000180044c18 f i libucrt:output.obj
 0001:00043ca0       ??$type_case_integer_parse_into_buffer@_K@?$output_processor@DV?$stream_output_adapter@D@__crt_stdio_output@@V?$standard_base@DV?$stream_output_adapter@D@__crt_stdio_output@@@2@@__crt_stdio_output@@AEAAX_KI_N@Z 0000000180044ca0 f i libucrt:output.obj
 0001:00043d30       ??$write_multiple_characters@V?$stream_output_adapter@D@__crt_stdio_output@@D@__crt_stdio_output@@YAXAEBV?$stream_output_adapter@D@0@DHQEAH@Z 0000000180044d30 f i libucrt:output.obj
 0001:00043dbc       ??0_LocaleUpdate@@QEAA@QEAU__crt_locale_pointers@@@Z 0000000180044dbc f i libucrt:output.obj
 0001:00043f90       ?crop_zeroes@__crt_stdio_output@@YAXPEADQEAU__crt_locale_pointers@@@Z 0000000180044f90 f i libucrt:output.obj
 0001:00044030       ?force_decimal_point@__crt_stdio_output@@YAXPEADQEAU__crt_locale_pointers@@@Z 0000000180045030 f i libucrt:output.obj
 0001:000440a8       ?parse_int_from_format_string@?$output_processor@DV?$stream_output_adapter@D@__crt_stdio_output@@V?$standard_base@DV?$stream_output_adapter@D@__crt_stdio_output@@@2@@__crt_stdio_output@@AEAA_NQEAH@Z 00000001800450a8 f i libucrt:output.obj
 0001:0004414c       ?process@?$output_processor@DV?$stream_output_adapter@D@__crt_stdio_output@@V?$standard_base@DV?$stream_output_adapter@D@__crt_stdio_output@@@2@@__crt_stdio_output@@QEAAHXZ 000000018004514c f i libucrt:output.obj
 0001:00044360       ?state_case_normal@?$output_processor@DV?$stream_output_adapter@D@__crt_stdio_output@@V?$standard_base@DV?$stream_output_adapter@D@__crt_stdio_output@@@2@@__crt_stdio_output@@AEAA_NXZ 0000000180045360 f i libucrt:output.obj
 0001:000443d0       ?state_case_normal_tchar@?$output_processor@DV?$stream_output_adapter@D@__crt_stdio_output@@V?$standard_base@DV?$stream_output_adapter@D@__crt_stdio_output@@@2@@__crt_stdio_output@@AEAA_ND@Z 00000001800453d0 f i libucrt:output.obj
 0001:00044474       ?state_case_size@?$output_processor@DV?$stream_output_adapter@D@__crt_stdio_output@@V?$standard_base@DV?$stream_output_adapter@D@__crt_stdio_output@@@2@@__crt_stdio_output@@AEAA_NXZ 0000000180045474 f i libucrt:output.obj
 0001:000445e4       ?state_case_type@?$output_processor@DV?$stream_output_adapter@D@__crt_stdio_output@@V?$standard_base@DV?$stream_output_adapter@D@__crt_stdio_output@@@2@@__crt_stdio_output@@AEAA_NXZ 00000001800455e4 f i libucrt:output.obj
 0001:00044870       ?to_integer_size@__crt_stdio_output@@YA_KW4length_modifier@1@@Z 0000000180045870 f i libucrt:output.obj
 0001:000448d8       ?type_case_Z@?$output_processor@DV?$stream_output_adapter@D@__crt_stdio_output@@V?$standard_base@DV?$stream_output_adapter@D@__crt_stdio_output@@@2@@__crt_stdio_output@@AEAA_NXZ 00000001800458d8 f i libucrt:output.obj
 0001:0004494c       ?type_case_a@?$output_processor@DV?$stream_output_adapter@D@__crt_stdio_output@@V?$standard_base@DV?$stream_output_adapter@D@__crt_stdio_output@@@2@@__crt_stdio_output@@AEAA_NXZ 000000018004594c f i libucrt:output.obj
 0001:00044b08       ?type_case_c_tchar@?$output_processor@DV?$stream_output_adapter@D@__crt_stdio_output@@V?$standard_base@DV?$stream_output_adapter@D@__crt_stdio_output@@@2@@__crt_stdio_output@@AEAA_ND@Z 0000000180045b08 f i libucrt:output.obj
 0001:00044bd0       ?type_case_integer@?$output_processor@DV?$stream_output_adapter@D@__crt_stdio_output@@V?$standard_base@DV?$stream_output_adapter@D@__crt_stdio_output@@@2@@__crt_stdio_output@@AEAA_NI_N@Z 0000000180045bd0 f i libucrt:output.obj
 0001:00044d50       ?type_case_n@?$output_processor@DV?$stream_output_adapter@D@__crt_stdio_output@@V?$standard_base@DV?$stream_output_adapter@D@__crt_stdio_output@@@2@@__crt_stdio_output@@AEAA_NXZ 0000000180045d50 f i libucrt:output.obj
 0001:00044dd8       ?type_case_s@?$output_processor@DV?$stream_output_adapter@D@__crt_stdio_output@@V?$standard_base@DV?$stream_output_adapter@D@__crt_stdio_output@@@2@@__crt_stdio_output@@AEAA_NXZ 0000000180045dd8 f i libucrt:output.obj
 0001:00044e70       ?validate_stream_is_ansi_if_required@?$__acrt_stdio_char_traits@D@@SA_NQEAU_iobuf@@@Z 0000000180045e70 f i libucrt:output.obj
 0001:00044f0c       ?write_stored_string_tchar@?$output_processor@DV?$stream_output_adapter@D@__crt_stdio_output@@V?$standard_base@DV?$stream_output_adapter@D@__crt_stdio_output@@@2@@__crt_stdio_output@@AEAA_ND@Z 0000000180045f0c f i libucrt:output.obj
 0001:00045030       ?write_string_impl@?$output_adapter_common@DV?$stream_output_adapter@D@__crt_stdio_output@@@__crt_stdio_output@@IEBAXQEBDHQEAHAEAV__crt_deferred_errno_cache@@@Z 0000000180046030 f i libucrt:output.obj
 0001:00045128       __stdio_common_vfprintf    0000000180046128 f   libucrt:output.obj
 0001:000451b4       free                       00000001800461b4 f   libucrt:free.obj
 0001:000451c8       abort                      00000001800461c8 f   libucrt:abort.obj
 0001:00045220       __acrt_initialize_stdio    0000000180046220 f   libucrt:_file.obj
 0001:00045340       __acrt_iob_func            0000000180046340 f   libucrt:_file.obj
 0001:00045354       __acrt_uninitialize_stdio  0000000180046354 f   libucrt:_file.obj
 0001:000453b0       _lock_file                 00000001800463b0 f   libucrt:_file.obj
 0001:000453bc       _unlock_file               00000001800463bc f   libucrt:_file.obj
 0001:000453c8       malloc                     00000001800463c8 f   libucrt:malloc.obj
 0001:000453d0       ?divide@__crt_strtox@@YA_KAEAUbig_integer@1@AEBU21@@Z 00000001800463d0 f i libucrt:input.obj
 0001:000457fc       _ischartype_l              00000001800467fc f i libucrt:input.obj
 0001:00045910       strncmp                    0000000180046910 f   libucrt:strncmp.obj
 0001:00045990       __acrt_initialize_clock    0000000180046990 f   libucrt:clock.obj
 0001:00045b10       _beginthreadex             0000000180046b10 f   libucrt:thread.obj
 0001:00045be4       _endthreadex               0000000180046be4 f   libucrt:thread.obj
 0001:00045bf0       __ascii_stricmp            0000000180046bf0 f   libucrt:stricmp.obj
 0001:00045c2c       _stricmp                   0000000180046c2c f   libucrt:stricmp.obj
 0001:00045c74       _stricmp_l                 0000000180046c74 f   libucrt:stricmp.obj
 0001:00045cfc       __acrt_initialize_new_handler 0000000180046cfc f   libucrt:new_handler.obj
 0001:00045d04       _callnewh                  0000000180046d04 f   libucrt:new_handler.obj
 0001:00045d34       _query_new_handler         0000000180046d34 f   libucrt:new_handler.obj
 0001:00045d68       _initterm                  0000000180046d68 f   libucrt:initterm.obj
 0001:00045dcc       _initterm_e                0000000180046dcc f   libucrt:initterm.obj
 0001:00045e0c       _seh_filter_dll            0000000180046e0c f   libucrt:exception_filter.obj
 0001:00045e20       _seh_filter_exe            0000000180046e20 f   libucrt:exception_filter.obj
 0001:00046210       __acrt_initialize_thread_local_exit_callback 0000000180047210 f   libucrt:exit.obj
 0001:00046218       _cexit                     0000000180047218 f   libucrt:exit.obj
 0001:00046228       _exit                      0000000180047228 f   libucrt:exit.obj
 0001:00046234       _is_c_termination_complete 0000000180047234 f   libucrt:exit.obj
 0001:000463fc       __acrt_allocate_buffer_for_argv 00000001800473fc f   libucrt:argv_parsing.obj
 0001:0004645c       _configure_narrow_argv     000000018004745c f   libucrt:argv_parsing.obj
 0001:00046a04       __dcrt_get_or_create_wide_environment_nolock 0000000180047a04 f   libucrt:environment_initialization.obj
 0001:00046a40       __dcrt_uninitialize_environments_nolock 0000000180047a40 f   libucrt:environment_initialization.obj
 0001:00046a78       _initialize_narrow_environment 0000000180047a78 f   libucrt:environment_initialization.obj
 0001:00046dc0       _crt_atexit                0000000180047dc0 f   libucrt:onexit.obj
 0001:00046dd0       _execute_onexit_table      0000000180047dd0 f   libucrt:onexit.obj
 0001:00046e0c       _initialize_onexit_table   0000000180047e0c f   libucrt:onexit.obj
 0001:00046e34       _register_onexit_function  0000000180047e34 f   libucrt:onexit.obj
 0001:00046eb4       __acrt_uninitialize_command_line 0000000180047eb4 f   libucrt:argv_data.obj
 0001:00046fac       __acrt_initialize          0000000180047fac f   libucrt:initialization.obj
 0001:00046fc0       __acrt_thread_attach       0000000180047fc0 f   libucrt:initialization.obj
 0001:00046fd4       __acrt_thread_detach       0000000180047fd4 f   libucrt:initialization.obj
 0001:00046fe4       __acrt_uninitialize        0000000180047fe4 f   libucrt:initialization.obj
 0001:0004701c       __acrt_uninitialize_critical 000000018004801c f   libucrt:initialization.obj
 0001:0004702c       terminate                  000000018004802c f   libucrt:terminate.obj
 0001:0004704c       getpid                     000000018004804c f   libucrt:getpid.obj
 0001:0004704c       _getpid                    000000018004804c f   libucrt:getpid.obj
 0001:00047054       rand_s                     0000000180048054 f   libucrt:rand_s.obj
 0001:000470a0       __acrt_initialize_locks    00000001800480a0 f   libucrt:locks.obj
 0001:000470e8       __acrt_lock                00000001800480e8 f   libucrt:locks.obj
 0001:00047104       __acrt_uninitialize_locks  0000000180048104 f   libucrt:locks.obj
 0001:0004713c       __acrt_unlock              000000018004813c f   libucrt:locks.obj
 0001:00047158       __pctype_func              0000000180048158 f   libucrt:ctype.obj
 0001:00047188       ___lc_codepage_func        0000000180048188 f   libucrt:initctype.obj
 0001:000471b8       __acrt_errno_from_os_error 00000001800481b8 f   libucrt:errno.obj
 0001:00047200       __acrt_errno_map_os_error  0000000180048200 f   libucrt:errno.obj
 0001:00047250       __doserrno                 0000000180048250 f   libucrt:errno.obj
 0001:00047270       _errno                     0000000180048270 f   libucrt:errno.obj
 0001:00047290       pow                        0000000180048290 f   libucrt:pow.obj
 0001:00048930       powf                       0000000180049930 f   libucrt:powf.obj
 0001:000497f8       __strncnt                  000000018004a7f8 f   libucrt:strncnt.obj
 0001:00049810       ??$__acrt_mbs_to_wcs_cp@U__crt_win32_buffer_internal_dynamic_resizing@@@@YAHQEBDAEAV?$__crt_win32_buffer@_WU__crt_win32_buffer_internal_dynamic_resizing@@@@I@Z 000000018004a810 f i libucrt:strftime.obj
 0001:00049988       ??$__acrt_wcs_to_mbs_cp@U__crt_win32_buffer_no_resizing@@@@YAHQEB_WAEAV?$__crt_win32_buffer@DU__crt_win32_buffer_no_resizing@@@@I@Z 000000018004a988 f i libucrt:strftime.obj
 0001:00049a9c       strnlen                    000000018004aa9c f   libucrt:strnlen.obj
 0001:00049bec       wcsnlen                    000000018004abec f   libucrt:strnlen.obj
 0001:00049dc4       strcpy_s                   000000018004adc4 f   libucrt:strcpy_s.obj
 0001:00049e24       ??$parse_integer@KV?$c_string_character_source@D@__crt_strtox@@@__crt_strtox@@YAKQEAU__crt_locale_pointers@@V?$c_string_character_source@D@0@H_N@Z 000000018004ae24 f i libucrt:atox.obj
 0001:0004a128       ??$parse_integer@KV?$c_string_character_source@_W@__crt_strtox@@@__crt_strtox@@YAKQEAU__crt_locale_pointers@@V?$c_string_character_source@_W@0@H_N@Z 000000018004b128 f i libucrt:atox.obj
 0001:0004a7d0       wcsncmp                    000000018004b7d0 f   libucrt:wcsncmp.obj
 0001:0004ab74       __acrt_freeptd             000000018004bb74 f   libucrt:per_thread_data.obj
 0001:0004abb8       __acrt_getptd              000000018004bbb8 f   libucrt:per_thread_data.obj
 0001:0004ac8c       __acrt_getptd_head         000000018004bc8c f   libucrt:per_thread_data.obj
 0001:0004ad34       __acrt_getptd_noexit       000000018004bd34 f   libucrt:per_thread_data.obj
 0001:0004ae00       __acrt_initialize_ptd      000000018004be00 f   libucrt:per_thread_data.obj
 0001:0004ae3c       __acrt_uninitialize_ptd    000000018004be3c f   libucrt:per_thread_data.obj
 0001:0004ae60       _calloc_base               000000018004be60 f   libucrt:calloc_base.obj
 0001:0004b0b0       __acrt_AppPolicyGetProcessTerminationMethodInternal 000000018004c0b0 f   libucrt:winapi_thunks.obj
 0001:0004b100       __acrt_AppPolicyGetThreadInitializationTypeInternal 000000018004c100 f   libucrt:winapi_thunks.obj
 0001:0004b150       __acrt_AreFileApisANSI     000000018004c150 f   libucrt:winapi_thunks.obj
 0001:0004b18c       __acrt_CompareStringEx     000000018004c18c f   libucrt:winapi_thunks.obj
 0001:0004b268       __acrt_FlsAlloc            000000018004c268 f   libucrt:winapi_thunks.obj
 0001:0004b2b0       __acrt_FlsFree             000000018004c2b0 f   libucrt:winapi_thunks.obj
 0001:0004b2f8       __acrt_FlsGetValue         000000018004c2f8 f   libucrt:winapi_thunks.obj
 0001:0004b340       __acrt_FlsSetValue         000000018004c340 f   libucrt:winapi_thunks.obj
 0001:0004b394       __acrt_GetSystemTimePreciseAsFileTime 000000018004c394 f   libucrt:winapi_thunks.obj
 0001:0004b3dc       __acrt_InitializeCriticalSectionEx 000000018004c3dc f   libucrt:winapi_thunks.obj
 0001:0004b440       __acrt_LCMapStringEx       000000018004c440 f   libucrt:winapi_thunks.obj
 0001:0004b51c       __acrt_LocaleNameToLCID    000000018004c51c f   libucrt:winapi_thunks.obj
 0001:0004b56c       __acrt_RoInitialize        000000018004c56c f   libucrt:winapi_thunks.obj
 0001:0004b5ac       __acrt_RoUninitialize      000000018004c5ac f   libucrt:winapi_thunks.obj
 0001:0004b5e0       __acrt_RtlGenRandom        000000018004c5e0 f   libucrt:winapi_thunks.obj
 0001:0004b630       __acrt_initialize_winapi_thunks 000000018004c630 f   libucrt:winapi_thunks.obj
 0001:0004b664       __acrt_uninitialize_winapi_thunks 000000018004c664 f   libucrt:winapi_thunks.obj
 0001:0004b6a8       __acrt_initialize_timeset  000000018004c6a8 f   libucrt:timeset.obj
 0001:0004b6f8       __daylight                 000000018004c6f8 f   libucrt:timeset.obj
 0001:0004b700       __dstbias                  000000018004c700 f   libucrt:timeset.obj
 0001:0004b708       __timezone                 000000018004c708 f   libucrt:timeset.obj
 0001:0004b710       __tzname                   000000018004c710 f   libucrt:timeset.obj
 0001:0004b718       __wide_tzname              000000018004c718 f   libucrt:timeset.obj
 0001:0004b720       _get_daylight              000000018004c720 f   libucrt:timeset.obj
 0001:0004b750       _get_dstbias               000000018004c750 f   libucrt:timeset.obj
 0001:0004b780       _get_timezone              000000018004c780 f   libucrt:timeset.obj
 0001:0004be38       __tzset                    000000018004ce38 f   libucrt:tzset.obj
 0001:0004be78       _free_base                 000000018004ce78 f   libucrt:free_base.obj
 0001:0004beb8       _malloc_base               000000018004ceb8 f   libucrt:malloc_base.obj
 0001:0004bf18       strtol                     000000018004cf18 f   libucrt:strtox.obj
 0001:0004bf44       wcstol                     000000018004cf44 f   libucrt:strtox.obj
 0001:0004bf70       _mbtowc_l                  000000018004cf70 f   libucrt:mbtowc.obj
 0001:0004c0f0       mbtowc                     000000018004d0f0 f   libucrt:mbtowc.obj
 0001:0004c0f8       _wctomb_s_l                000000018004d0f8 f   libucrt:wctomb.obj
 0001:0004c294       __acrt_update_locale_info  000000018004d294 f   libucrt:locale_update.obj
 0001:0004c2c8       __acrt_update_multibyte_info 000000018004d2c8 f   libucrt:locale_update.obj
 0001:0004cd08       __acrt_fp_format           000000018004dd08 f   libucrt:cvt.obj
 0001:0004d040       _fileno                    000000018004e040 f   libucrt:fileno.obj
 0001:0004d068       _fputc_nolock              000000018004e068 f   libucrt:fputc.obj
 0001:0004d080       _get_printf_count_output   000000018004e080 f   libucrt:printf_count_output.obj
 0001:0004d098       __acrt_should_use_temporary_buffer 000000018004e098 f   libucrt:_sftbuf.obj
 0001:0004d0e0       __acrt_stdio_begin_temporary_buffering_nolock 000000018004e0e0 f   libucrt:_sftbuf.obj
 0001:0004d1a8       __acrt_stdio_end_temporary_buffering_nolock 000000018004e1a8 f   libucrt:_sftbuf.obj
 0001:0004d254       __acrt_set_locale_changed  000000018004e254 f   libucrt:wsetlocale.obj
 0001:0004d260       __acrt_uninitialize_locale 000000018004e260 f   libucrt:wsetlocale.obj
 0001:0004d48c       __acrt_initialize_lowio    000000018004e48c f   libucrt:ioinit.obj
 0001:0004d4c8       __acrt_uninitialize_lowio  000000018004e4c8 f   libucrt:ioinit.obj
 0001:0004d550       __acrt_get_sigabrt_handler 000000018004e550 f   libucrt:signal.obj
 0001:0004d580       __acrt_initialize_signal_handlers 000000018004e580 f   libucrt:signal.obj
 0001:0004d5a0       raise                      000000018004e5a0 f   libucrt:signal.obj
 0001:0004d80c       _fcloseall                 000000018004e80c f   libucrt:closeall.obj
 0001:0004da9c       __acrt_stdio_flush_nolock  000000018004ea9c f   libucrt:fflush.obj
 0001:0004db18       _fflush_nolock             000000018004eb18 f   libucrt:fflush.obj
 0001:0004db64       _flushall                  000000018004eb64 f   libucrt:fflush.obj
 0001:0004db6c       __acrt_stdio_free_buffer_nolock 000000018004eb6c f   libucrt:_freebuf.obj
 0001:0004dbac       _raise_exc                 000000018004ebac f   libucrt:fpexcept.obj
 0001:0004dbd4       _raise_exc_ex              000000018004ebd4 f   libucrt:fpexcept.obj
 0001:0004dee4       _raise_excf                000000018004eee4 f   libucrt:fpexcept.obj
 0001:0004df10       _set_errno_from_matherr    000000018004ef10 f   libucrt:fpexcept.obj
 0001:0004df40       _clrfp                     000000018004ef40 f   libucrt:fpctrl.obj
 0001:0004df60       _ctrlfp                    000000018004ef60 f   libucrt:fpctrl.obj
 0001:0004dfdc       _set_statfp                000000018004efdc f   libucrt:fpctrl.obj
 0001:0004dffc       _statfp                    000000018004effc f   libucrt:fpctrl.obj
 0001:0004e010       iswctype                   000000018004f010 f   libucrt:iswctype.obj
 0001:0004e07c       _isctype_l                 000000018004f07c f   libucrt:isctype.obj
 0001:0004e184       fegetround                 000000018004f184 f   libucrt:fegetround.obj
 0001:0004e198       __acrt_get_begin_thread_init_policy 000000018004f198 f   libucrt:win_policies.obj
 0001:0004e1ec       __acrt_get_process_end_policy 000000018004f1ec f   libucrt:win_policies.obj
 0001:0004e23c       ??$__acrt_wcs_to_mbs_cp@U__crt_win32_buffer_internal_dynamic_resizing@@@@YAHQEB_WAEAV?$__crt_win32_buffer@DU__crt_win32_buffer_internal_dynamic_resizing@@@@I@Z 000000018004f23c f i libucrt:argv_wildcards.obj
 0001:0004ea6c       __acrt_expand_narrow_argv_wildcards 000000018004fa6c f   libucrt:argv_wildcards.obj
 0001:0004ea74       __acrt_GetModuleFileNameA  000000018004fa74 f   libucrt:getmodulefilenamea.obj
 0001:0004f2bc       __acrt_initialize_multibyte 00000001800502bc f   libucrt:mbctype.obj
 0001:0004f31c       __acrt_update_thread_multibyte_data 000000018005031c f   libucrt:mbctype.obj
 0001:0004f338       _setmbcp_nolock            0000000180050338 f   libucrt:mbctype.obj
 0001:0004f66c       _ismbblead                 000000018005066c f   libucrt:ismbbyte.obj
 0001:0004f680       __acrt_initialize_command_line 0000000180050680 f   libucrt:argv_data.obj
 0001:0004f6a8       wcscpy_s                   00000001800506a8 f   libucrt:wcscpy_s.obj
 0001:0004f710       __acrt_MultiByteToWideChar 0000000180050710 f   libucrt:multibytetowidechar.obj
 0001:0004f76c       __acrt_WideCharToMultiByte 000000018005076c f   libucrt:widechartomultibyte.obj
 0001:0004f81c       __dcrt_get_narrow_environment_from_os 000000018005081c f   libucrt:get_environment_from_os.obj
 0001:0004f920       __dcrt_get_wide_environment_from_os 0000000180050920 f   libucrt:get_environment_from_os.obj
 0001:0004fdd4       __dcrt_set_variable_in_wide_environment_nolock 0000000180050dd4 f   libucrt:setenv.obj
 0001:0004fddc       _recalloc_base             0000000180050ddc f   libucrt:recalloc.obj
 0001:0004fe74       __acrt_initialize_heap     0000000180050e74 f   libucrt:heap_handle.obj
 0001:0004fe90       __acrt_uninitialize_heap   0000000180050e90 f   libucrt:heap_handle.obj
 0001:0004fe9c       __acrt_execute_initializers 0000000180050e9c f   libucrt:shared_initialization.obj
 0001:0004ff1c       __acrt_execute_uninitializers 0000000180050f1c f   libucrt:shared_initialization.obj
 0001:0004ff58       __acrt_has_user_matherr    0000000180050f58 f   libucrt:matherr.obj
 0001:0004ff78       __acrt_initialize_user_matherr 0000000180050f78 f   libucrt:matherr.obj
 0001:0004ff80       __acrt_invoke_user_matherr 0000000180050f80 f   libucrt:matherr.obj
 0001:0004ffb0       __acrt_GetStringTypeA      0000000180050fb0 f   libucrt:getstringtypea.obj
 0001:00050458       __acrt_LCMapStringA        0000000180051458 f   libucrt:lcmapstringa.obj
 0001:000504f0       _realloc_base              00000001800514f0 f   libucrt:realloc_base.obj
 0001:00050570       __acrt_initialize_fma3     0000000180051570 f   libucrt:fma3_available.obj
 0001:000505e0       _pow_special               00000001800515e0 f   libucrt:pow_special.obj
 0001:00050704       _powf_special              0000000180051704 f   libucrt:pow_special.obj
 0001:00050890       _isleadbyte_l              0000000180051890 f i libucrt:_wctype.obj
 0001:000508dc       __acrt_add_locale_ref      00000001800518dc f   libucrt:locale_refcounting.obj
 0001:00050968       __acrt_free_locale         0000000180051968 f   libucrt:locale_refcounting.obj
 0001:00050ae0       __acrt_locale_add_lc_time_reference 0000000180051ae0 f   libucrt:locale_refcounting.obj
 0001:00050b08       __acrt_locale_free_lc_time_if_unreferenced 0000000180051b08 f   libucrt:locale_refcounting.obj
 0001:00050b40       __acrt_locale_release_lc_time_reference 0000000180051b40 f   libucrt:locale_refcounting.obj
 0001:00050b68       __acrt_release_locale_ref  0000000180051b68 f   libucrt:locale_refcounting.obj
 0001:00050c10       __acrt_update_thread_locale_data 0000000180051c10 f   libucrt:locale_refcounting.obj
 0001:00050c80       _updatetlocinfoEx_nolock   0000000180051c80 f   libucrt:locale_refcounting.obj
 0001:00050ce8       _query_new_mode            0000000180051ce8 f   libucrt:new_mode.obj
 0001:00050cf0       __acrt_DownlevelLocaleNameToLCID 0000000180051cf0 f   libucrt:lcidtoname_downlevel.obj
 0001:00050f30       _wgetenv_s                 0000000180051f30 f   libucrt:getenv.obj
 0001:00050f38       wcsncpy_s                  0000000180051f38 f   libucrt:wcsncpy_s.obj
 0001:0005101c       ?__mbrtowc_utf8@__crt_mbstring@@YA_KPEA_WPEBD_KPEAU_Mbstatet@@@Z 000000018005201c f   libucrt:mbrtowc.obj
 0001:00051058       ?__mbsrtowcs_utf8@__crt_mbstring@@YA_KPEA_WPEAPEBD_KPEAU_Mbstatet@@@Z 0000000180052058 f   libucrt:mbrtowc.obj
 0001:000511d0       ?__c32rtomb_utf8@__crt_mbstring@@YA_KPEAD_UPEAU_Mbstatet@@@Z 00000001800521d0 f   libucrt:c32rtomb.obj
 0001:00051284       __acrt_fp_strflt_to_string 0000000180052284 f   libucrt:_fptostr.obj
 0001:000513e0       __acrt_fltout              00000001800523e0 f   libucrt:cfout.obj
 0001:00052784       __acrt_stdio_flush_and_write_narrow_nolock 0000000180053784 f   libucrt:_flsbuf.obj
 0001:0005283c       _isatty                    000000018005383c f   libucrt:isatty.obj
 0001:0005289c       __acrt_locale_free_monetary 000000018005389c f   libucrt:initmon.obj
 0001:000529a8       __acrt_locale_free_numeric 00000001800539a8 f   libucrt:initnum.obj
 0001:00052a6c       __acrt_locale_free_time    0000000180053a6c f   libucrt:inittime.obj
 0001:00052b74       __acrt_lowio_create_handle_array 0000000180053b74 f   libucrt:osfinfo.obj
 0001:00052c1c       __acrt_lowio_destroy_handle_array 0000000180053c1c f   libucrt:osfinfo.obj
 0001:00052c6c       __acrt_lowio_ensure_fh_exists 0000000180053c6c f   libucrt:osfinfo.obj
 0001:00052d14       __acrt_lowio_lock_fh       0000000180053d14 f   libucrt:osfinfo.obj
 0001:00052d3c       __acrt_lowio_unlock_fh     0000000180053d3c f   libucrt:osfinfo.obj
 0001:00052d64       _free_osfhnd               0000000180053d64 f   libucrt:osfinfo.obj
 0001:00052e20       _get_osfhandle             0000000180053e20 f   libucrt:osfinfo.obj
 0001:00052e98       _fclose_nolock             0000000180053e98 f   libucrt:fclose.obj
 0001:00052f1c       fclose                     0000000180053f1c f   libucrt:fclose.obj
 0001:0005300c       _commit                    000000018005400c f   libucrt:commit.obj
 0001:0005391c       _write                     000000018005491c f   libucrt:write.obj
 0001:00053a08       _write_nolock              0000000180054a08 f   libucrt:write.obj
 0001:00053d00       _get_fpsr                  0000000180054d00 f   libucrt:fpsr.obj
 0001:00053d10       _set_fpsr                  0000000180054d10 f   libucrt:fpsr.obj
 0001:00053d1a       _fclrf                     0000000180054d1a f   libucrt:fpsr.obj
 0001:00053d2e       _frnd                      0000000180054d2e f   libucrt:fpsr.obj
 0001:00053d50       __acrt_GetStringTypeW      0000000180054d50 f   libucrt:getstringtypew.obj
 0001:00053d58       __acrt_stdio_allocate_buffer_nolock 0000000180054d58 f   libucrt:_getbuf.obj
 0001:00053dc4       __acrt_fenv_get_common_round_control 0000000180054dc4 f   libucrt:_fenvutils.obj
 0001:00053dd0       __acrt_fenv_get_control    0000000180054dd0 f   libucrt:_fenvutils.obj
 0001:00053ec4       __acrt_fenv_get_status     0000000180054ec4 f   libucrt:_fenvutils.obj
 0001:00053f18       __acrt_fenv_set_control    0000000180054f18 f   libucrt:_fenvutils.obj
 0001:00054060       __acrt_fenv_set_status     0000000180055060 f   libucrt:_fenvutils.obj
 0001:000540f0       qsort                      00000001800550f0 f   libucrt:qsort.obj
 0001:00054490       strncpy_s                  0000000180055490 f   libucrt:strncpy_s.obj
 0001:00054610       strpbrk                    0000000180055610 f   libucrt:strpbrk.obj
 0001:000549d8       _mbsdec                    00000001800559d8 f   libucrt:mbsdec.obj
 0001:000549e0       _mbsdec_l                  00000001800559e0 f   libucrt:mbsdec.obj
 0001:00054a8c       _wcsnicoll                 0000000180055a8c f   libucrt:wcsnicol.obj
 0001:00054adc       _wcsnicoll_l               0000000180055adc f   libucrt:wcsnicol.obj
 0001:00054bcc       _msize_base                0000000180055bcc f   libucrt:msize.obj
 0001:00054d2c       _handle_error              0000000180055d2c f   libucrt:libm_error.obj
 0001:00054e54       _handle_errorf             0000000180055e54 f   libucrt:libm_error.obj
 0001:00054f88       _handle_nan                0000000180055f88 f   libucrt:libm_error.obj
 0001:00054fa4       _handle_nanf               0000000180055fa4 f   libucrt:libm_error.obj
 0001:00054fb4       __ascii_wcsnicmp           0000000180055fb4 f   libucrt:wcsnicmp.obj
 0001:00055000       ?__mbrtoc32_utf8@__crt_mbstring@@YA_KPEA_UPEBD_KPEAU_Mbstatet@@@Z 0000000180056000 f   libucrt:mbrtoc32.obj
 0001:000551d8       _controlfp_s               00000001800561d8 f   libucrt:contrlfp.obj
 0001:0005523c       fegetenv                   000000018005623c f   libucrt:fegetenv.obj
 0001:0005525c       fesetenv                   000000018005625c f   libucrt:fesetenv.obj
 0001:000552a8       feholdexcept               00000001800562a8 f   libucrt:feholdexcept.obj
 0001:000552f8       ceil                       00000001800562f8 f   libucrt:ceil.obj
 0001:000553c0       log10                      00000001800563c0 f   libucrt:log10.obj
 0001:00055af8       _lseeki64                  0000000180056af8 f   libucrt:lseek.obj
 0001:00055b00       _lseeki64_nolock           0000000180056b00 f   libucrt:lseek.obj
 0001:00055b08       _query_app_type            0000000180056b08 f   libucrt:report_runtime_error.obj
 0001:00055b84       _close                     0000000180056b84 f   libucrt:close.obj
 0001:00055c28       _close_nolock              0000000180056c28 f   libucrt:close.obj
 0001:00055ce8       ?__acrt_stdio_free_stream@@YAXV__crt_stdio_stream@@@Z 0000000180056ce8 f   libucrt:stream.obj
 0001:00055d04       _putwch_nolock             0000000180056d04 f   libucrt:putwch.obj
 0001:00055d40       __acrt_CompareStringW      0000000180056d40 f   libucrt:comparestringw.obj
 0001:00055e00       _clearfp                   0000000180056e00 f   libucrt:ieee.obj
 0001:00055e70       _control87                 0000000180056e70 f   libucrt:ieee.obj
 0001:00056140       _log10_special             0000000180057140 f   libucrt:log_special.obj
 0001:000561f8       __dcrt_lowio_ensure_console_output_initialized 00000001800571f8 f   libucrt:initcon.obj
 0001:0005624c       __dcrt_terminate_console_output 000000018005724c f   libucrt:initcon.obj
 0001:00056268       __dcrt_write_console       0000000180057268 f   libucrt:initcon.obj
 0001:00056328       ?DloadAcquireSectionWriteAccess@@YAXXZ 0000000180057328 f i DelayImp:delayhlp.obj
 0001:000563d4       ?DloadGetSRWLockFunctionPointers@@YAEXZ 00000001800573d4 f i DelayImp:delayhlp.obj
 0001:00056470       ?DloadMakePermanentImageCommit@@YAXPEAX_K@Z 0000000180057470 f i DelayImp:delayhlp.obj
 0001:00056508       ?DloadObtainSection@@YAPEAXPEAK0@Z 0000000180057508 f i DelayImp:delayhlp.obj
 0001:000565a4       ?DloadProtectSection@@YAXKPEAK@Z 00000001800575a4 f i DelayImp:delayhlp.obj
 0001:00056634       ?DloadReleaseSectionWriteAccess@@YAXXZ 0000000180057634 f i DelayImp:delayhlp.obj
 0001:000566c8       __delayLoadHelper2         00000001800576c8 f   DelayImp:delayhlp.obj
 0001:0005699c       __GSHandlerCheck           000000018005799c f   LIBCMT:gshandler.obj
 0001:000569bc       __GSHandlerCheckCommon     00000001800579bc f   LIBCMT:gshandler.obj
 0001:00056a18       __GSHandlerCheck_EH4       0000000180057a18 f   LIBCMT:gshandlereh4.obj
 0001:00056ab0       _alloca_probe              0000000180057ab0 f   LIBCMT:chkstk.obj
 0001:00056ab0       __chkstk                   0000000180057ab0 f   LIBCMT:chkstk.obj
 0001:00056b00       _FindPESection             0000000180057b00 f   LIBCMT:pesect.obj
 0001:00056b50       _IsNonwritableInCurrentImage 0000000180057b50 f   LIBCMT:pesect.obj
 0001:00056ba0       _ValidateImageBase         0000000180057ba0 f   LIBCMT:pesect.obj
 0001:00056bd0       __GSHandlerCheck_SEH       0000000180057bd0 f   LIBCMT:gshandlerseh.obj
 0001:00056c58       strrchr                    0000000180057c58 f   libvcruntime:strrchr.obj
 0001:00056d84       wcschr                     0000000180057d84 f   libvcruntime:wcschr.obj
 0001:00056e00       sqrt                       0000000180057e00 f   libucrt:sqrt.obj
 0001:00056ee0       _guard_dispatch_icall_nop  0000000180057ee0 f   LIBCMT:guard_dispatch.obj
 0001:00056f00       _guard_xfg_dispatch_icall_nop 0000000180057f00 f   LIBCMT:guard_xfg_dispatch.obj
 0002:00000000       __imp_WaitForSingleObject  000000018005a000     kernel32:KERNEL32.dll
 0002:00000008       __imp_CloseHandle          000000018005a008     kernel32:KERNEL32.dll
 0002:00000010       __imp_GetModuleHandleA     000000018005a010     kernel32:KERNEL32.dll
 0002:00000018       __imp_LoadLibraryExA       000000018005a018     kernel32:KERNEL32.dll
 0002:00000020       __imp_RtlCaptureContext    000000018005a020     kernel32:KERNEL32.dll
 0002:00000028       __imp_RtlLookupFunctionEntry 000000018005a028     kernel32:KERNEL32.dll
 0002:00000030       __imp_RtlVirtualUnwind     000000018005a030     kernel32:KERNEL32.dll
 0002:00000038       __imp_UnhandledExceptionFilter 000000018005a038     kernel32:KERNEL32.dll
 0002:00000040       __imp_SetUnhandledExceptionFilter 000000018005a040     kernel32:KERNEL32.dll
 0002:00000048       __imp_GetCurrentProcess    000000018005a048     kernel32:KERNEL32.dll
 0002:00000050       __imp_TerminateProcess     000000018005a050     kernel32:KERNEL32.dll
 0002:00000058       __imp_IsProcessorFeaturePresent 000000018005a058     kernel32:KERNEL32.dll
 0002:00000060       __imp_QueryPerformanceCounter 000000018005a060     kernel32:KERNEL32.dll
 0002:00000068       __imp_GetCurrentProcessId  000000018005a068     kernel32:KERNEL32.dll
 0002:00000070       __imp_GetCurrentThreadId   000000018005a070     kernel32:KERNEL32.dll
 0002:00000078       __imp_GetSystemTimeAsFileTime 000000018005a078     kernel32:KERNEL32.dll
 0002:00000080       __imp_InitializeSListHead  000000018005a080     kernel32:KERNEL32.dll
 0002:00000088       __imp_IsDebuggerPresent    000000018005a088     kernel32:KERNEL32.dll
 0002:00000090       __imp_GetStartupInfoW      000000018005a090     kernel32:KERNEL32.dll
 0002:00000098       __imp_GetModuleHandleW     000000018005a098     kernel32:KERNEL32.dll
 0002:000000a0       __imp_WideCharToMultiByte  000000018005a0a0     kernel32:KERNEL32.dll
 0002:000000a8       __imp_EnterCriticalSection 000000018005a0a8     kernel32:KERNEL32.dll
 0002:000000b0       __imp_LeaveCriticalSection 000000018005a0b0     kernel32:KERNEL32.dll
 0002:000000b8       __imp_InitializeCriticalSectionEx 000000018005a0b8     kernel32:KERNEL32.dll
 0002:000000c0       __imp_DeleteCriticalSection 000000018005a0c0     kernel32:KERNEL32.dll
 0002:000000c8       __imp_EncodePointer        000000018005a0c8     kernel32:KERNEL32.dll
 0002:000000d0       __imp_DecodePointer        000000018005a0d0     kernel32:KERNEL32.dll
 0002:000000d8       __imp_MultiByteToWideChar  000000018005a0d8     kernel32:KERNEL32.dll
 0002:000000e0       __imp_GetStringTypeW       000000018005a0e0     kernel32:KERNEL32.dll
 0002:000000e8       __imp_GetCPInfo            000000018005a0e8     kernel32:KERNEL32.dll
 0002:000000f0       __imp_RtlUnwindEx          000000018005a0f0     kernel32:KERNEL32.dll
 0002:000000f8       __imp_RtlPcToFileHeader    000000018005a0f8     kernel32:KERNEL32.dll
 0002:00000100       __imp_RaiseException       000000018005a100     kernel32:KERNEL32.dll
 0002:00000108       __imp_InterlockedFlushSList 000000018005a108     kernel32:KERNEL32.dll
 0002:00000110       __imp_GetLastError         000000018005a110     kernel32:KERNEL32.dll
 0002:00000118       __imp_SetLastError         000000018005a118     kernel32:KERNEL32.dll
 0002:00000120       __imp_InitializeCriticalSectionAndSpinCount 000000018005a120     kernel32:KERNEL32.dll
 0002:00000128       __imp_TlsAlloc             000000018005a128     kernel32:KERNEL32.dll
 0002:00000130       __imp_TlsGetValue          000000018005a130     kernel32:KERNEL32.dll
 0002:00000138       __imp_TlsSetValue          000000018005a138     kernel32:KERNEL32.dll
 0002:00000140       __imp_TlsFree              000000018005a140     kernel32:KERNEL32.dll
 0002:00000148       __imp_FreeLibrary          000000018005a148     kernel32:KERNEL32.dll
 0002:00000150       __imp_GetProcAddress       000000018005a150     kernel32:KERNEL32.dll
 0002:00000158       __imp_LoadLibraryExW       000000018005a158     kernel32:KERNEL32.dll
 0002:00000160       __imp_GetTimeZoneInformation 000000018005a160     kernel32:KERNEL32.dll
 0002:00000168       __imp_QueryPerformanceFrequency 000000018005a168     kernel32:KERNEL32.dll
 0002:00000170       __imp_CreateThread         000000018005a170     kernel32:KERNEL32.dll
 0002:00000178       __imp_ExitThread           000000018005a178     kernel32:KERNEL32.dll
 0002:00000180       __imp_FreeLibraryAndExitThread 000000018005a180     kernel32:KERNEL32.dll
 0002:00000188       __imp_GetModuleHandleExW   000000018005a188     kernel32:KERNEL32.dll
 0002:00000190       __imp_ExitProcess          000000018005a190     kernel32:KERNEL32.dll
 0002:00000198       __imp_GetModuleFileNameW   000000018005a198     kernel32:KERNEL32.dll
 0002:000001a0       __imp_HeapAlloc            000000018005a1a0     kernel32:KERNEL32.dll
 0002:000001a8       __imp_CompareStringW       000000018005a1a8     kernel32:KERNEL32.dll
 0002:000001b0       __imp_LCMapStringW         000000018005a1b0     kernel32:KERNEL32.dll
 0002:000001b8       __imp_HeapFree             000000018005a1b8     kernel32:KERNEL32.dll
 0002:000001c0       __imp_GetStdHandle         000000018005a1c0     kernel32:KERNEL32.dll
 0002:000001c8       __imp_GetFileType          000000018005a1c8     kernel32:KERNEL32.dll
 0002:000001d0       __imp_FindClose            000000018005a1d0     kernel32:KERNEL32.dll
 0002:000001d8       __imp_FindFirstFileExW     000000018005a1d8     kernel32:KERNEL32.dll
 0002:000001e0       __imp_FindNextFileW        000000018005a1e0     kernel32:KERNEL32.dll
 0002:000001e8       __imp_IsValidCodePage      000000018005a1e8     kernel32:KERNEL32.dll
 0002:000001f0       __imp_GetACP               000000018005a1f0     kernel32:KERNEL32.dll
 0002:000001f8       __imp_GetOEMCP             000000018005a1f8     kernel32:KERNEL32.dll
 0002:00000200       __imp_GetCommandLineA      000000018005a200     kernel32:KERNEL32.dll
 0002:00000208       __imp_GetCommandLineW      000000018005a208     kernel32:KERNEL32.dll
 0002:00000210       __imp_GetEnvironmentStringsW 000000018005a210     kernel32:KERNEL32.dll
 0002:00000218       __imp_FreeEnvironmentStringsW 000000018005a218     kernel32:KERNEL32.dll
 0002:00000220       __imp_SetEnvironmentVariableW 000000018005a220     kernel32:KERNEL32.dll
 0002:00000228       __imp_GetProcessHeap       000000018005a228     kernel32:KERNEL32.dll
 0002:00000230       __imp_HeapReAlloc          000000018005a230     kernel32:KERNEL32.dll
 0002:00000238       __imp_GetFileSizeEx        000000018005a238     kernel32:KERNEL32.dll
 0002:00000240       __imp_SetFilePointerEx     000000018005a240     kernel32:KERNEL32.dll
 0002:00000248       __imp_SetStdHandle         000000018005a248     kernel32:KERNEL32.dll
 0002:00000250       __imp_FlushFileBuffers     000000018005a250     kernel32:KERNEL32.dll
 0002:00000258       __imp_WriteFile            000000018005a258     kernel32:KERNEL32.dll
 0002:00000260       __imp_GetConsoleOutputCP   000000018005a260     kernel32:KERNEL32.dll
 0002:00000268       __imp_GetConsoleMode       000000018005a268     kernel32:KERNEL32.dll
 0002:00000270       __imp_HeapSize             000000018005a270     kernel32:KERNEL32.dll
 0002:00000278       __imp_CreateFileW          000000018005a278     kernel32:KERNEL32.dll
 0002:00000280       __imp_WriteConsoleW        000000018005a280     kernel32:KERNEL32.dll
 0002:00000288       __imp_GetSystemInfo        000000018005a288     kernel32:KERNEL32.dll
 0002:00000290       __imp_VirtualProtect       000000018005a290     kernel32:KERNEL32.dll
 0002:00000298       __imp_VirtualQuery         000000018005a298     kernel32:KERNEL32.dll
 0002:000002a0       \177KERNEL32_NULL_THUNK_DATA 000000018005a2a0     kernel32:KERNEL32.dll
 0002:000002a8       __guard_check_icall_fptr   000000018005a2a8     LIBCMT:guard_support.obj
 0002:000002b0       __guard_xfg_check_icall_fptr 000000018005a2b0     LIBCMT:guard_support.obj
 0002:000002b8       __guard_dispatch_icall_fptr 000000018005a2b8     LIBCMT:guard_support.obj
 0002:000002c0       __guard_xfg_dispatch_icall_fptr 000000018005a2c0     LIBCMT:guard_support.obj
 0002:000002c8       __guard_xfg_table_dispatch_icall_fptr 000000018005a2c8     LIBCMT:guard_support.obj
 0002:000002d0       __xc_a                     000000018005a2d0     LIBCMT:initializers.obj
 0002:00000300       _register_turtlecoincrypto_ 000000018005a300     turtlecoin-crypto-node.obj
 0002:00000310       __xc_z                     000000018005a310     LIBCMT:initializers.obj
 0002:00000340       __xi_a                     000000018005a340     LIBCMT:initializers.obj
 0002:00000348       __acrt_stdio_initializer   000000018005a348     libucrt:stdio_initializer.obj
 0002:00000350       __acrt_clock_initializer   000000018005a350     libucrt:clock_initializer.obj
 0002:00000358       __acrt_timeset_initializer 000000018005a358     libucrt:timeset_initializer.obj
 0002:00000360       __acrt_multibyte_initializer 000000018005a360     libucrt:multibyte_initializer.obj
 0002:00000368       __acrt_tran_fma3_initializer 000000018005a368     libucrt:fma3_initializer.obj
 0002:00000370       __xi_z                     000000018005a370     LIBCMT:initializers.obj
 0002:00000378       __xl_a                     000000018005a378     LIBCMT:tlssup.obj
 0002:00000388       __xl_z                     000000018005a388     LIBCMT:tlssup.obj
 0002:00000390       __xp_a                     000000018005a390     LIBCMT:initializers.obj
 0002:00000398       __acrt_locale_terminator   000000018005a398     libucrt:locale_initializer.obj
 0002:000003a0       __dcrt_console_output_terminator 000000018005a3a0     libucrt:console_output_initializer.obj
 0002:000003a8       __acrt_stdio_terminator    000000018005a3a8     libucrt:stdio_initializer.obj
 0002:000003b0       __xp_z                     000000018005a3b0     LIBCMT:initializers.obj
 0002:000003b8       __xt_a                     000000018005a3b8     LIBCMT:initializers.obj
 0002:000003c0       __xt_z                     000000018005a3c0     LIBCMT:initializers.obj
 0002:000003e0       __sz_node_exe              000000018005a3e0     node:node.exe
 0002:000003f0       __dyn_tls_init_callback    000000018005a3f0     LIBCMT:tlsdyn.obj
 0002:00000400       ??_7type_info@@6B@         000000018005a400     LIBCMT:std_type_info_static.obj
 0002:00000408       _pDefaultRawDllMain        000000018005a408     LIBCMT:dll_dllmain.obj
 0002:00000408       _pRawDllMain               000000018005a408     LIBCMT:dll_dllmain.obj
 0002:00000428       ??_7exception@std@@6B@     000000018005a428     LIBCMT:throw_bad_alloc.obj
 0002:00000438       ??_C@_0BC@EOODALEL@Unknown?5exception@ 000000018005a438     LIBCMT:throw_bad_alloc.obj
 0002:00000458       ??_7bad_alloc@std@@6B@     000000018005a458     LIBCMT:throw_bad_alloc.obj
 0002:00000468       ??_C@_0P@GHFPNOJB@bad?5allocation@ 000000018005a468     LIBCMT:throw_bad_alloc.obj
 0002:00000480       ??_7bad_array_new_length@std@@6B@ 000000018005a480     LIBCMT:throw_bad_alloc.obj
 0002:00000490       __xmm@ffffffffffffffffffffffffffffffff 000000018005a490     LIBCMT:utility.obj
 0002:000004a0       ??_C@_0BM@EEBBMCOD@invalid?5random_device?5value@ 000000018005a4a0     libcpmt:xrngdev.obj
 0002:000004c8       ??_7logic_error@std@@6B@   000000018005a4c8     libcpmt:xthrow.obj
 0002:000004e0       ??_7length_error@std@@6B@  000000018005a4e0     libcpmt:xthrow.obj
 0002:000004f8       ??_7out_of_range@std@@6B@  000000018005a4f8     libcpmt:xthrow.obj
 0002:00000510       ??_7runtime_error@std@@6B@ 000000018005a510     libcpmt:xthrow.obj
 0002:00000520       ??_C@_01NBENCBCI@?$CK@     000000018005a520     libcpmt:locale0.obj
 0002:00000528       ?_BADOFF@std@@3_JB         000000018005a528     libcpmt:ios.obj
 0002:00000c90       ??_C@_0BN@LKKBCCDB@address?5family?5not?5supported@ 000000018005ac90     libcpmt:syserror.obj
 0002:00000cb0       ??_C@_0P@LDMLAFHI@address?5in?5use@ 000000018005acb0     libcpmt:syserror.obj
 0002:00000cc0       ??_C@_0BG@DHPCNBJB@address?5not?5available@ 000000018005acc0     libcpmt:syserror.obj
 0002:00000cd8       ??_C@_0BC@DFIBIBIL@already?5connected@ 000000018005acd8     libcpmt:syserror.obj
 0002:00000cf0       ??_C@_0BH@CAKOHOMI@argument?5list?5too?5long@ 000000018005acf0     libcpmt:syserror.obj
 0002:00000d08       ??_C@_0BH@CGIMPKIM@argument?5out?5of?5domain@ 000000018005ad08     libcpmt:syserror.obj
 0002:00000d20       ??_C@_0M@KGHGGJGL@bad?5address@ 000000018005ad20     libcpmt:syserror.obj
 0002:00000d30       ??_C@_0BE@MPJPGCEO@bad?5file?5descriptor@ 000000018005ad30     libcpmt:syserror.obj
 0002:00000d48       ??_C@_0M@PMMIEFCP@bad?5message@ 000000018005ad48     libcpmt:syserror.obj
 0002:00000d58       ??_C@_0M@KPHOFDBE@broken?5pipe@ 000000018005ad58     libcpmt:syserror.obj
 0002:00000d68       ??_C@_0BD@MGNDDEGM@connection?5aborted@ 000000018005ad68     libcpmt:syserror.obj
 0002:00000d80       ??_C@_0BP@KAIHPOGN@connection?5already?5in?5progress@ 000000018005ad80     libcpmt:syserror.obj
 0002:00000da0       ??_C@_0BD@PJLIIJEL@connection?5refused@ 000000018005ada0     libcpmt:syserror.obj
 0002:00000db8       ??_C@_0BB@IECNJNOI@connection?5reset@ 000000018005adb8     libcpmt:syserror.obj
 0002:00000dd0       ??_C@_0BC@PPHBOELF@cross?5device?5link@ 000000018005add0     libcpmt:syserror.obj
 0002:00000de8       ??_C@_0BN@KDMIFEIP@destination?5address?5required@ 000000018005ade8     libcpmt:syserror.obj
 0002:00000e08       ??_C@_0BI@NGCEHDD@device?5or?5resource?5busy@ 000000018005ae08     libcpmt:syserror.obj
 0002:00000e20       ??_C@_0BE@JIDOCPHM@directory?5not?5empty@ 000000018005ae20     libcpmt:syserror.obj
 0002:00000e38       ??_C@_0BI@BNCLIGPB@executable?5format?5error@ 000000018005ae38     libcpmt:syserror.obj
 0002:00000e50       ??_C@_0M@MIDIAGJP@file?5exists@ 000000018005ae50     libcpmt:syserror.obj
 0002:00000e60       ??_C@_0P@DNAJLBJK@file?5too?5large@ 000000018005ae60     libcpmt:syserror.obj
 0002:00000e70       ??_C@_0BC@EJHOMAAK@filename?5too?5long@ 000000018005ae70     libcpmt:syserror.obj
 0002:00000e88       ??_C@_0BH@KEFGLDAF@function?5not?5supported@ 000000018005ae88     libcpmt:syserror.obj
 0002:00000ea0       ??_C@_0BB@DHFDFGDM@host?5unreachable@ 000000018005aea0     libcpmt:syserror.obj
 0002:00000eb8       ??_C@_0BD@JPHBMONG@identifier?5removed@ 000000018005aeb8     libcpmt:syserror.obj
 0002:00000ed0       ??_C@_0BG@CDNPAGJK@illegal?5byte?5sequence@ 000000018005aed0     libcpmt:syserror.obj
 0002:00000ee8       ??_C@_0CD@BNPLBMNA@inappropriate?5io?5control?5operat@ 000000018005aee8     libcpmt:syserror.obj
 0002:00000f10       ??_C@_0M@EGEKIIMP@interrupted@ 000000018005af10     libcpmt:syserror.obj
 0002:00000f20       ??_C@_0BB@FCMFBGOM@invalid?5argument@ 000000018005af20     libcpmt:syserror.obj
 0002:00000f38       ??_C@_0N@OHAFKDEK@invalid?5seek@ 000000018005af38     libcpmt:syserror.obj
 0002:00000f48       ??_C@_08GLNPIFBN@io?5error@ 000000018005af48     libcpmt:syserror.obj
 0002:00000f58       ??_C@_0P@FLLDBIDK@is?5a?5directory@ 000000018005af58     libcpmt:syserror.obj
 0002:00000f68       ??_C@_0N@IFLPBIOP@message?5size@ 000000018005af68     libcpmt:syserror.obj
 0002:00000f78       ??_C@_0N@KIIEAAIO@network?5down@ 000000018005af78     libcpmt:syserror.obj
 0002:00000f88       ??_C@_0O@FNPDBHEE@network?5reset@ 000000018005af88     libcpmt:syserror.obj
 0002:00000f98       ??_C@_0BE@IFNCKGE@network?5unreachable@ 000000018005af98     libcpmt:syserror.obj
 0002:00000fb0       ??_C@_0BA@PFFCAOFK@no?5buffer?5space@ 000000018005afb0     libcpmt:syserror.obj
 0002:00000fc0       ??_C@_0BB@IEPBLJHK@no?5child?5process@ 000000018005afc0     libcpmt:syserror.obj
 0002:00000fd8       ??_C@_07PLECNNKG@no?5link@ 000000018005afd8     libcpmt:syserror.obj
 0002:00000fe0       ??_C@_0BC@NJECKMKE@no?5lock?5available@ 000000018005afe0     libcpmt:syserror.obj
 0002:00000ff8       ??_C@_0BF@PBGGPKKE@no?5message?5available@ 000000018005aff8     libcpmt:syserror.obj
 0002:00001010       ??_C@_0L@EDOLMPAK@no?5message@ 000000018005b010     libcpmt:syserror.obj
 0002:00001020       ??_C@_0BD@EAMBFIDF@no?5protocol?5option@ 000000018005b020     libcpmt:syserror.obj
 0002:00001038       ??_C@_0BD@IJDJKDEA@no?5space?5on?5device@ 000000018005b038     libcpmt:syserror.obj
 0002:00001050       ??_C@_0BE@MKFDAFMP@no?5stream?5resources@ 000000018005b050     libcpmt:syserror.obj
 0002:00001068       ??_C@_0BK@IMCPHCBI@no?5such?5device?5or?5address@ 000000018005b068     libcpmt:syserror.obj
 0002:00001088       ??_C@_0P@FDINDDOK@no?5such?5device@ 000000018005b088     libcpmt:syserror.obj
 0002:00001098       ??_C@_0BK@NDOCBPGE@no?5such?5file?5or?5directory@ 000000018005b098     libcpmt:syserror.obj
 0002:000010b8       ??_C@_0BA@ENLPPKBN@no?5such?5process@ 000000018005b0b8     libcpmt:syserror.obj
 0002:000010c8       ??_C@_0BA@DOCPFFJG@not?5a?5directory@ 000000018005b0c8     libcpmt:syserror.obj
 0002:000010d8       ??_C@_0N@POEIPGGF@not?5a?5socket@ 000000018005b0d8     libcpmt:syserror.obj
 0002:000010e8       ??_C@_0N@LGAPMMPI@not?5a?5stream@ 000000018005b0e8     libcpmt:syserror.obj
 0002:000010f8       ??_C@_0O@GLMIBBEG@not?5connected@ 000000018005b0f8     libcpmt:syserror.obj
 0002:00001108       ??_C@_0BC@ENOOLCNF@not?5enough?5memory@ 000000018005b108     libcpmt:syserror.obj
 0002:00001120       ??_C@_0O@NHEDABJP@not?5supported@ 000000018005b120     libcpmt:syserror.obj
 0002:00001130       ??_C@_0BD@MOLBPMEA@operation?5canceled@ 000000018005b130     libcpmt:syserror.obj
 0002:00001148       ??_C@_0BG@KDKHOPCO@operation?5in?5progress@ 000000018005b148     libcpmt:syserror.obj
 0002:00001160       ??_C@_0BI@OHIEJAAB@operation?5not?5permitted@ 000000018005b160     libcpmt:syserror.obj
 0002:00001178       ??_C@_0BI@LNEGIFLN@operation?5not?5supported@ 000000018005b178     libcpmt:syserror.obj
 0002:00001190       ??_C@_0BG@OEMDKMEE@operation?5would?5block@ 000000018005b190     libcpmt:syserror.obj
 0002:000011a8       ??_C@_0L@BLPOFLNJ@owner?5dead@ 000000018005b1a8     libcpmt:syserror.obj
 0002:000011b8       ??_C@_0BC@CIJDGCDI@permission?5denied@ 000000018005b1b8     libcpmt:syserror.obj
 0002:000011d0       ??_C@_0P@FNPOCJBE@protocol?5error@ 000000018005b1d0     libcpmt:syserror.obj
 0002:000011e0       ??_C@_0BH@JPPPLHJB@protocol?5not?5supported@ 000000018005b1e0     libcpmt:syserror.obj
 0002:000011f8       ??_C@_0BG@EICBIHDP@read?5only?5file?5system@ 000000018005b1f8     libcpmt:syserror.obj
 0002:00001210       ??_C@_0BO@BJBOMOEJ@resource?5deadlock?5would?5occur@ 000000018005b210     libcpmt:syserror.obj
 0002:00001230       ??_C@_0BP@LKNGHENJ@resource?5unavailable?5try?5again@ 000000018005b230     libcpmt:syserror.obj
 0002:00001250       ??_C@_0BE@GOIPJJHG@result?5out?5of?5range@ 000000018005b250     libcpmt:syserror.obj
 0002:00001268       ??_C@_0BG@MPLKFPAE@state?5not?5recoverable@ 000000018005b268     libcpmt:syserror.obj
 0002:00001280       ??_C@_0P@DIIFGFCG@stream?5timeout@ 000000018005b280     libcpmt:syserror.obj
 0002:00001290       ??_C@_0P@IPFDMIFL@text?5file?5busy@ 000000018005b290     libcpmt:syserror.obj
 0002:000012a0       ??_C@_09KJPPMAOI@timed?5out@ 000000018005b2a0     libcpmt:syserror.obj
 0002:000012b0       ??_C@_0BO@HACHBEKI@too?5many?5files?5open?5in?5system@ 000000018005b2b0     libcpmt:syserror.obj
 0002:000012d0       ??_C@_0BE@GHAFMPAH@too?5many?5files?5open@ 000000018005b2d0     libcpmt:syserror.obj
 0002:000012e8       ??_C@_0P@HCOMKFCC@too?5many?5links@ 000000018005b2e8     libcpmt:syserror.obj
 0002:000012f8       ??_C@_0BO@EFGOJEF@too?5many?5symbolic?5link?5levels@ 000000018005b2f8     libcpmt:syserror.obj
 0002:00001318       ??_C@_0BA@KGKGOOJA@value?5too?5large@ 000000018005b318     libcpmt:syserror.obj
 0002:00001328       ??_C@_0BE@MIEJDDNH@wrong?5protocol?5type@ 000000018005b328     libcpmt:syserror.obj
 0002:00001440       ??_C@_11LOCGONAA@@         000000018005b440     libcpmt:wlocale.obj
 0002:00001444       ??_C@_01JOAMLHOP@?9@       000000018005b444     libcpmt:wlocale.obj
 0002:000014e8       ?s_negLengthTab@FH4@@3QBCB 000000018005b4e8     libvcruntime:risctrnsctrl.obj
 0002:000014f8       ?s_shiftTab@FH4@@3QBEB     000000018005b4f8     libvcruntime:risctrnsctrl.obj
 0002:000015a8       _pDestructExceptionObject  000000018005b5a8     libvcruntime:ehhelpers.obj
 0002:000015b8       ??_7bad_exception@std@@6B@ 000000018005b5b8     libvcruntime:frame.obj
 0002:000015c8       ??_C@_0O@DPKOEFFH@bad?5exception@ 000000018005b5c8     libvcruntime:frame.obj
 0002:00001ce0       ??_C@_08EHJDFFNH@__based?$CI@ 000000018005bce0     libvcruntime:undname.obj
 0002:00001cf0       ??_C@_07KOLFKCDI@__cdecl@  000000018005bcf0     libvcruntime:undname.obj
 0002:00001cf8       ??_C@_08GHMPAG@__pascal@   000000018005bcf8     libvcruntime:undname.obj
 0002:00001d08       ??_C@_09IFJBGAPI@__stdcall@ 000000018005bd08     libvcruntime:undname.obj
 0002:00001d18       ??_C@_0L@NPHFGOKO@__thiscall@ 000000018005bd18     libvcruntime:undname.obj
 0002:00001d28       ??_C@_0L@JMKHOMEK@__fastcall@ 000000018005bd28     libvcruntime:undname.obj
 0002:00001d38       ??_C@_0N@BCKKPABJ@__vectorcall@ 000000018005bd38     libvcruntime:undname.obj
 0002:00001d48       ??_C@_09HIJEGCPM@__clrcall@ 000000018005bd48     libvcruntime:undname.obj
 0002:00001d54       ??_C@_06GHPCKEAG@__eabi@   000000018005bd54     libvcruntime:undname.obj
 0002:00001d60       ??_C@_09IOPIDJLG@__swift_1@ 000000018005bd60     libvcruntime:undname.obj
 0002:00001d70       ??_C@_09KFNFGKHF@__swift_2@ 000000018005bd70     libvcruntime:undname.obj
 0002:00001d80       ??_C@_07JOMMBBKO@__ptr64@  000000018005bd80     libvcruntime:undname.obj
 0002:00001d88       ??_C@_0L@PILCLIHE@__restrict@ 000000018005bd88     libvcruntime:undname.obj
 0002:00001d98       ??_C@_0M@GFIIJFMG@__unaligned@ 000000018005bd98     libvcruntime:undname.obj
 0002:00001da8       ??_C@_09DHDLOLLB@restrict?$CI@ 000000018005bda8     libvcruntime:undname.obj
 0002:00001db4       ??_C@_04NIHEBCM@?5new@     000000018005bdb4     libvcruntime:undname.obj
 0002:00001dc0       ??_C@_07FPCDHGMM@?5delete@ 000000018005bdc0     libvcruntime:undname.obj
 0002:00001dc8       ??_C@_01NEMOKFLO@?$DN@     000000018005bdc8     libvcruntime:undname.obj
 0002:00001dcc       ??_C@_02GPIOPFAK@?$DO?$DO@ 000000018005bdcc     libvcruntime:undname.obj
 0002:00001dd0       ??_C@_02FODMEDOG@?$DM?$DM@ 000000018005bdd0     libvcruntime:undname.obj
 0002:00001dd4       ??_C@_01DCLJPIOD@?$CB@     000000018005bdd4     libvcruntime:undname.obj
 0002:00001dd8       ??_C@_02EGOFBIJA@?$DN?$DN@ 000000018005bdd8     libvcruntime:undname.obj
 0002:00001ddc       ??_C@_02FDNJECIE@?$CB?$DN@ 000000018005bddc     libvcruntime:undname.obj
 0002:00001de0       ??_C@_02GPECMEKF@?$FL?$FN@ 000000018005bde0     libvcruntime:undname.obj
 0002:00001de8       ??_C@_08LHJFAFGD@operator@ 000000018005bde8     libvcruntime:undname.obj
 0002:00001df4       ??_C@_02HBOOOICD@?9?$DO@   000000018005bdf4     libvcruntime:undname.obj
 0002:00001df8       ??_C@_02ECNGHCIF@?$CL?$CL@ 000000018005bdf8     libvcruntime:undname.obj
 0002:00001dfc       ??_C@_02BAABKJLB@?9?9@     000000018005bdfc     libvcruntime:undname.obj
 0002:00001e00       ??_C@_01MIFGBAGJ@?$CL@     000000018005be00     libvcruntime:undname.obj
 0002:00001e04       ??_C@_01HNPIGOCE@?$CG@     000000018005be04     libvcruntime:undname.obj
 0002:00001e08       ??_C@_03MNHNFDLC@?9?$DO?$CK@ 000000018005be08     libvcruntime:undname.obj
 0002:00001e0c       ??_C@_01KMDKNFGN@?1@       000000018005be0c     libvcruntime:undname.obj
 0002:00001e10       ??_C@_01FGNFDNOH@?$CF@     000000018005be10     libvcruntime:undname.obj
 0002:00001e14       ??_C@_01MNNFJEPP@?$DM@     000000018005be14     libvcruntime:undname.obj
 0002:00001e18       ??_C@_02EHCHHCKH@?$DM?$DN@ 000000018005be18     libvcruntime:undname.obj
 0002:00001e1c       ??_C@_01PPODPGHN@?$DO@     000000018005be1c     libvcruntime:undname.obj
 0002:00001e20       ??_C@_02EEKDKGMJ@?$DO?$DN@ 000000018005be20     libvcruntime:undname.obj
 0002:00001e24       ??_C@_01IHBHIGKO@?0@       000000018005be24     libvcruntime:undname.obj
 0002:00001e28       ??_C@_02HCKGKOFO@?$CI?$CJ@ 000000018005be28     libvcruntime:undname.obj
 0002:00001e2c       ??_C@_01PJKLJHI@?$HO@      000000018005be2c     libvcruntime:undname.obj
 0002:00001e30       ??_C@_01JKBOJNNK@?$FO@     000000018005be30     libvcruntime:undname.obj
 0002:00001e34       ??_C@_01DNKMNLPK@?$HM@     000000018005be34     libvcruntime:undname.obj
 0002:00001e38       ??_C@_02PPKAJPJL@?$CG?$CG@ 000000018005be38     libvcruntime:undname.obj
 0002:00001e3c       ??_C@_02NONPIBCD@?$HM?$HM@ 000000018005be3c     libvcruntime:undname.obj
 0002:00001e40       ??_C@_02FPIMKNGF@?$CK?$DN@ 000000018005be40     libvcruntime:undname.obj
 0002:00001e44       ??_C@_02FOEOMHFC@?$CL?$DN@ 000000018005be44     libvcruntime:undname.obj
 0002:00001e48       ??_C@_02FKMDLLOA@?9?$DN@   000000018005be48     libvcruntime:undname.obj
 0002:00001e4c       ??_C@_02FJEHGPIO@?1?$DN@   000000018005be4c     libvcruntime:undname.obj
 0002:00001e50       ??_C@_02FENAOKFI@?$CF?$DN@ 000000018005be50     libvcruntime:undname.obj
 0002:00001e54       ??_C@_03IKFCCPFF@?$DO?$DO?$DN@ 000000018005be54     libvcruntime:undname.obj
 0002:00001e58       ??_C@_03CDNPDDLA@?$DM?$DM?$DN@ 000000018005be58     libvcruntime:undname.obj
 0002:00001e5c       ??_C@_02FGJGFEAB@?$CG?$DN@ 000000018005be5c     libvcruntime:undname.obj
 0002:00001e60       ??_C@_02DHLNPPGH@?$HM?$DN@ 000000018005be60     libvcruntime:undname.obj
 0002:00001e64       ??_C@_02MHEGNOJ@?$FO?$DN@  000000018005be64     libvcruntime:undname.obj
 0002:00001e68       ??_C@_09IFPLHPGF@?$GAvftable?8@ 000000018005be68     libvcruntime:undname.obj
 0002:00001e78       ??_C@_09BLBHBJP@?$GAvbtable?8@ 000000018005be78     libvcruntime:undname.obj
 0002:00001e88       ??_C@_07FEEIOKP@?$GAvcall?8@ 000000018005be88     libvcruntime:undname.obj
 0002:00001e90       ??_C@_08LLFFHHDJ@?$GAtypeof?8@ 000000018005be90     libvcruntime:undname.obj
 0002:00001ea0       ??_C@_0BF@KDPPACIK@?$GAlocal?5static?5guard?8@ 000000018005bea0     libvcruntime:undname.obj
 0002:00001eb8       ??_C@_08OBABFOLI@?$GAstring?8@ 000000018005beb8     libvcruntime:undname.obj
 0002:00001ec8       ??_C@_0BD@JDLKDPAB@?$GAvbase?5destructor?8@ 000000018005bec8     libvcruntime:undname.obj
 0002:00001ee0       ??_C@_0BN@DEGPLNFK@?$GAvector?5deleting?5destructor?8@ 000000018005bee0     libvcruntime:undname.obj
 0002:00001f00       ??_C@_0BO@OBMKPJIG@?$GAdefault?5constructor?5closure?8@ 000000018005bf00     libvcruntime:undname.obj
 0002:00001f20       ??_C@_0BN@IMDCHIKM@?$GAscalar?5deleting?5destructor?8@ 000000018005bf20     libvcruntime:undname.obj
 0002:00001f40       ??_C@_0BO@PFGOCPJJ@?$GAvector?5constructor?5iterator?8@ 000000018005bf40     libvcruntime:undname.obj
 0002:00001f60       ??_C@_0BN@LFPFMEDL@?$GAvector?5destructor?5iterator?8@ 000000018005bf60     libvcruntime:undname.obj
 0002:00001f80       ??_C@_0CE@IKBNEHA@?$GAvector?5vbase?5constructor?5itera@ 000000018005bf80     libvcruntime:undname.obj
 0002:00001fa8       ??_C@_0BL@NILFHHPC@?$GAvirtual?5displacement?5map?8@ 000000018005bfa8     libvcruntime:undname.obj
 0002:00001fc8       ??_C@_0CB@JONCMFFK@?$GAeh?5vector?5constructor?5iterator@ 000000018005bfc8     libvcruntime:undname.obj
 0002:00001ff0       ??_C@_0CA@GCEOPDGL@?$GAeh?5vector?5destructor?5iterator?8@ 000000018005bff0     libvcruntime:undname.obj
 0002:00002010       ??_C@_0CH@OOJPLCPH@?$GAeh?5vector?5vbase?5constructor?5it@ 000000018005c010     libvcruntime:undname.obj
 0002:00002038       ??_C@_0BL@LLKPOHJI@?$GAcopy?5constructor?5closure?8@ 000000018005c038     libvcruntime:undname.obj
 0002:00002058       ??_C@_0BA@KBCDOMBN@?$GAudt?5returning?8@ 000000018005c058     libvcruntime:undname.obj
 0002:00002068       ??_C@_03KLGMFNMG@?$GAEH@   000000018005c068     libvcruntime:undname.obj
 0002:0000206c       ??_C@_05KHLCHHI@?$GARTTI@  000000018005c06c     libvcruntime:undname.obj
 0002:00002078       ??_C@_0BA@KKLDJDLB@?$GAlocal?5vftable?8@ 000000018005c078     libvcruntime:undname.obj
 0002:00002088       ??_C@_0CE@IIHCMGGL@?$GAlocal?5vftable?5constructor?5clos@ 000000018005c088     libvcruntime:undname.obj
 0002:000020ac       ??_C@_06FHBGPFGH@?5new?$FL?$FN@ 000000018005c0ac     libvcruntime:undname.obj
 0002:000020b8       ??_C@_09LBNFPBCA@?5delete?$FL?$FN@ 000000018005c0b8     libvcruntime:undname.obj
 0002:000020c8       ??_C@_0P@HJKNJFNN@?$GAomni?5callsig?8@ 000000018005c0c8     libvcruntime:undname.obj
 0002:000020d8       ??_C@_0BL@CNOONJFP@?$GAplacement?5delete?5closure?8@ 000000018005c0d8     libvcruntime:undname.obj
 0002:000020f8       ??_C@_0BN@CKNJLHMB@?$GAplacement?5delete?$FL?$FN?5closure?8@ 000000018005c0f8     libvcruntime:undname.obj
 0002:00002118       ??_C@_0CG@CFDHKGGD@?$GAmanaged?5vector?5constructor?5ite@ 000000018005c118     libvcruntime:undname.obj
 0002:00002140       ??_C@_0CF@IMGKMJNO@?$GAmanaged?5vector?5destructor?5iter@ 000000018005c140     libvcruntime:undname.obj
 0002:00002168       ??_C@_0CG@HLDDJMAG@?$GAeh?5vector?5copy?5constructor?5ite@ 000000018005c168     libvcruntime:undname.obj
 0002:00002190       ??_C@_0CM@FCBBDIGB@?$GAeh?5vector?5vbase?5copy?5construct@ 000000018005c190     libvcruntime:undname.obj
 0002:000021c0       ??_C@_0BL@CLIPGLGB@?$GAdynamic?5initializer?5for?5?8@ 000000018005c1c0     libvcruntime:undname.obj
 0002:000021e0       ??_C@_0CB@PDBIFEP@?$GAdynamic?5atexit?5destructor?5for?5@ 000000018005c1e0     libvcruntime:undname.obj
 0002:00002208       ??_C@_0CD@CGAJBKEJ@?$GAvector?5copy?5constructor?5iterat@ 000000018005c208     libvcruntime:undname.obj
 0002:00002230       ??_C@_0CJ@GJELGAMM@?$GAvector?5vbase?5copy?5constructor?5@ 000000018005c230     libvcruntime:undname.obj
 0002:00002260       ??_C@_0CL@FGIJHLCE@?$GAmanaged?5vector?5copy?5constructo@ 000000018005c260     libvcruntime:undname.obj
 0002:00002290       ??_C@_0BM@PMGGMLDN@?$GAlocal?5static?5thread?5guard?8@ 000000018005c290     libvcruntime:undname.obj
 0002:000022b0       ??_C@_0N@BDNMDMOL@operator?5?$CC?$CC?5@ 000000018005c2b0     libvcruntime:undname.obj
 0002:000022c0       ??_C@_0BC@GGEBGALA@operator?5co_await@ 000000018005c2c0     libvcruntime:undname.obj
 0002:000022d8       ??_C@_0M@GAAIMMOH@operator?$DM?$DN?$DO@ 000000018005c2d8     libvcruntime:undname.obj
 0002:000022e8       ??_C@_0BC@DAFEJGAK@?5Type?5Descriptor?8@ 000000018005c2e8     libvcruntime:undname.obj
 0002:00002300       ??_C@_0BM@LDKODKLH@?5Base?5Class?5Descriptor?5at?5?$CI@ 000000018005c300     libvcruntime:undname.obj
 0002:00002320       ??_C@_0BD@LGICGFMM@?5Base?5Class?5Array?8@ 000000018005c320     libvcruntime:undname.obj
 0002:00002338       ??_C@_0BN@MECKDCOJ@?5Class?5Hierarchy?5Descriptor?8@ 000000018005c338     libvcruntime:undname.obj
 0002:00002358       ??_C@_0BK@CFCOFLF@?5Complete?5Object?5Locator?8@ 000000018005c358     libvcruntime:undname.obj
 0002:00002378       ??_C@_0BG@JNJLAMPM@?$GAanonymous?5namespace?8@ 000000018005c378     libvcruntime:undname.obj
 0002:000023a8       ??_C@_1DM@KHCHBNEB@?$AAa?$AAp?$AAi?$AA?9?$AAm?$AAs?$AA?9?$AAw?$AAi?$AAn?$AA?9?$AAc?$AAo?$AAr?$AAe@ 000000018005c3a8     libvcruntime:winapi_downlevel.obj
 0002:000023e8       ??_C@_1DK@LPPGFMPP@?$AAa?$AAp?$AAi?$AA?9?$AAm?$AAs?$AA?9?$AAw?$AAi?$AAn?$AA?9?$AAc?$AAo?$AAr?$AAe@ 000000018005c3e8     libvcruntime:winapi_downlevel.obj
 0002:00002428       ??_C@_1BC@GDMECMAK@?$AAk?$AAe?$AAr?$AAn?$AAe?$AAl?$AA3?$AA2@ 000000018005c428     libvcruntime:winapi_downlevel.obj
 0002:00002440       ??_C@_1BA@PFFKHIOG@?$AAa?$AAp?$AAi?$AA?9?$AAm?$AAs?$AA?9@ 000000018005c440     libvcruntime:winapi_downlevel.obj
 0002:00002458       ??_C@_08KNHFBNJ@FlsAlloc@  000000018005c458     libvcruntime:winapi_downlevel.obj
 0002:00002470       ??_C@_07PEJMOBNF@FlsFree@  000000018005c470     libvcruntime:winapi_downlevel.obj
 0002:00002480       ??_C@_0M@GDNOONDI@FlsGetValue@ 000000018005c480     libvcruntime:winapi_downlevel.obj
 0002:00002498       ??_C@_0M@JCPCPOEF@FlsSetValue@ 000000018005c498     libvcruntime:winapi_downlevel.obj
 0002:000024b0       ??_C@_0BM@HCFOFFN@InitializeCriticalSectionEx@ 000000018005c4b0     libvcruntime:winapi_downlevel.obj
 0002:000024d0       ?standard_lookup_table_spectre@__crt_stdio_output@@3V?$spectre_mitigated_lookup_table@Ustate_transition_pair@__crt_stdio_output@@$0IA@@1@B 000000018005c4d0     libucrt:output.obj
 0002:000028d0       ??_C@_1O@CEDCILHN@?$AA?$CI?$AAn?$AAu?$AAl?$AAl?$AA?$CJ@ 000000018005c8d0     libucrt:output.obj
 0002:000028e0       ??_C@_06OJHGLDPL@?$CInull?$CJ@ 000000018005c8e0     libucrt:output.obj
 0002:000028e8       __real@3ff0000000000000    000000018005c8e8     libucrt:frexp.obj
 0002:000028f0       ?large_power_data@?1??multiply_by_power_of_ten@__crt_strtox@@YA_NAEAUbig_integer@2@I@Z@4QBIB 000000018005c8f0     libucrt:input.obj
 0002:00003200       ?large_power_indices@?1??multiply_by_power_of_ten@__crt_strtox@@YA_NAEAUbig_integer@2@I@Z@4QBUunpack_index@?1??12@YA_N0I@Z@B 000000018005d200     libucrt:input.obj
 0002:00003298       ?small_powers_of_ten@?1??multiply_by_power_of_ten@__crt_strtox@@YA_NAEAUbig_integer@2@I@Z@4QBIB 000000018005d298     libucrt:input.obj
 0002:000032c0       __acrt_exception_action_table 000000018005d2c0     libucrt:exception_filter.obj
 0002:00003380       __acrt_signal_action_table_count 000000018005d380     libucrt:exception_filter.obj
 0002:00003388       __acrt_signal_action_first_fpe_index 000000018005d388     libucrt:exception_filter.obj
 0002:00003390       __acrt_signal_action_fpe_count 000000018005d390     libucrt:exception_filter.obj
 0002:00003398       ??_C@_1BI@BGOHAHKC@?$AAm?$AAs?$AAc?$AAo?$AAr?$AAe?$AAe?$AA?4?$AAd?$AAl?$AAl@ 000000018005d398     libucrt:exit.obj
 0002:000033b0       ??_C@_0P@MIGLKIOC@CorExitProcess@ 000000018005d3b0     libucrt:exit.obj
 0002:000034c0       __newctype                 000000018005d4c0     libucrt:ctype.obj
 0002:000037c0       __newclmap                 000000018005d7c0     libucrt:ctype.obj
 0002:00003940       __newcumap                 000000018005d940     libucrt:ctype.obj
 0002:00003ac0       _wctype                    000000018005dac0     libucrt:ctype.obj
 0002:00005b90       ??_C@_1EA@JGEFHKEI@?$AAa?$AAp?$AAi?$AA?9?$AAm?$AAs?$AA?9?$AAw?$AAi?$AAn?$AA?9?$AAc?$AAo?$AAr?$AAe@ 000000018005fb90     libucrt:winapi_thunks.obj
 0002:00005bd0       ??_C@_1DI@IJCEHOCB@?$AAa?$AAp?$AAi?$AA?9?$AAm?$AAs?$AA?9?$AAw?$AAi?$AAn?$AA?9?$AAc?$AAo?$AAr?$AAe@ 000000018005fbd0     libucrt:winapi_thunks.obj
 0002:00005c10       ??_C@_1EI@MPIAOHOC@?$AAa?$AAp?$AAi?$AA?9?$AAm?$AAs?$AA?9?$AAw?$AAi?$AAn?$AA?9?$AAc?$AAo?$AAr?$AAe@ 000000018005fc10     libucrt:winapi_thunks.obj
 0002:00005c60       ??_C@_1FK@FPHCKFIE@?$AAa?$AAp?$AAi?$AA?9?$AAm?$AAs?$AA?9?$AAw?$AAi?$AAn?$AA?9?$AAc?$AAo?$AAr?$AAe@ 000000018005fc60     libucrt:winapi_thunks.obj
 0002:00005cc0       ??_C@_1EM@DILCGIIO@?$AAa?$AAp?$AAi?$AA?9?$AAm?$AAs?$AA?9?$AAw?$AAi?$AAn?$AA?9?$AAc?$AAo?$AAr?$AAe@ 000000018005fcc0     libucrt:winapi_thunks.obj
 0002:00005d10       ??_C@_1DM@LNCGDDPN@?$AAa?$AAp?$AAi?$AA?9?$AAm?$AAs?$AA?9?$AAw?$AAi?$AAn?$AA?9?$AAc?$AAo?$AAr?$AAe@ 000000018005fd10     libucrt:winapi_thunks.obj
 0002:00005d50       ??_C@_1DO@FPAPJEMD@?$AAa?$AAp?$AAi?$AA?9?$AAm?$AAs?$AA?9?$AAw?$AAi?$AAn?$AA?9?$AAc?$AAo?$AAr?$AAe@ 000000018005fd50     libucrt:winapi_thunks.obj
 0002:00005d90       ??_C@_1DK@NDHNAHIO@?$AAa?$AAp?$AAi?$AA?9?$AAm?$AAs?$AA?9?$AAw?$AAi?$AAn?$AA?9?$AAc?$AAo?$AAr?$AAe@ 000000018005fd90     libucrt:winapi_thunks.obj
 0002:00005dd0       ??_C@_1DM@KGHDGBCM@?$AAa?$AAp?$AAi?$AA?9?$AAm?$AAs?$AA?9?$AAw?$AAi?$AAn?$AA?9?$AAc?$AAo?$AAr?$AAe@ 000000018005fdd0     libucrt:winapi_thunks.obj
 0002:00005e10       ??_C@_1EO@IJIOEFOH@?$AAa?$AAp?$AAi?$AA?9?$AAm?$AAs?$AA?9?$AAw?$AAi?$AAn?$AA?9?$AAr?$AAt?$AAc?$AAo@ 000000018005fe10     libucrt:winapi_thunks.obj
 0002:00005e60       ??_C@_1FG@HHGEKANL@?$AAa?$AAp?$AAi?$AA?9?$AAm?$AAs?$AA?9?$AAw?$AAi?$AAn?$AA?9?$AAs?$AAe?$AAc?$AAu@ 000000018005fe60     libucrt:winapi_thunks.obj
 0002:00005ec0       ??_C@_1EG@DBIOJECG@?$AAe?$AAx?$AAt?$AA?9?$AAm?$AAs?$AA?9?$AAw?$AAi?$AAn?$AA?9?$AAn?$AAt?$AAu?$AAs@ 000000018005fec0     libucrt:winapi_thunks.obj
 0002:00005f10       ??_C@_1EO@FIHMJCLF@?$AAe?$AAx?$AAt?$AA?9?$AAm?$AAs?$AA?9?$AAw?$AAi?$AAn?$AA?9?$AAn?$AAt?$AAu?$AAs@ 000000018005ff10     libucrt:winapi_thunks.obj
 0002:00005f60       ??_C@_1BC@DNHGCMLG@?$AAa?$AAd?$AAv?$AAa?$AAp?$AAi?$AA3?$AA2@ 000000018005ff60     libucrt:winapi_thunks.obj
 0002:00005f78       ??_C@_1M@OAIMIKLP@?$AAn?$AAt?$AAd?$AAl?$AAl@ 000000018005ff78     libucrt:winapi_thunks.obj
 0002:00005f90       ??_C@_1EG@DPGNFKGC@?$AAa?$AAp?$AAi?$AA?9?$AAm?$AAs?$AA?9?$AAw?$AAi?$AAn?$AA?9?$AAa?$AAp?$AAp?$AAm@ 000000018005ff90     libucrt:winapi_thunks.obj
 0002:00005fd8       ??_C@_1O@BCCLBEOE@?$AAu?$AAs?$AAe?$AAr?$AA3?$AA2@ 000000018005ffd8     libucrt:winapi_thunks.obj
 0002:00005fe8       ??_C@_1BA@IAIFMGEF@?$AAe?$AAx?$AAt?$AA?9?$AAm?$AAs?$AA?9@ 000000018005ffe8     libucrt:winapi_thunks.obj
 0002:00006000       ??_C@_0BA@FHFNEAED@AreFileApisANSI@ 0000000180060000     libucrt:winapi_thunks.obj
 0002:00006018       ??_C@_0BA@IHGNDAEB@CompareStringEx@ 0000000180060018     libucrt:winapi_thunks.obj
 0002:00006050       ??_C@_0BP@FPNJPEJC@GetSystemTimePreciseAsFileTime@ 0000000180060050     libucrt:winapi_thunks.obj
 0002:00006080       ??_C@_0O@KKBNKAPF@LCMapStringEx@ 0000000180060080     libucrt:winapi_thunks.obj
 0002:00006098       ??_C@_0BB@HBDEELFH@LocaleNameToLCID@ 0000000180060098     libucrt:winapi_thunks.obj
 0002:000060b0       ??_C@_0N@PPOMPGGK@RoInitialize@ 00000001800600b0     libucrt:winapi_thunks.obj
 0002:000060c8       ??_C@_0P@LLFHBIJD@RoUninitialize@ 00000001800600c8     libucrt:winapi_thunks.obj
 0002:000060e0       ??_C@_0CF@OJOFEIGO@AppPolicyGetProcessTerminationM@ 00000001800600e0     libucrt:winapi_thunks.obj
 0002:00006110       ??_C@_0CF@NNDFDCOC@AppPolicyGetThreadInitializatio@ 0000000180060110     libucrt:winapi_thunks.obj
 0002:00006140       ??_C@_0BC@JEAENNKH@SystemFunction036@ 0000000180060140     libucrt:winapi_thunks.obj
 0002:00006154       ??_C@_15HNJCPLHL@?$AAT?$AAZ@ 0000000180060154     libucrt:tzset.obj
 0002:00006160       _days                      0000000180060160     libucrt:days.obj
 0002:00006198       _lpdays                    0000000180060198     libucrt:days.obj
 0002:00006250       ??_C@_03OEIAHPBN@INF@      0000000180060250     libucrt:cvt.obj
 0002:00006254       ??_C@_03OJHLLCGB@inf@      0000000180060254     libucrt:cvt.obj
 0002:00006258       ??_C@_03LKNCIKJB@NAN@      0000000180060258     libucrt:cvt.obj
 0002:0000625c       ??_C@_03LHCJEHON@nan@      000000018006025c     libucrt:cvt.obj
 0002:00006260       ??_C@_09OFJJIMPC@NAN?$CISNAN?$CJ@ 0000000180060260     libucrt:cvt.obj
 0002:00006270       ??_C@_09IPFBKMDL@nan?$CIsnan?$CJ@ 0000000180060270     libucrt:cvt.obj
 0002:00006280       ??_C@_08IKHNHAJ@NAN?$CIIND?$CJ@ 0000000180060280     libucrt:cvt.obj
 0002:00006290       ??_C@_08OFCDMILK@nan?$CIind?$CJ@ 0000000180060290     libucrt:cvt.obj
 0002:0000629c       ??_C@_05KLBDPFGC@e?$CL000@ 000000018006029c     libucrt:cvt.obj
 0002:000062b0       __lc_time_c                00000001800602b0     libucrt:nlsdata.obj
 0002:00006570       ??_C@_03KOEHGMDN@Sun@      0000000180060570     libucrt:nlsdata.obj
 0002:00006574       ??_C@_03PDAGKDH@Mon@       0000000180060574     libucrt:nlsdata.obj
 0002:00006578       ??_C@_03NAGEINEP@Tue@      0000000180060578     libucrt:nlsdata.obj
 0002:0000657c       ??_C@_03MHOMLAJA@Wed@      000000018006057c     libucrt:nlsdata.obj
 0002:00006580       ??_C@_03IOFIKPDN@Thu@      0000000180060580     libucrt:nlsdata.obj
 0002:00006584       ??_C@_03IDIOELNC@Fri@      0000000180060584     libucrt:nlsdata.obj
 0002:00006588       ??_C@_03FEFJNEK@Sat@       0000000180060588     libucrt:nlsdata.obj
 0002:0000658c       ??_C@_06OOPIFAJ@Sunday@    000000018006058c     libucrt:nlsdata.obj
 0002:00006594       ??_C@_06JLEDEDGH@Monday@   0000000180060594     libucrt:nlsdata.obj
 0002:000065a0       ??_C@_07BAAGCFCM@Tuesday@  00000001800605a0     libucrt:nlsdata.obj
 0002:000065a8       ??_C@_09DLIGFAKA@Wednesday@ 00000001800605a8     libucrt:nlsdata.obj
 0002:000065b8       ??_C@_08HACCIKIA@Thursday@ 00000001800605b8     libucrt:nlsdata.obj
 0002:000065c4       ??_C@_06JECMNKMI@Friday@   00000001800605c4     libucrt:nlsdata.obj
 0002:000065d0       ??_C@_08INBOOONO@Saturday@ 00000001800605d0     libucrt:nlsdata.obj
 0002:000065dc       ??_C@_03JIHJHPIE@Jan@      00000001800605dc     libucrt:nlsdata.obj
 0002:000065e0       ??_C@_03HJBDCHOM@Feb@      00000001800605e0     libucrt:nlsdata.obj
 0002:000065e4       ??_C@_03ODNJBKGA@Mar@      00000001800605e4     libucrt:nlsdata.obj
 0002:000065e8       ??_C@_03LEOLGMJP@Apr@      00000001800605e8     libucrt:nlsdata.obj
 0002:000065ec       ??_C@_03CNMDKL@May@        00000001800605ec     libucrt:nlsdata.obj
 0002:000065f0       ??_C@_03IDFGHECI@Jun@      00000001800605f0     libucrt:nlsdata.obj
 0002:000065f4       ??_C@_03LBGABGKK@Jul@      00000001800605f4     libucrt:nlsdata.obj
 0002:000065f8       ??_C@_03IFJFEIGA@Aug@      00000001800605f8     libucrt:nlsdata.obj
 0002:000065fc       ??_C@_03GGCAPAJC@Sep@      00000001800605fc     libucrt:nlsdata.obj
 0002:00006600       ??_C@_03BMAOKBAD@Oct@      0000000180060600     libucrt:nlsdata.obj
 0002:00006604       ??_C@_03JPJOFNIA@Nov@      0000000180060604     libucrt:nlsdata.obj
 0002:00006608       ??_C@_03MKABNOCG@Dec@      0000000180060608     libucrt:nlsdata.obj
 0002:00006610       ??_C@_07CGJPFGJA@January@  0000000180060610     libucrt:nlsdata.obj
 0002:00006618       ??_C@_08GNJGEPFN@February@ 0000000180060618     libucrt:nlsdata.obj
 0002:00006624       ??_C@_05HPCKOFNC@March@    0000000180060624     libucrt:nlsdata.obj
 0002:0000662c       ??_C@_05DMJDNLEJ@April@    000000018006062c     libucrt:nlsdata.obj
 0002:00006634       ??_C@_04CNLMGBGM@June@     0000000180060634     libucrt:nlsdata.obj
 0002:0000663c       ??_C@_04MIEPOIFP@July@     000000018006063c     libucrt:nlsdata.obj
 0002:00006644       ??_C@_06LBBHFDDG@August@   0000000180060644     libucrt:nlsdata.obj
 0002:00006650       ??_C@_09BHHEALKD@September@ 0000000180060650     libucrt:nlsdata.obj
 0002:00006660       ??_C@_07JJNFCEND@October@  0000000180060660     libucrt:nlsdata.obj
 0002:00006668       ??_C@_08HCHEGEOA@November@ 0000000180060668     libucrt:nlsdata.obj
 0002:00006678       ??_C@_08EDHMEBNP@December@ 0000000180060678     libucrt:nlsdata.obj
 0002:00006684       ??_C@_02DEDBPAFC@AM@       0000000180060684     libucrt:nlsdata.obj
 0002:00006688       ??_C@_02CJNFDJBF@PM@       0000000180060688     libucrt:nlsdata.obj
 0002:00006690       ??_C@_08BPBNCDIB@MM?1dd?1yy@ 0000000180060690     libucrt:nlsdata.obj
 0002:000066a0       ??_C@_0BE@CKGJFCPC@dddd?0?5MMMM?5dd?0?5yyyy@ 00000001800606a0     libucrt:nlsdata.obj
 0002:000066b8       ??_C@_08JCCMCCIL@HH?3mm?3ss@ 00000001800606b8     libucrt:nlsdata.obj
 0002:000066c8       ??_C@_17MBGCMIPB@?$AAS?$AAu?$AAn@ 00000001800606c8     libucrt:nlsdata.obj
 0002:000066d0       ??_C@_17KBOMKBF@?$AAM?$AAo?$AAn@ 00000001800606d0     libucrt:nlsdata.obj
 0002:000066d8       ??_C@_17BMKGEGOJ@?$AAT?$AAu?$AAe@ 00000001800606d8     libucrt:nlsdata.obj
 0002:000066e0       ??_C@_17CJEDCEPE@?$AAW?$AAe?$AAd@ 00000001800606e0     libucrt:nlsdata.obj
 0002:000066e8       ??_C@_17PDPHAADD@?$AAT?$AAh?$AAu@ 00000001800606e8     libucrt:nlsdata.obj
 0002:000066f0       ??_C@_17HFOLPPLP@?$AAF?$AAr?$AAi@ 00000001800606f0     libucrt:nlsdata.obj
 0002:000066f8       ??_C@_17GGIBDPIH@?$AAS?$AAa?$AAt@ 00000001800606f8     libucrt:nlsdata.obj
 0002:00006700       ??_C@_1O@IHNHDHPB@?$AAS?$AAu?$AAn?$AAd?$AAa?$AAy@ 0000000180060700     libucrt:nlsdata.obj
 0002:00006710       ??_C@_1O@MMNBFLIA@?$AAM?$AAo?$AAn?$AAd?$AAa?$AAy@ 0000000180060710     libucrt:nlsdata.obj
 0002:00006720       ??_C@_1BA@ENFBFFEK@?$AAT?$AAu?$AAe?$AAs?$AAd?$AAa?$AAy@ 0000000180060720     libucrt:nlsdata.obj
 0002:00006730       ??_C@_1BE@EBOGMDOH@?$AAW?$AAe?$AAd?$AAn?$AAe?$AAs?$AAd?$AAa?$AAy@ 0000000180060730     libucrt:nlsdata.obj
 0002:00006748       ??_C@_1BC@HHMNLIHE@?$AAT?$AAh?$AAu?$AAr?$AAs?$AAd?$AAa?$AAy@ 0000000180060748     libucrt:nlsdata.obj
 0002:00006760       ??_C@_1O@PDICJHAG@?$AAF?$AAr?$AAi?$AAd?$AAa?$AAy@ 0000000180060760     libucrt:nlsdata.obj
 0002:00006770       ??_C@_1BC@ENMNNPAJ@?$AAS?$AAa?$AAt?$AAu?$AAr?$AAd?$AAa?$AAy@ 0000000180060770     libucrt:nlsdata.obj
 0002:00006788       ??_C@_17DKNBKCHM@?$AAJ?$AAa?$AAn@ 0000000180060788     libucrt:nlsdata.obj
 0002:00006790       ??_C@_17LMDJEKJN@?$AAF?$AAe?$AAb@ 0000000180060790     libucrt:nlsdata.obj
 0002:00006798       ??_C@_17CKNLEDEC@?$AAM?$AAa?$AAr@ 0000000180060798     libucrt:nlsdata.obj
 0002:000067a0       ??_C@_17LFPOIHDD@?$AAA?$AAp?$AAr@ 00000001800607a0     libucrt:nlsdata.obj
 0002:000067a8       ??_C@_17PNNKMEED@?$AAM?$AAa?$AAy@ 00000001800607a8     libucrt:nlsdata.obj
 0002:000067b0       ??_C@_17KCJGOCPB@?$AAJ?$AAu?$AAn@ 00000001800607b0     libucrt:nlsdata.obj
 0002:000067b8       ??_C@_17IJPCKHK@?$AAJ?$AAu?$AAl@ 00000001800607b8     libucrt:nlsdata.obj
 0002:000067c0       ??_C@_17ICPELBCN@?$AAA?$AAu?$AAg@ 00000001800607c0     libucrt:nlsdata.obj
 0002:000067c8       ??_C@_17HCHCOKMG@?$AAS?$AAe?$AAp@ 00000001800607c8     libucrt:nlsdata.obj
 0002:000067d0       ??_C@_17FNLKOI@?$AAO?$AAc?$AAt@ 00000001800607d0     libucrt:nlsdata.obj
 0002:000067d8       ??_C@_17BBDMLCIG@?$AAN?$AAo?$AAv@ 00000001800607d8     libucrt:nlsdata.obj
 0002:000067e0       ??_C@_17EGKACKIF@?$AAD?$AAe?$AAc@ 00000001800607e0     libucrt:nlsdata.obj
 0002:000067e8       ??_C@_1BA@EFMEIEBA@?$AAJ?$AAa?$AAn?$AAu?$AAa?$AAr?$AAy@ 00000001800607e8     libucrt:nlsdata.obj
 0002:000067f8       ??_C@_1BC@JGDDFFAM@?$AAF?$AAe?$AAb?$AAr?$AAu?$AAa?$AAr?$AAy@ 00000001800607f8     libucrt:nlsdata.obj
 0002:00006810       ??_C@_1M@IKEENEDF@?$AAM?$AAa?$AAr?$AAc?$AAh@ 0000000180060810     libucrt:nlsdata.obj
 0002:00006820       ??_C@_1M@GJNLMHFD@?$AAA?$AAp?$AAr?$AAi?$AAl@ 0000000180060820     libucrt:nlsdata.obj
 0002:00006830       ??_C@_19EPFLPGAP@?$AAJ?$AAu?$AAn?$AAe@ 0000000180060830     libucrt:nlsdata.obj
 0002:00006840       ??_C@_19BIFMLPCD@?$AAJ?$AAu?$AAl?$AAy@ 0000000180060840     libucrt:nlsdata.obj
 0002:00006850       ??_C@_1O@PAHLKOAC@?$AAA?$AAu?$AAg?$AAu?$AAs?$AAt@ 0000000180060850     libucrt:nlsdata.obj
 0002:00006860       ??_C@_1BE@DKAAMBJL@?$AAS?$AAe?$AAp?$AAt?$AAe?$AAm?$AAb?$AAe?$AAr@ 0000000180060860     libucrt:nlsdata.obj
 0002:00006878       ??_C@_1BA@EPANDLNG@?$AAO?$AAc?$AAt?$AAo?$AAb?$AAe?$AAr@ 0000000180060878     libucrt:nlsdata.obj
 0002:00006888       ??_C@_1BC@BGLIFPF@?$AAN?$AAo?$AAv?$AAe?$AAm?$AAb?$AAe?$AAr@ 0000000180060888     libucrt:nlsdata.obj
 0002:000068a0       ??_C@_1BC@FEMKIFH@?$AAD?$AAe?$AAc?$AAe?$AAm?$AAb?$AAe?$AAr@ 00000001800608a0     libucrt:nlsdata.obj
 0002:000068b4       ??_C@_15ODEHAHHF@?$AAA?$AAM@ 00000001800608b4     libucrt:nlsdata.obj
 0002:000068bc       ??_C@_15CLMNNGEL@?$AAP?$AAM@ 00000001800608bc     libucrt:nlsdata.obj
 0002:000068c8       ??_C@_1BC@IEBCMHCM@?$AAM?$AAM?$AA?1?$AAd?$AAd?$AA?1?$AAy?$AAy@ 00000001800608c8     libucrt:nlsdata.obj
 0002:000068e0       ??_C@_1CI@KNAKOEBC@?$AAd?$AAd?$AAd?$AAd?$AA?0?$AA?5?$AAM?$AAM?$AAM?$AAM?$AA?5?$AAd?$AAd?$AA?0?$AA?5@ 00000001800608e0     libucrt:nlsdata.obj
 0002:00006908       ??_C@_1BC@GDGBMEMK@?$AAH?$AAH?$AA?3?$AAm?$AAm?$AA?3?$AAs?$AAs@ 0000000180060908     libucrt:nlsdata.obj
 0002:00006920       ??_C@_1M@BMHNFIME@?$AAe?$AAn?$AA?9?$AAU?$AAS@ 0000000180060920     libucrt:nlsdata.obj
 0002:0000692c       ??_C@_03JGHBODFD@pow@      000000018006092c     libucrt:fpexcept.obj
 0002:00006930       ??_C@_05HGHHAHAP@log10@    0000000180060930     libucrt:fpexcept.obj
 0002:00006938       ??_C@_04EIAKFFMI@sqrt@     0000000180060938     libucrt:fpexcept.obj
 0002:00006960       ??_C@_1M@HPNHIDJI@?$AAj?$AAa?$AA?9?$AAJ?$AAP@ 0000000180060960     libucrt:mbctype.obj
 0002:00006970       ??_C@_1M@BIBDDEMK@?$AAz?$AAh?$AA?9?$AAC?$AAN@ 0000000180060970     libucrt:mbctype.obj
 0002:00006980       ??_C@_1M@JLOOOEGK@?$AAk?$AAo?$AA?9?$AAK?$AAR@ 0000000180060980     libucrt:mbctype.obj
 0002:00006990       ??_C@_1M@CLNBBOPM@?$AAz?$AAh?$AA?9?$AAT?$AAW@ 0000000180060990     libucrt:mbctype.obj
 0002:000069a0       __log_256_lead             00000001800609a0     libucrt:log_256_lead_tail_table.obj
 0002:000071b0       __log_256_tail             00000001800611b0     libucrt:log_256_lead_tail_table.obj
 0002:000079c0       __two_to_jby64_head_table  00000001800619c0     libucrt:two_to_jby64_head_tail_table.obj
 0002:00007bc0       __two_to_jby64_tail_table  0000000180061bc0     libucrt:two_to_jby64_head_tail_table.obj
 0002:00007dc0       ??_C@_04MBFDLNIM@powf@     0000000180061dc0     libucrt:pow_special.obj
 0002:00007dd0       __two_to_jby64_table       0000000180061dd0     libucrt:two_to_jby64_table.obj
 0002:00007fd0       __log_F_inv_qword          0000000180061fd0     libucrt:log_f_inv_qword_table.obj
 0002:00009620       ??_C@_15EMKDOKLE@?$AAa?$AAr@ 0000000180063620     libucrt:lcidtoname_downlevel.obj
 0002:00009628       ??_C@_15KNPADPLH@?$AAb?$AAg@ 0000000180063628     libucrt:lcidtoname_downlevel.obj
 0002:00009630       ??_C@_15EDMHLDMO@?$AAc?$AAa@ 0000000180063630     libucrt:lcidtoname_downlevel.obj
 0002:00009638       ??_C@_1O@BPEAJADD@?$AAz?$AAh?$AA?9?$AAC?$AAH?$AAS@ 0000000180063638     libucrt:lcidtoname_downlevel.obj
 0002:00009648       ??_C@_15LJNHCMNK@?$AAc?$AAs@ 0000000180063648     libucrt:lcidtoname_downlevel.obj
 0002:00009650       ??_C@_15FOMCIDHG@?$AAd?$AAa@ 0000000180063650     libucrt:lcidtoname_downlevel.obj
 0002:00009658       ??_C@_15NBKABECB@?$AAd?$AAe@ 0000000180063658     libucrt:lcidtoname_downlevel.obj
 0002:00009660       ??_C@_15GHPEIIAO@?$AAe?$AAl@ 0000000180063660     libucrt:lcidtoname_downlevel.obj
 0002:00009668       ??_C@_15MNPNEAIF@?$AAe?$AAn@ 0000000180063668     libucrt:lcidtoname_downlevel.obj
 0002:00009670       ??_C@_15GPIOMPMH@?$AAe?$AAs@ 0000000180063670     libucrt:lcidtoname_downlevel.obj
 0002:00009678       ??_C@_15NGLOAKJC@?$AAf?$AAi@ 0000000180063678     libucrt:lcidtoname_downlevel.obj
 0002:00009680       ??_C@_15FBKGNKAM@?$AAf?$AAr@ 0000000180063680     libucrt:lcidtoname_downlevel.obj
 0002:00009688       ??_C@_15KGGCNEFK@?$AAh?$AAe@ 0000000180063688     libucrt:lcidtoname_downlevel.obj
 0002:00009690       ??_C@_15PGHLIDMF@?$AAh?$AAu@ 0000000180063690     libucrt:lcidtoname_downlevel.obj
 0002:00009698       ??_C@_15BIEMAPLM@?$AAi?$AAs@ 0000000180063698     libucrt:lcidtoname_downlevel.obj
 0002:000096a0       ??_C@_15IFJLDHAF@?$AAi?$AAt@ 00000001800636a0     libucrt:lcidtoname_downlevel.obj
 0002:000096a8       ??_C@_15GEMIOCAG@?$AAj?$AAa@ 00000001800636a8     libucrt:lcidtoname_downlevel.obj
 0002:000096b0       ??_C@_15EPELEGJA@?$AAk?$AAo@ 00000001800636b0     libucrt:lcidtoname_downlevel.obj
 0002:000096b8       ??_C@_15NDDHIMN@?$AAn?$AAl@ 00000001800636b8     libucrt:lcidtoname_downlevel.obj
 0002:000096c0       ??_C@_15BPIGNHCD@?$AAn?$AAo@ 00000001800636c0     libucrt:lcidtoname_downlevel.obj
 0002:000096c8       ??_C@_15DEOPBLCG@?$AAp?$AAl@ 00000001800636c8     libucrt:lcidtoname_downlevel.obj
 0002:000096d0       ??_C@_15KBECGEFG@?$AAp?$AAt@ 00000001800636d0     libucrt:lcidtoname_downlevel.obj
 0002:000096d8       ??_C@_15GLJCBFMD@?$AAr?$AAo@ 00000001800636d8     libucrt:lcidtoname_downlevel.obj
 0002:000096e0       ??_C@_15FEDGKCDI@?$AAr?$AAu@ 00000001800636e0     libucrt:lcidtoname_downlevel.obj
 0002:000096e8       ??_C@_15GLKMLLHM@?$AAh?$AAr@ 00000001800636e8     libucrt:lcidtoname_downlevel.obj
 0002:000096f0       ??_C@_15CPKMFBDB@?$AAs?$AAk@ 00000001800636f0     libucrt:lcidtoname_downlevel.obj
 0002:000096f8       ??_C@_15BAAIOGMK@?$AAs?$AAq@ 00000001800636f8     libucrt:lcidtoname_downlevel.obj
 0002:00009700       ??_C@_15INNPNOHD@?$AAs?$AAv@ 0000000180063700     libucrt:lcidtoname_downlevel.obj
 0002:00009708       ??_C@_15CABMMOGH@?$AAt?$AAh@ 0000000180063708     libucrt:lcidtoname_downlevel.obj
 0002:00009710       ??_C@_15BPLIHJJM@?$AAt?$AAr@ 0000000180063710     libucrt:lcidtoname_downlevel.obj
 0002:00009718       ??_C@_15NEOEKKDJ@?$AAu?$AAr@ 0000000180063718     libucrt:lcidtoname_downlevel.obj
 0002:00009720       ??_C@_15NFICGAJK@?$AAi?$AAd@ 0000000180063720     libucrt:lcidtoname_downlevel.obj
 0002:00009728       ??_C@_15PJPFLCCM@?$AAu?$AAk@ 0000000180063728     libucrt:lcidtoname_downlevel.obj
 0002:00009730       ??_C@_15HPJPHDM@?$AAb?$AAe@ 0000000180063730     libucrt:lcidtoname_downlevel.obj
 0002:00009738       ??_C@_15LCHLGJII@?$AAs?$AAl@ 0000000180063738     libucrt:lcidtoname_downlevel.obj
 0002:00009740       ??_C@_15PCFJPHHO@?$AAe?$AAt@ 0000000180063740     libucrt:lcidtoname_downlevel.obj
 0002:00009748       ??_C@_15HPFPGODN@?$AAl?$AAv@ 0000000180063748     libucrt:lcidtoname_downlevel.obj
 0002:00009750       ??_C@_15NFFGKGLG@?$AAl?$AAt@ 0000000180063750     libucrt:lcidtoname_downlevel.obj
 0002:00009758       ??_C@_15BDAKCCHN@?$AAf?$AAa@ 0000000180063758     libucrt:lcidtoname_downlevel.obj
 0002:00009760       ??_C@_15NFGIAIAJ@?$AAv?$AAi@ 0000000180063760     libucrt:lcidtoname_downlevel.obj
 0002:00009768       ??_C@_15LMKNDMHN@?$AAh?$AAy@ 0000000180063768     libucrt:lcidtoname_downlevel.obj
 0002:00009770       ??_C@_15IJBHMCFL@?$AAa?$AAz@ 0000000180063770     libucrt:lcidtoname_downlevel.obj
 0002:00009778       ??_C@_15EKOFJABL@?$AAe?$AAu@ 0000000180063778     libucrt:lcidtoname_downlevel.obj
 0002:00009780       ??_C@_15BGHADCNK@?$AAm?$AAk@ 0000000180063780     libucrt:lcidtoname_downlevel.obj
 0002:00009788       ??_C@_15JDNICKHM@?$AAa?$AAf@ 0000000180063788     libucrt:lcidtoname_downlevel.obj
 0002:00009790       ??_C@_15KPJEDBKD@?$AAk?$AAa@ 0000000180063790     libucrt:lcidtoname_downlevel.obj
 0002:00009798       ??_C@_15PDNFFFEO@?$AAf?$AAo@ 0000000180063798     libucrt:lcidtoname_downlevel.obj
 0002:000097a0       ??_C@_15OMLEGLOC@?$AAh?$AAi@ 00000001800637a0     libucrt:lcidtoname_downlevel.obj
 0002:000097a8       ??_C@_15IDNNENKK@?$AAm?$AAs@ 00000001800637a8     libucrt:lcidtoname_downlevel.obj
 0002:000097b0       ??_C@_15MACJNBMH@?$AAk?$AAk@ 00000001800637b0     libucrt:lcidtoname_downlevel.obj
 0002:000097b8       ??_C@_15DKDJEOND@?$AAk?$AAy@ 00000001800637b8     libucrt:lcidtoname_downlevel.obj
 0002:000097c0       ??_C@_15DFGDLJBG@?$AAs?$AAw@ 00000001800637c0     libucrt:lcidtoname_downlevel.obj
 0002:000097c8       ??_C@_15BBFAICNG@?$AAu?$AAz@ 00000001800637c8     libucrt:lcidtoname_downlevel.obj
 0002:000097d0       ??_C@_15DKNDCGEA@?$AAt?$AAt@ 00000001800637d0     libucrt:lcidtoname_downlevel.obj
 0002:000097d8       ??_C@_15MGIFMDPL@?$AAp?$AAa@ 00000001800637d8     libucrt:lcidtoname_downlevel.obj
 0002:000097e0       ??_C@_15HCNDBBA@?$AAg?$AAu@ 00000001800637e0     libucrt:lcidtoname_downlevel.obj
 0002:000097e8       ??_C@_15FNBEIBON@?$AAt?$AAa@ 00000001800637e8     libucrt:lcidtoname_downlevel.obj
 0002:000097f0       ??_C@_15NCHGBGLK@?$AAt?$AAe@ 00000001800637f0     libucrt:lcidtoname_downlevel.obj
 0002:000097f8       ??_C@_15PHPHCBPF@?$AAk?$AAn@ 00000001800637f8     libucrt:lcidtoname_downlevel.obj
 0002:00009800       ??_C@_15DLGBCKMP@?$AAm?$AAr@ 0000000180063800     libucrt:lcidtoname_downlevel.obj
 0002:00009808       ??_C@_15EABBLBFF@?$AAs?$AAa@ 0000000180063808     libucrt:lcidtoname_downlevel.obj
 0002:00009810       ??_C@_15CBKOMCOI@?$AAm?$AAn@ 0000000180063810     libucrt:lcidtoname_downlevel.obj
 0002:00009818       ??_C@_15CKDMCJAF@?$AAg?$AAl@ 0000000180063818     libucrt:lcidtoname_downlevel.obj
 0002:00009820       ??_C@_17CNJFBPG@?$AAk?$AAo?$AAk@ 0000000180063820     libucrt:lcidtoname_downlevel.obj
 0002:00009828       ??_C@_17FFBJICPL@?$AAs?$AAy?$AAr@ 0000000180063828     libucrt:lcidtoname_downlevel.obj
 0002:00009830       ??_C@_17KPNDCPAF@?$AAd?$AAi?$AAv@ 0000000180063830     libucrt:lcidtoname_downlevel.obj
 0002:00009838       ??_C@_1M@OKAHONE@?$AAa?$AAr?$AA?9?$AAS?$AAA@ 0000000180063838     libucrt:lcidtoname_downlevel.obj
 0002:00009848       ??_C@_1M@FFFIGIGK@?$AAb?$AAg?$AA?9?$AAB?$AAG@ 0000000180063848     libucrt:lcidtoname_downlevel.obj
 0002:00009858       ??_C@_1M@BJNKEDC@?$AAc?$AAa?$AA?9?$AAE?$AAS@ 0000000180063858     libucrt:lcidtoname_downlevel.obj
 0002:00009868       ??_C@_1M@IJJHFJHA@?$AAc?$AAs?$AA?9?$AAC?$AAZ@ 0000000180063868     libucrt:lcidtoname_downlevel.obj
 0002:00009878       ??_C@_1M@CLPEOBGI@?$AAd?$AAa?$AA?9?$AAD?$AAK@ 0000000180063878     libucrt:lcidtoname_downlevel.obj
 0002:00009888       ??_C@_1M@MCMADGCB@?$AAd?$AAe?$AA?9?$AAD?$AAE@ 0000000180063888     libucrt:lcidtoname_downlevel.obj
 0002:00009898       ??_C@_1M@OOCKEMAM@?$AAe?$AAl?$AA?9?$AAG?$AAR@ 0000000180063898     libucrt:lcidtoname_downlevel.obj
 0002:000098a8       ??_C@_1M@DDNJFGID@?$AAf?$AAi?$AA?9?$AAF?$AAI@ 00000001800638a8     libucrt:lcidtoname_downlevel.obj
 0002:000098b8       ??_C@_1M@GLIPPMAC@?$AAf?$AAr?$AA?9?$AAF?$AAR@ 00000001800638b8     libucrt:lcidtoname_downlevel.obj
 0002:000098c8       ??_C@_1M@GFMCHPE@?$AAh?$AAe?$AA?9?$AAI?$AAL@ 00000001800638c8     libucrt:lcidtoname_downlevel.obj
 0002:000098d8       ??_C@_1M@MHLPGNKM@?$AAh?$AAu?$AA?9?$AAH?$AAU@ 00000001800638d8     libucrt:lcidtoname_downlevel.obj
 0002:000098e8       ??_C@_1M@LPDDNNPN@?$AAi?$AAs?$AA?9?$AAI?$AAS@ 00000001800638e8     libucrt:lcidtoname_downlevel.obj
 0002:000098f8       ??_C@_1M@MADIPODN@?$AAi?$AAt?$AA?9?$AAI?$AAT@ 00000001800638f8     libucrt:lcidtoname_downlevel.obj
 0002:00009908       ??_C@_1M@IHBJJGG@?$AAn?$AAl?$AA?9?$AAN?$AAL@ 0000000180063908     libucrt:lcidtoname_downlevel.obj
 0002:00009918       ??_C@_1M@EANAGDL@?$AAn?$AAb?$AA?9?$AAN?$AAO@ 0000000180063918     libucrt:lcidtoname_downlevel.obj
 0002:00009928       ??_C@_1M@NEIEMEGP@?$AAp?$AAl?$AA?9?$AAP?$AAL@ 0000000180063928     libucrt:lcidtoname_downlevel.obj
 0002:00009938       ??_C@_1M@BOCFIGEP@?$AAp?$AAt?$AA?9?$AAB?$AAR@ 0000000180063938     libucrt:lcidtoname_downlevel.obj
 0002:00009948       ??_C@_1M@IMPFOPBG@?$AAr?$AAo?$AA?9?$AAR?$AAO@ 0000000180063948     libucrt:lcidtoname_downlevel.obj
 0002:00009958       ??_C@_1M@IDNNEJMM@?$AAr?$AAu?$AA?9?$AAR?$AAU@ 0000000180063958     libucrt:lcidtoname_downlevel.obj
 0002:00009968       ??_C@_1M@LILEEOGM@?$AAh?$AAr?$AA?9?$AAH?$AAR@ 0000000180063968     libucrt:lcidtoname_downlevel.obj
 0002:00009978       ??_C@_1M@FKIFEHPB@?$AAs?$AAk?$AA?9?$AAS?$AAK@ 0000000180063978     libucrt:lcidtoname_downlevel.obj
 0002:00009988       ??_C@_1M@LJMAMNPJ@?$AAs?$AAq?$AA?9?$AAA?$AAL@ 0000000180063988     libucrt:lcidtoname_downlevel.obj
 0002:00009998       ??_C@_1M@GIAKDKJK@?$AAs?$AAv?$AA?9?$AAS?$AAE@ 0000000180063998     libucrt:lcidtoname_downlevel.obj
 0002:000099a8       ??_C@_1M@MKJKIKCL@?$AAt?$AAh?$AA?9?$AAT?$AAH@ 00000001800639a8     libucrt:lcidtoname_downlevel.obj
 0002:000099b8       ??_C@_1M@MFLCCMPB@?$AAt?$AAr?$AA?9?$AAT?$AAR@ 00000001800639b8     libucrt:lcidtoname_downlevel.obj
 0002:000099c8       ??_C@_1M@OIJHDKJN@?$AAu?$AAr?$AA?9?$AAP?$AAK@ 00000001800639c8     libucrt:lcidtoname_downlevel.obj
 0002:000099d8       ??_C@_1M@LHIPCIEK@?$AAi?$AAd?$AA?9?$AAI?$AAD@ 00000001800639d8     libucrt:lcidtoname_downlevel.obj
 0002:000099e8       ??_C@_1M@MFMOBGI@?$AAu?$AAk?$AA?9?$AAU?$AAA@ 00000001800639e8     libucrt:lcidtoname_downlevel.obj
 0002:000099f8       ??_C@_1M@OBGLJIPL@?$AAb?$AAe?$AA?9?$AAB?$AAY@ 00000001800639f8     libucrt:lcidtoname_downlevel.obj
 0002:00009a08       ??_C@_1M@BCFAJEAD@?$AAs?$AAl?$AA?9?$AAS?$AAI@ 0000000180063a08     libucrt:lcidtoname_downlevel.obj
 0002:00009a18       ??_C@_1M@FKFFEDDN@?$AAe?$AAt?$AA?9?$AAE?$AAE@ 0000000180063a18     libucrt:lcidtoname_downlevel.obj
 0002:00009a28       ??_C@_1M@KGKKAACI@?$AAl?$AAv?$AA?9?$AAL?$AAV@ 0000000180063a28     libucrt:lcidtoname_downlevel.obj
 0002:00009a38       ??_C@_1M@IFGBIJO@?$AAl?$AAt?$AA?9?$AAL?$AAT@ 0000000180063a38     libucrt:lcidtoname_downlevel.obj
 0002:00009a48       ??_C@_1M@FGEAHEDM@?$AAf?$AAa?$AA?9?$AAI?$AAR@ 0000000180063a48     libucrt:lcidtoname_downlevel.obj
 0002:00009a58       ??_C@_1M@KBMAIBFN@?$AAv?$AAi?$AA?9?$AAV?$AAN@ 0000000180063a58     libucrt:lcidtoname_downlevel.obj
 0002:00009a68       ??_C@_1M@GPCBKDJK@?$AAh?$AAy?$AA?9?$AAA?$AAM@ 0000000180063a68     libucrt:lcidtoname_downlevel.obj
 0002:00009a78       ??_C@_1BG@BECMDDJB@?$AAa?$AAz?$AA?9?$AAA?$AAZ?$AA?9?$AAL?$AAa?$AAt?$AAn@ 0000000180063a78     libucrt:lcidtoname_downlevel.obj
 0002:00009a90       ??_C@_1M@MAOFCAEA@?$AAe?$AAu?$AA?9?$AAE?$AAS@ 0000000180063a90     libucrt:lcidtoname_downlevel.obj
 0002:00009aa0       ??_C@_1M@IGHABKPI@?$AAm?$AAk?$AA?9?$AAM?$AAK@ 0000000180063aa0     libucrt:lcidtoname_downlevel.obj
 0002:00009ab0       ??_C@_1M@IAIGNEJG@?$AAt?$AAn?$AA?9?$AAZ?$AAA@ 0000000180063ab0     libucrt:lcidtoname_downlevel.obj
 0002:00009ac0       ??_C@_1M@IIJCOJFA@?$AAx?$AAh?$AA?9?$AAZ?$AAA@ 0000000180063ac0     libucrt:lcidtoname_downlevel.obj
 0002:00009ad0       ??_C@_1M@LGPJHNJH@?$AAz?$AAu?$AA?9?$AAZ?$AAA@ 0000000180063ad0     libucrt:lcidtoname_downlevel.obj
 0002:00009ae0       ??_C@_1M@HOKAOIO@?$AAa?$AAf?$AA?9?$AAZ?$AAA@ 0000000180063ae0     libucrt:lcidtoname_downlevel.obj
 0002:00009af0       ??_C@_1M@DPCLHLIE@?$AAk?$AAa?$AA?9?$AAG?$AAE@ 0000000180063af0     libucrt:lcidtoname_downlevel.obj
 0002:00009b00       ??_C@_1M@BLKMHJBI@?$AAf?$AAo?$AA?9?$AAF?$AAO@ 0000000180063b00     libucrt:lcidtoname_downlevel.obj
 0002:00009b10       ??_C@_1M@LGGJAPPB@?$AAh?$AAi?$AA?9?$AAI?$AAN@ 0000000180063b10     libucrt:lcidtoname_downlevel.obj
 0002:00009b20       ??_C@_1M@FIKPIHFE@?$AAm?$AAt?$AA?9?$AAM?$AAT@ 0000000180063b20     libucrt:lcidtoname_downlevel.obj
 0002:00009b30       ??_C@_1M@HEGGPBFA@?$AAs?$AAe?$AA?9?$AAN?$AAO@ 0000000180063b30     libucrt:lcidtoname_downlevel.obj
 0002:00009b40       ??_C@_1M@EIBJEEPA@?$AAm?$AAs?$AA?9?$AAM?$AAY@ 0000000180063b40     libucrt:lcidtoname_downlevel.obj
 0002:00009b50       ??_C@_1M@FHLBGMPP@?$AAk?$AAk?$AA?9?$AAK?$AAZ@ 0000000180063b50     libucrt:lcidtoname_downlevel.obj
 0002:00009b60       ??_C@_1M@NGJJLCGI@?$AAk?$AAy?$AA?9?$AAK?$AAG@ 0000000180063b60     libucrt:lcidtoname_downlevel.obj
 0002:00009b70       ??_C@_1M@GIENNBFC@?$AAs?$AAw?$AA?9?$AAK?$AAE@ 0000000180063b70     libucrt:lcidtoname_downlevel.obj
 0002:00009b80       ??_C@_1BG@NDGMJIMJ@?$AAu?$AAz?$AA?9?$AAU?$AAZ?$AA?9?$AAL?$AAa?$AAt?$AAn@ 0000000180063b80     libucrt:lcidtoname_downlevel.obj
 0002:00009b98       ??_C@_1M@IDCCIHBC@?$AAt?$AAt?$AA?9?$AAR?$AAU@ 0000000180063b98     libucrt:lcidtoname_downlevel.obj
 0002:00009ba8       ??_C@_1M@LOICPMOJ@?$AAb?$AAn?$AA?9?$AAI?$AAN@ 0000000180063ba8     libucrt:lcidtoname_downlevel.obj
 0002:00009bb8       ??_C@_1M@KPKKNEAH@?$AAp?$AAa?$AA?9?$AAI?$AAN@ 0000000180063bb8     libucrt:lcidtoname_downlevel.obj
 0002:00009bc8       ??_C@_1M@PJGPPBOG@?$AAg?$AAu?$AA?9?$AAI?$AAN@ 0000000180063bc8     libucrt:lcidtoname_downlevel.obj
 0002:00009bd8       ??_C@_1M@KMKMOPHI@?$AAt?$AAa?$AA?9?$AAI?$AAN@ 0000000180063bd8     libucrt:lcidtoname_downlevel.obj
 0002:00009be8       ??_C@_1M@KFEHEPAC@?$AAt?$AAe?$AA?9?$AAI?$AAN@ 0000000180063be8     libucrt:lcidtoname_downlevel.obj
 0002:00009bf8       ??_C@_1M@CDCLMGHI@?$AAk?$AAn?$AA?9?$AAI?$AAN@ 0000000180063bf8     libucrt:lcidtoname_downlevel.obj
 0002:00009c08       ??_C@_1M@MIODLDKF@?$AAm?$AAl?$AA?9?$AAI?$AAN@ 0000000180063c08     libucrt:lcidtoname_downlevel.obj
 0002:00009c18       ??_C@_1M@PBIEACPO@?$AAm?$AAr?$AA?9?$AAI?$AAN@ 0000000180063c18     libucrt:lcidtoname_downlevel.obj
 0002:00009c28       ??_C@_1M@NIDEAGPH@?$AAs?$AAa?$AA?9?$AAI?$AAN@ 0000000180063c28     libucrt:lcidtoname_downlevel.obj
 0002:00009c38       ??_C@_1M@FHIHCBIO@?$AAm?$AAn?$AA?9?$AAM?$AAN@ 0000000180063c38     libucrt:lcidtoname_downlevel.obj
 0002:00009c48       ??_C@_1M@JAIJPENP@?$AAc?$AAy?$AA?9?$AAG?$AAB@ 0000000180063c48     libucrt:lcidtoname_downlevel.obj
 0002:00009c58       ??_C@_1M@PHGFBEPN@?$AAg?$AAl?$AA?9?$AAE?$AAS@ 0000000180063c58     libucrt:lcidtoname_downlevel.obj
 0002:00009c68       ??_C@_1O@KPIPDNCP@?$AAk?$AAo?$AAk?$AA?9?$AAI?$AAN@ 0000000180063c68     libucrt:lcidtoname_downlevel.obj
 0002:00009c78       ??_C@_1O@KNHJLDJA@?$AAs?$AAy?$AAr?$AA?9?$AAS?$AAY@ 0000000180063c78     libucrt:lcidtoname_downlevel.obj
 0002:00009c88       ??_C@_1O@MKEKBLAH@?$AAd?$AAi?$AAv?$AA?9?$AAM?$AAV@ 0000000180063c88     libucrt:lcidtoname_downlevel.obj
 0002:00009c98       ??_C@_1O@OHDCKDDF@?$AAq?$AAu?$AAz?$AA?9?$AAB?$AAO@ 0000000180063c98     libucrt:lcidtoname_downlevel.obj
 0002:00009ca8       ??_C@_1M@LEPJNLFD@?$AAn?$AAs?$AA?9?$AAZ?$AAA@ 0000000180063ca8     libucrt:lcidtoname_downlevel.obj
 0002:00009cb8       ??_C@_1M@OMLEIIJB@?$AAm?$AAi?$AA?9?$AAN?$AAZ@ 0000000180063cb8     libucrt:lcidtoname_downlevel.obj
 0002:00009cc8       ??_C@_1M@PMPEAILG@?$AAa?$AAr?$AA?9?$AAI?$AAQ@ 0000000180063cc8     libucrt:lcidtoname_downlevel.obj
 0002:00009cd8       ??_C@_1M@CNKPNOEE@?$AAd?$AAe?$AA?9?$AAC?$AAH@ 0000000180063cd8     libucrt:lcidtoname_downlevel.obj
 0002:00009ce8       ??_C@_1M@LKMGMLKO@?$AAe?$AAn?$AA?9?$AAG?$AAB@ 0000000180063ce8     libucrt:lcidtoname_downlevel.obj
 0002:00009cf8       ??_C@_1M@PGKJFFGL@?$AAe?$AAs?$AA?9?$AAM?$AAX@ 0000000180063cf8     libucrt:lcidtoname_downlevel.obj
 0002:00009d08       ??_C@_1M@DNNANBDC@?$AAf?$AAr?$AA?9?$AAB?$AAE@ 0000000180063d08     libucrt:lcidtoname_downlevel.obj
 0002:00009d18       ??_C@_1M@HLGMDFHM@?$AAi?$AAt?$AA?9?$AAC?$AAH@ 0000000180063d18     libucrt:lcidtoname_downlevel.obj
 0002:00009d28       ??_C@_1M@CLLBGJH@?$AAn?$AAl?$AA?9?$AAB?$AAE@ 0000000180063d28     libucrt:lcidtoname_downlevel.obj
 0002:00009d38       ??_C@_1M@BODBOGLF@?$AAn?$AAn?$AA?9?$AAN?$AAO@ 0000000180063d38     libucrt:lcidtoname_downlevel.obj
 0002:00009d48       ??_C@_1M@HFFAHKAD@?$AAp?$AAt?$AA?9?$AAP?$AAT@ 0000000180063d48     libucrt:lcidtoname_downlevel.obj
 0002:00009d58       ??_C@_1BG@LNOAKHIE@?$AAs?$AAr?$AA?9?$AAS?$AAP?$AA?9?$AAL?$AAa?$AAt?$AAn@ 0000000180063d58     libucrt:lcidtoname_downlevel.obj
 0002:00009d70       ??_C@_1M@HBMHBGAK@?$AAs?$AAv?$AA?9?$AAF?$AAI@ 0000000180063d70     libucrt:lcidtoname_downlevel.obj
 0002:00009d80       ??_C@_1BG@DGCJGJBE@?$AAa?$AAz?$AA?9?$AAA?$AAZ?$AA?9?$AAC?$AAy?$AAr?$AAl@ 0000000180063d80     libucrt:lcidtoname_downlevel.obj
 0002:00009d98       ??_C@_1M@KEJDAAHB@?$AAs?$AAe?$AA?9?$AAS?$AAE@ 0000000180063d98     libucrt:lcidtoname_downlevel.obj
 0002:00009da8       ??_C@_1M@HEIBJJAD@?$AAm?$AAs?$AA?9?$AAB?$AAN@ 0000000180063da8     libucrt:lcidtoname_downlevel.obj
 0002:00009db8       ??_C@_1BG@PBGJMCEM@?$AAu?$AAz?$AA?9?$AAU?$AAZ?$AA?9?$AAC?$AAy?$AAr?$AAl@ 0000000180063db8     libucrt:lcidtoname_downlevel.obj
 0002:00009dd0       ??_C@_1O@LAOBCMDF@?$AAq?$AAu?$AAz?$AA?9?$AAE?$AAC@ 0000000180063dd0     libucrt:lcidtoname_downlevel.obj
 0002:00009de0       ??_C@_1M@POEEMAIO@?$AAa?$AAr?$AA?9?$AAE?$AAG@ 0000000180063de0     libucrt:lcidtoname_downlevel.obj
 0002:00009df0       ??_C@_1M@EFAKDEDL@?$AAz?$AAh?$AA?9?$AAH?$AAK@ 0000000180063df0     libucrt:lcidtoname_downlevel.obj
 0002:00009e00       ??_C@_1M@HKKIJHGI@?$AAd?$AAe?$AA?9?$AAA?$AAT@ 0000000180063e00     libucrt:lcidtoname_downlevel.obj
 0002:00009e10       ??_C@_1M@KBFBEHJF@?$AAe?$AAn?$AA?9?$AAA?$AAU@ 0000000180063e10     libucrt:lcidtoname_downlevel.obj
 0002:00009e20       ??_C@_1M@MNPLFAAH@?$AAe?$AAs?$AA?9?$AAE?$AAS@ 0000000180063e20     libucrt:lcidtoname_downlevel.obj
 0002:00009e30       ??_C@_1M@HJOOJFMA@?$AAf?$AAr?$AA?9?$AAC?$AAA@ 0000000180063e30     libucrt:lcidtoname_downlevel.obj
 0002:00009e40       ??_C@_1BG@JPOFPNAB@?$AAs?$AAr?$AA?9?$AAS?$AAP?$AA?9?$AAC?$AAy?$AAr?$AAl@ 0000000180063e40     libucrt:lcidtoname_downlevel.obj
 0002:00009e58       ??_C@_1M@LNFOCMOB@?$AAs?$AAe?$AA?9?$AAF?$AAI@ 0000000180063e58     libucrt:lcidtoname_downlevel.obj
 0002:00009e68       ??_C@_1O@MGJBOAMB@?$AAq?$AAu?$AAz?$AA?9?$AAP?$AAE@ 0000000180063e68     libucrt:lcidtoname_downlevel.obj
 0002:00009e78       ??_C@_1M@GJINLBOK@?$AAa?$AAr?$AA?9?$AAL?$AAY@ 0000000180063e78     libucrt:lcidtoname_downlevel.obj
 0002:00009e88       ??_C@_1M@GGMNHJNL@?$AAz?$AAh?$AA?9?$AAS?$AAG@ 0000000180063e88     libucrt:lcidtoname_downlevel.obj
 0002:00009e98       ??_C@_1M@HOIKODND@?$AAd?$AAe?$AA?9?$AAL?$AAU@ 0000000180063e98     libucrt:lcidtoname_downlevel.obj
 0002:00009ea8       ??_C@_1M@DDOCCGFG@?$AAe?$AAn?$AA?9?$AAC?$AAA@ 0000000180063ea8     libucrt:lcidtoname_downlevel.obj
 0002:00009eb8       ??_C@_1M@BNOEMJLF@?$AAe?$AAs?$AA?9?$AAG?$AAT@ 0000000180063eb8     libucrt:lcidtoname_downlevel.obj
 0002:00009ec8       ??_C@_1M@EOGNKEK@?$AAf?$AAr?$AA?9?$AAC?$AAH@ 0000000180063ec8     libucrt:lcidtoname_downlevel.obj
 0002:00009ed8       ??_C@_1M@FLIDJFHL@?$AAh?$AAr?$AA?9?$AAB?$AAA@ 0000000180063ed8     libucrt:lcidtoname_downlevel.obj
 0002:00009ee8       ??_C@_1O@FMCELNAJ@?$AAs?$AAm?$AAj?$AA?9?$AAN?$AAO@ 0000000180063ee8     libucrt:lcidtoname_downlevel.obj
 0002:00009ef8       ??_C@_1M@JHGLJMGJ@?$AAa?$AAr?$AA?9?$AAD?$AAZ@ 0000000180063ef8     libucrt:lcidtoname_downlevel.obj
 0002:00009f08       ??_C@_1M@JKKFDCNP@?$AAz?$AAh?$AA?9?$AAM?$AAO@ 0000000180063f08     libucrt:lcidtoname_downlevel.obj
 0002:00009f18       ??_C@_1M@GEEFALPE@?$AAd?$AAe?$AA?9?$AAL?$AAI@ 0000000180063f18     libucrt:lcidtoname_downlevel.obj
 0002:00009f28       ??_C@_1M@IGEOFBG@?$AAe?$AAn?$AA?9?$AAN?$AAZ@ 0000000180063f28     libucrt:lcidtoname_downlevel.obj
 0002:00009f38       ??_C@_1M@KDBONEHP@?$AAe?$AAs?$AA?9?$AAC?$AAR@ 0000000180063f38     libucrt:lcidtoname_downlevel.obj
 0002:00009f48       ??_C@_1M@FHMDOHNN@?$AAf?$AAr?$AA?9?$AAL?$AAU@ 0000000180063f48     libucrt:lcidtoname_downlevel.obj
 0002:00009f58       ??_C@_1BG@NFKKMAFG@?$AAb?$AAs?$AA?9?$AAB?$AAA?$AA?9?$AAL?$AAa?$AAt?$AAn@ 0000000180063f58     libucrt:lcidtoname_downlevel.obj
 0002:00009f70       ??_C@_1O@IMNBEMCI@?$AAs?$AAm?$AAj?$AA?9?$AAS?$AAE@ 0000000180063f70     libucrt:lcidtoname_downlevel.obj
 0002:00009f80       ??_C@_1M@DHHMBNDP@?$AAa?$AAr?$AA?9?$AAM?$AAA@ 0000000180063f80     libucrt:lcidtoname_downlevel.obj
 0002:00009f90       ??_C@_1M@BNBLJCGH@?$AAe?$AAn?$AA?9?$AAI?$AAE@ 0000000180063f90     libucrt:lcidtoname_downlevel.obj
 0002:00009fa0       ??_C@_1M@GEPAFMDL@?$AAe?$AAs?$AA?9?$AAP?$AAA@ 0000000180063fa0     libucrt:lcidtoname_downlevel.obj
 0002:00009fb0       ??_C@_1M@OJONDMDL@?$AAf?$AAr?$AA?9?$AAM?$AAC@ 0000000180063fb0     libucrt:lcidtoname_downlevel.obj
 0002:00009fc0       ??_C@_1BG@OBCNFJB@?$AAs?$AAr?$AA?9?$AAB?$AAA?$AA?9?$AAL?$AAa?$AAt?$AAn@ 0000000180063fc0     libucrt:lcidtoname_downlevel.obj
 0002:00009fd8       ??_C@_1O@KEMEEGPO@?$AAs?$AAm?$AAa?$AA?9?$AAN?$AAO@ 0000000180063fd8     libucrt:lcidtoname_downlevel.obj
 0002:00009fe8       ??_C@_1M@ELMGFODK@?$AAa?$AAr?$AA?9?$AAT?$AAN@ 0000000180063fe8     libucrt:lcidtoname_downlevel.obj
 0002:00009ff8       ??_C@_1M@BHDLHFAF@?$AAe?$AAn?$AA?9?$AAZ?$AAA@ 0000000180063ff8     libucrt:lcidtoname_downlevel.obj
 0002:0000a008       ??_C@_1M@BMGIGLIF@?$AAe?$AAs?$AA?9?$AAD?$AAO@ 0000000180064008     libucrt:lcidtoname_downlevel.obj
 0002:0000a018       ??_C@_1BG@CMBHIPBE@?$AAs?$AAr?$AA?9?$AAB?$AAA?$AA?9?$AAC?$AAy?$AAr?$AAl@ 0000000180064018     libucrt:lcidtoname_downlevel.obj
 0002:0000a030       ??_C@_1O@HEDBLHNP@?$AAs?$AAm?$AAa?$AA?9?$AAS?$AAE@ 0000000180064030     libucrt:lcidtoname_downlevel.obj
 0002:0000a040       ??_C@_1M@DAGCADIM@?$AAa?$AAr?$AA?9?$AAO?$AAM@ 0000000180064040     libucrt:lcidtoname_downlevel.obj
 0002:0000a050       ??_C@_1M@FODLMICG@?$AAe?$AAn?$AA?9?$AAJ?$AAM@ 0000000180064050     libucrt:lcidtoname_downlevel.obj
 0002:0000a060       ??_C@_1M@DNMLCIHB@?$AAe?$AAs?$AA?9?$AAV?$AAE@ 0000000180064060     libucrt:lcidtoname_downlevel.obj
 0002:0000a070       ??_C@_1O@EOKHMKJK@?$AAs?$AAm?$AAs?$AA?9?$AAF?$AAI@ 0000000180064070     libucrt:lcidtoname_downlevel.obj
 0002:0000a080       ??_C@_1M@CAFJMKOF@?$AAa?$AAr?$AA?9?$AAY?$AAE@ 0000000180064080     libucrt:lcidtoname_downlevel.obj
 0002:0000a090       ??_C@_1M@CBFHIJLI@?$AAe?$AAn?$AA?9?$AAC?$AAB@ 0000000180064090     libucrt:lcidtoname_downlevel.obj
 0002:0000a0a0       ??_C@_1M@BGNFLDN@?$AAe?$AAs?$AA?9?$AAC?$AAO@ 00000001800640a0     libucrt:lcidtoname_downlevel.obj
 0002:0000a0b0       ??_C@_1O@JMPHMAMC@?$AAs?$AAm?$AAn?$AA?9?$AAF?$AAI@ 00000001800640b0     libucrt:lcidtoname_downlevel.obj
 0002:0000a0c0       ??_C@_1M@JLANABKE@?$AAa?$AAr?$AA?9?$AAS?$AAY@ 00000001800640c0     libucrt:lcidtoname_downlevel.obj
 0002:0000a0d0       ??_C@_1M@HPKGCFGN@?$AAe?$AAn?$AA?9?$AAB?$AAZ@ 00000001800640d0     libucrt:lcidtoname_downlevel.obj
 0002:0000a0e0       ??_C@_1M@OLJCMLGM@?$AAe?$AAs?$AA?9?$AAP?$AAE@ 00000001800640e0     libucrt:lcidtoname_downlevel.obj
 0002:0000a0f0       ??_C@_1M@MKKGFKLE@?$AAa?$AAr?$AA?9?$AAJ?$AAO@ 00000001800640f0     libucrt:lcidtoname_downlevel.obj
 0002:0000a100       ??_C@_1M@EKPGLDNI@?$AAe?$AAn?$AA?9?$AAT?$AAT@ 0000000180064100     libucrt:lcidtoname_downlevel.obj
 0002:0000a110       ??_C@_1M@OONGHFHE@?$AAe?$AAs?$AA?9?$AAA?$AAR@ 0000000180064110     libucrt:lcidtoname_downlevel.obj
 0002:0000a120       ??_C@_1M@OOJFGBHE@?$AAa?$AAr?$AA?9?$AAL?$AAB@ 0000000180064120     libucrt:lcidtoname_downlevel.obj
 0002:0000a130       ??_C@_1M@GCEJHNEG@?$AAe?$AAn?$AA?9?$AAZ?$AAW@ 0000000180064130     libucrt:lcidtoname_downlevel.obj
 0002:0000a140       ??_C@_1M@JNOCAHJI@?$AAe?$AAs?$AA?9?$AAE?$AAC@ 0000000180064140     libucrt:lcidtoname_downlevel.obj
 0002:0000a150       ??_C@_1M@JEFHPGGB@?$AAa?$AAr?$AA?9?$AAK?$AAW@ 0000000180064150     libucrt:lcidtoname_downlevel.obj
 0002:0000a160       ??_C@_1M@MLKIBJOJ@?$AAe?$AAn?$AA?9?$AAP?$AAH@ 0000000180064160     libucrt:lcidtoname_downlevel.obj
 0002:0000a170       ??_C@_1M@BDNIPEND@?$AAe?$AAs?$AA?9?$AAC?$AAL@ 0000000180064170     libucrt:lcidtoname_downlevel.obj
 0002:0000a180       ??_C@_1M@MPNMEKBD@?$AAa?$AAr?$AA?9?$AAA?$AAE@ 0000000180064180     libucrt:lcidtoname_downlevel.obj
 0002:0000a190       ??_C@_1M@KBJALCPI@?$AAe?$AAs?$AA?9?$AAU?$AAY@ 0000000180064190     libucrt:lcidtoname_downlevel.obj
 0002:0000a1a0       ??_C@_1M@LLCCOAGA@?$AAa?$AAr?$AA?9?$AAB?$AAH@ 00000001800641a0     libucrt:lcidtoname_downlevel.obj
 0002:0000a1b0       ??_C@_1M@PBFNCDEL@?$AAe?$AAs?$AA?9?$AAP?$AAY@ 00000001800641b0     libucrt:lcidtoname_downlevel.obj
 0002:0000a1c0       ??_C@_1M@EDGINPNP@?$AAa?$AAr?$AA?9?$AAQ?$AAA@ 00000001800641c0     libucrt:lcidtoname_downlevel.obj
 0002:0000a1d0       ??_C@_1M@MKDBIIJI@?$AAe?$AAs?$AA?9?$AAB?$AAO@ 00000001800641d0     libucrt:lcidtoname_downlevel.obj
 0002:0000a1e0       ??_C@_1M@CPKKEBLD@?$AAe?$AAs?$AA?9?$AAS?$AAV@ 00000001800641e0     libucrt:lcidtoname_downlevel.obj
 0002:0000a1f0       ??_C@_1M@NDBGMMJL@?$AAe?$AAs?$AA?9?$AAH?$AAN@ 00000001800641f0     libucrt:lcidtoname_downlevel.obj
 0002:0000a200       ??_C@_1M@JIJIBHDP@?$AAe?$AAs?$AA?9?$AAN?$AAI@ 0000000180064200     libucrt:lcidtoname_downlevel.obj
 0002:0000a210       ??_C@_1M@CGFMKEEK@?$AAe?$AAs?$AA?9?$AAP?$AAR@ 0000000180064210     libucrt:lcidtoname_downlevel.obj
 0002:0000a220       ??_C@_1O@ICJHKIIK@?$AAz?$AAh?$AA?9?$AAC?$AAH?$AAT@ 0000000180064220     libucrt:lcidtoname_downlevel.obj
 0002:0000a230       ??_C@_15CLNEJCE@?$AAs?$AAr@ 0000000180064230     libucrt:lcidtoname_downlevel.obj
 0002:0000b080       ??_C@_1M@KAHEKEIG@?$AAa?$AAf?$AA?9?$AAz?$AAa@ 0000000180065080     libucrt:lcidtoname_downlevel.obj
 0002:0000b090       ??_C@_1M@GIECOABL@?$AAa?$AAr?$AA?9?$AAa?$AAe@ 0000000180065090     libucrt:lcidtoname_downlevel.obj
 0002:0000b0a0       ??_C@_1M@BMLMEKGI@?$AAa?$AAr?$AA?9?$AAb?$AAh@ 00000001800650a0     libucrt:lcidtoname_downlevel.obj
 0002:0000b0b0       ??_C@_1M@DAPFDGGB@?$AAa?$AAr?$AA?9?$AAd?$AAz@ 00000001800650b0     libucrt:lcidtoname_downlevel.obj
 0002:0000b0c0       ??_C@_1M@FJNKGKIG@?$AAa?$AAr?$AA?9?$AAe?$AAg@ 00000001800650c0     libucrt:lcidtoname_downlevel.obj
 0002:0000b0d0       ??_C@_1M@FLGKKCLO@?$AAa?$AAr?$AA?9?$AAi?$AAq@ 00000001800650d0     libucrt:lcidtoname_downlevel.obj
 0002:0000b0e0       ??_C@_1M@GNDIPALM@?$AAa?$AAr?$AA?9?$AAj?$AAo@ 00000001800650e0     libucrt:lcidtoname_downlevel.obj
 0002:0000b0f0       ??_C@_1M@DDMJFMGJ@?$AAa?$AAr?$AA?9?$AAk?$AAw@ 00000001800650f0     libucrt:lcidtoname_downlevel.obj
 0002:0000b100       ??_C@_1M@EJALMLHM@?$AAa?$AAr?$AA?9?$AAl?$AAb@ 0000000180065100     libucrt:lcidtoname_downlevel.obj
 0002:0000b110       ??_C@_1M@MOBDBLOC@?$AAa?$AAr?$AA?9?$AAl?$AAy@ 0000000180065110     libucrt:lcidtoname_downlevel.obj
 0002:0000b120       ??_C@_1M@JAOCLHDH@?$AAa?$AAr?$AA?9?$AAm?$AAa@ 0000000180065120     libucrt:lcidtoname_downlevel.obj
 0002:0000b130       ??_C@_1M@JHPMKJIE@?$AAa?$AAr?$AA?9?$AAo?$AAm@ 0000000180065130     libucrt:lcidtoname_downlevel.obj
 0002:0000b140       ??_C@_1M@OEPGHFNH@?$AAa?$AAr?$AA?9?$AAq?$AAa@ 0000000180065140     libucrt:lcidtoname_downlevel.obj
 0002:0000b150       ??_C@_1M@KJDONENM@?$AAa?$AAr?$AA?9?$AAs?$AAa@ 0000000180065150     libucrt:lcidtoname_downlevel.obj
 0002:0000b160       ??_C@_1M@DMJDKLKM@?$AAa?$AAr?$AA?9?$AAs?$AAy@ 0000000180065160     libucrt:lcidtoname_downlevel.obj
 0002:0000b170       ??_C@_1M@OMFIPEDC@?$AAa?$AAr?$AA?9?$AAt?$AAn@ 0000000180065170     libucrt:lcidtoname_downlevel.obj
 0002:0000b180       ??_C@_1M@IHMHGAON@?$AAa?$AAr?$AA?9?$AAy?$AAe@ 0000000180065180     libucrt:lcidtoname_downlevel.obj
 0002:0000b190       ??_C@_1BG@KDCPGJGB@?$AAa?$AAz?$AA?9?$AAa?$AAz?$AA?9?$AAc?$AAy?$AAr?$AAl@ 0000000180065190     libucrt:lcidtoname_downlevel.obj
 0002:0000b1a8       ??_C@_1BG@IBCKDDOE@?$AAa?$AAz?$AA?9?$AAa?$AAz?$AA?9?$AAl?$AAa?$AAt?$AAn@ 00000001800651a8     libucrt:lcidtoname_downlevel.obj
 0002:0000b1c0       ??_C@_1M@EGPFDCPD@?$AAb?$AAe?$AA?9?$AAb?$AAy@ 00000001800651c0     libucrt:lcidtoname_downlevel.obj
 0002:0000b1d0       ??_C@_1M@PCMGMCGC@?$AAb?$AAg?$AA?9?$AAb?$AAg@ 00000001800651d0     libucrt:lcidtoname_downlevel.obj
 0002:0000b1e0       ??_C@_1M@BJBMFGOB@?$AAb?$AAn?$AA?9?$AAi?$AAn@ 00000001800651e0     libucrt:lcidtoname_downlevel.obj
 0002:0000b1f0       ??_C@_1BG@EAKMMACD@?$AAb?$AAs?$AA?9?$AAb?$AAa?$AA?9?$AAl?$AAa?$AAt?$AAn@ 00000001800651f0     libucrt:lcidtoname_downlevel.obj
 0002:0000b208       ??_C@_1M@KGADAODK@?$AAc?$AAa?$AA?9?$AAe?$AAs@ 0000000180065208     libucrt:lcidtoname_downlevel.obj
 0002:0000b218       ??_C@_1M@COAJPDHI@?$AAc?$AAs?$AA?9?$AAc?$AAz@ 0000000180065218     libucrt:lcidtoname_downlevel.obj
 0002:0000b228       ??_C@_1M@DHBHFONH@?$AAc?$AAy?$AA?9?$AAg?$AAb@ 0000000180065228     libucrt:lcidtoname_downlevel.obj
 0002:0000b238       ??_C@_1M@IMGKELGA@?$AAd?$AAa?$AA?9?$AAd?$AAk@ 0000000180065238     libucrt:lcidtoname_downlevel.obj
 0002:0000b248       ??_C@_1M@NNDGDNGA@?$AAd?$AAe?$AA?9?$AAa?$AAt@ 0000000180065248     libucrt:lcidtoname_downlevel.obj
 0002:0000b258       ??_C@_1M@IKDBHEEM@?$AAd?$AAe?$AA?9?$AAc?$AAh@ 0000000180065258     libucrt:lcidtoname_downlevel.obj
 0002:0000b268       ??_C@_1M@GFFOJMCJ@?$AAd?$AAe?$AA?9?$AAd?$AAe@ 0000000180065268     libucrt:lcidtoname_downlevel.obj
 0002:0000b278       ??_C@_1M@MDNLKBPM@?$AAd?$AAe?$AA?9?$AAl?$AAi@ 0000000180065278     libucrt:lcidtoname_downlevel.obj
 0002:0000b288       ??_C@_1M@NJBEEJNL@?$AAd?$AAe?$AA?9?$AAl?$AAu@ 0000000180065288     libucrt:lcidtoname_downlevel.obj
 0002:0000b298       ??_C@_1O@GNNELBAP@?$AAd?$AAi?$AAv?$AA?9?$AAm?$AAv@ 0000000180065298     libucrt:lcidtoname_downlevel.obj
 0002:0000b2a8       ??_C@_1M@EJLEOGAE@?$AAe?$AAl?$AA?9?$AAg?$AAr@ 00000001800652a8     libucrt:lcidtoname_downlevel.obj
 0002:0000b2b8       ??_C@_1M@GMPONJN@?$AAe?$AAn?$AA?9?$AAa?$AAu@ 00000001800652b8     libucrt:lcidtoname_downlevel.obj
 0002:0000b2c8       ??_C@_1M@NIDIIPGF@?$AAe?$AAn?$AA?9?$AAb?$AAz@ 00000001800652c8     libucrt:lcidtoname_downlevel.obj
 0002:0000b2d8       ??_C@_1M@JEHMIMFO@?$AAe?$AAn?$AA?9?$AAc?$AAa@ 00000001800652d8     libucrt:lcidtoname_downlevel.obj
 0002:0000b2e8       ??_C@_1M@IGMJCDLA@?$AAe?$AAn?$AA?9?$AAc?$AAb@ 00000001800652e8     libucrt:lcidtoname_downlevel.obj
 0002:0000b2f8       ??_C@_1M@BNFIGBKG@?$AAe?$AAn?$AA?9?$AAg?$AAb@ 00000001800652f8     libucrt:lcidtoname_downlevel.obj
 0002:0000b308       ??_C@_1M@LKIFDIGP@?$AAe?$AAn?$AA?9?$AAi?$AAe@ 0000000180065308     libucrt:lcidtoname_downlevel.obj
 0002:0000b318       ??_C@_1M@PJKFGCCO@?$AAe?$AAn?$AA?9?$AAj?$AAm@ 0000000180065318     libucrt:lcidtoname_downlevel.obj
 0002:0000b328       ??_C@_1M@KPPKEPBO@?$AAe?$AAn?$AA?9?$AAn?$AAz@ 0000000180065328     libucrt:lcidtoname_downlevel.obj
 0002:0000b338       ??_C@_1M@GMDGLDOB@?$AAe?$AAn?$AA?9?$AAp?$AAh@ 0000000180065338     libucrt:lcidtoname_downlevel.obj
 0002:0000b348       ??_C@_1M@ONGIBJNA@?$AAe?$AAn?$AA?9?$AAt?$AAt@ 0000000180065348     libucrt:lcidtoname_downlevel.obj
 0002:0000b358       ??_C@_1M@LLODPCMM@?$AAe?$AAn?$AA?9?$AAu?$AAs@ 0000000180065358     libucrt:lcidtoname_downlevel.obj
 0002:0000b368       ??_C@_1M@LAKFNPAN@?$AAe?$AAn?$AA?9?$AAz?$AAa@ 0000000180065368     libucrt:lcidtoname_downlevel.obj
 0002:0000b378       ??_C@_1M@MFNHNHEO@?$AAe?$AAn?$AA?9?$AAz?$AAw@ 0000000180065378     libucrt:lcidtoname_downlevel.obj
 0002:0000b388       ??_C@_1M@EJEINPHM@?$AAe?$AAs?$AA?9?$AAa?$AAr@ 0000000180065388     libucrt:lcidtoname_downlevel.obj
 0002:0000b398       ??_C@_1M@GNKPCCJA@?$AAe?$AAs?$AA?9?$AAb?$AAo@ 0000000180065398     libucrt:lcidtoname_downlevel.obj
 0002:0000b3a8       ??_C@_1M@LEEGFONL@?$AAe?$AAs?$AA?9?$AAc?$AAl@ 00000001800653a8     libucrt:lcidtoname_downlevel.obj
 0002:0000b3b8       ??_C@_1M@KGPDPBDF@?$AAe?$AAs?$AA?9?$AAc?$AAo@ 00000001800653b8     libucrt:lcidtoname_downlevel.obj
 0002:0000b3c8       ??_C@_1M@EIAHOHH@?$AAe?$AAs?$AA?9?$AAc?$AAr@ 00000001800653c8     libucrt:lcidtoname_downlevel.obj
 0002:0000b3d8       ??_C@_1M@LLPGMBIN@?$AAe?$AAs?$AA?9?$AAd?$AAo@ 00000001800653d8     libucrt:lcidtoname_downlevel.obj
 0002:0000b3e8       ??_C@_1M@DKHMKNJA@?$AAe?$AAs?$AA?9?$AAe?$AAc@ 00000001800653e8     libucrt:lcidtoname_downlevel.obj
 0002:0000b3f8       ??_C@_1M@GKGFPKAP@?$AAe?$AAs?$AA?9?$AAe?$AAs@ 00000001800653f8     libucrt:lcidtoname_downlevel.obj
 0002:0000b408       ??_C@_1M@LKHKGDLN@?$AAe?$AAs?$AA?9?$AAg?$AAt@ 0000000180065408     libucrt:lcidtoname_downlevel.obj
 0002:0000b418       ??_C@_1M@HEIIGGJD@?$AAe?$AAs?$AA?9?$AAh?$AAn@ 0000000180065418     libucrt:lcidtoname_downlevel.obj
 0002:0000b428       ??_C@_1M@FBDHPPGD@?$AAe?$AAs?$AA?9?$AAm?$AAx@ 0000000180065428     libucrt:lcidtoname_downlevel.obj
 0002:0000b438       ??_C@_1M@DPAGLNDH@?$AAe?$AAs?$AA?9?$AAn?$AAi@ 0000000180065438     libucrt:lcidtoname_downlevel.obj
 0002:0000b448       ??_C@_1M@MDGOPGDD@?$AAe?$AAs?$AA?9?$AAp?$AAa@ 0000000180065448     libucrt:lcidtoname_downlevel.obj
 0002:0000b458       ??_C@_1M@EMAMGBGE@?$AAe?$AAs?$AA?9?$AAp?$AAe@ 0000000180065458     libucrt:lcidtoname_downlevel.obj
 0002:0000b468       ??_C@_1M@IBMCAOEC@?$AAe?$AAs?$AA?9?$AAp?$AAr@ 0000000180065468     libucrt:lcidtoname_downlevel.obj
 0002:0000b478       ??_C@_1M@FGMDIJED@?$AAe?$AAs?$AA?9?$AAp?$AAy@ 0000000180065478     libucrt:lcidtoname_downlevel.obj
 0002:0000b488       ??_C@_1M@IIDEOLLL@?$AAe?$AAs?$AA?9?$AAs?$AAv@ 0000000180065488     libucrt:lcidtoname_downlevel.obj
 0002:0000b498       ??_C@_1M@GAOBIPA@?$AAe?$AAs?$AA?9?$AAu?$AAy@ 0000000180065498     libucrt:lcidtoname_downlevel.obj
 0002:0000b4a8       ??_C@_1M@JKFFICHJ@?$AAe?$AAs?$AA?9?$AAv?$AAe@ 00000001800654a8     libucrt:lcidtoname_downlevel.obj
 0002:0000b4b8       ??_C@_1M@PNMLOJDF@?$AAe?$AAt?$AA?9?$AAe?$AAe@ 00000001800654b8     libucrt:lcidtoname_downlevel.obj
 0002:0000b4c8       ??_C@_1M@GHHLIKEI@?$AAe?$AAu?$AA?9?$AAe?$AAs@ 00000001800654c8     libucrt:lcidtoname_downlevel.obj
 0002:0000b4d8       ??_C@_1M@PBNONODE@?$AAf?$AAa?$AA?9?$AAi?$AAr@ 00000001800654d8     libucrt:lcidtoname_downlevel.obj
 0002:0000b4e8       ??_C@_1M@JEEHPMIL@?$AAf?$AAi?$AA?9?$AAf?$AAi@ 00000001800654e8     libucrt:lcidtoname_downlevel.obj
 0002:0000b4f8       ??_C@_1M@LMDCNDBA@?$AAf?$AAo?$AA?9?$AAf?$AAo@ 00000001800654f8     libucrt:lcidtoname_downlevel.obj
 0002:0000b508       ??_C@_1M@JKEOHLDK@?$AAf?$AAr?$AA?9?$AAb?$AAe@ 0000000180065508     libucrt:lcidtoname_downlevel.obj
 0002:0000b518       ??_C@_1M@NOHADPMI@?$AAf?$AAr?$AA?9?$AAc?$AAa@ 0000000180065518     libucrt:lcidtoname_downlevel.obj
 0002:0000b528       ??_C@_1M@KDHIHAEC@?$AAf?$AAr?$AA?9?$AAc?$AAh@ 0000000180065528     libucrt:lcidtoname_downlevel.obj
 0002:0000b538       ??_C@_1M@MMBBFGAK@?$AAf?$AAr?$AA?9?$AAf?$AAr@ 0000000180065538     libucrt:lcidtoname_downlevel.obj
 0002:0000b548       ??_C@_1M@PAFNENNF@?$AAf?$AAr?$AA?9?$AAl?$AAu@ 0000000180065548     libucrt:lcidtoname_downlevel.obj
 0002:0000b558       ??_C@_1M@EOHDJGDD@?$AAf?$AAr?$AA?9?$AAm?$AAc@ 0000000180065558     libucrt:lcidtoname_downlevel.obj
 0002:0000b568       ??_C@_1M@FAPLLOPF@?$AAg?$AAl?$AA?9?$AAe?$AAs@ 0000000180065568     libucrt:lcidtoname_downlevel.obj
 0002:0000b578       ??_C@_1M@FOPBFLOO@?$AAg?$AAu?$AA?9?$AAi?$AAn@ 0000000180065578     libucrt:lcidtoname_downlevel.obj
 0002:0000b588       ??_C@_1M@KBMCINPM@?$AAh?$AAe?$AA?9?$AAi?$AAl@ 0000000180065588     libucrt:lcidtoname_downlevel.obj
 0002:0000b598       ??_C@_1M@BBPHKFPJ@?$AAh?$AAi?$AA?9?$AAi?$AAn@ 0000000180065598     libucrt:lcidtoname_downlevel.obj
 0002:0000b5a8       ??_C@_1M@PMBNDPHD@?$AAh?$AAr?$AA?9?$AAb?$AAa@ 00000001800655a8     libucrt:lcidtoname_downlevel.obj
 0002:0000b5b8       ??_C@_1M@BPCKOEGE@?$AAh?$AAr?$AA?9?$AAh?$AAr@ 00000001800655b8     libucrt:lcidtoname_downlevel.obj
 0002:0000b5c8       ??_C@_1M@GACBMHKE@?$AAh?$AAu?$AA?9?$AAh?$AAu@ 00000001800655c8     libucrt:lcidtoname_downlevel.obj
 0002:0000b5d8       ??_C@_1M@MILPAJJC@?$AAh?$AAy?$AA?9?$AAa?$AAm@ 00000001800655d8     libucrt:lcidtoname_downlevel.obj
 0002:0000b5e8       ??_C@_1M@BABBICEC@?$AAi?$AAd?$AA?9?$AAi?$AAd@ 00000001800655e8     libucrt:lcidtoname_downlevel.obj
 0002:0000b5f8       ??_C@_1M@BIKNHHPF@?$AAi?$AAs?$AA?9?$AAi?$AAs@ 00000001800655f8     libucrt:lcidtoname_downlevel.obj
 0002:0000b608       ??_C@_1M@NMPCJPHE@?$AAi?$AAt?$AA?9?$AAc?$AAh@ 0000000180065608     libucrt:lcidtoname_downlevel.obj
 0002:0000b618       ??_C@_1M@GHKGFEDF@?$AAi?$AAt?$AA?9?$AAi?$AAt@ 0000000180065618     libucrt:lcidtoname_downlevel.obj
 0002:0000b628       ??_C@_1M@NIEJCJJA@?$AAj?$AAa?$AA?9?$AAj?$AAp@ 0000000180065628     libucrt:lcidtoname_downlevel.obj
 0002:0000b638       ??_C@_1M@JILFNBIM@?$AAk?$AAa?$AA?9?$AAg?$AAe@ 0000000180065638     libucrt:lcidtoname_downlevel.obj
 0002:0000b648       ??_C@_1M@PACPMGPH@?$AAk?$AAk?$AA?9?$AAk?$AAz@ 0000000180065648     libucrt:lcidtoname_downlevel.obj
 0002:0000b658       ??_C@_1M@IELFGMHA@?$AAk?$AAn?$AA?9?$AAi?$AAn@ 0000000180065658     libucrt:lcidtoname_downlevel.obj
 0002:0000b668       ??_C@_1O@IBBJHCH@?$AAk?$AAo?$AAk?$AA?9?$AAi?$AAn@ 0000000180065668     libucrt:lcidtoname_downlevel.obj
 0002:0000b678       ??_C@_1M@DMHAEOGC@?$AAk?$AAo?$AA?9?$AAk?$AAr@ 0000000180065678     libucrt:lcidtoname_downlevel.obj
 0002:0000b688       ??_C@_1M@HBAHBIGA@?$AAk?$AAy?$AA?9?$AAk?$AAg@ 0000000180065688     libucrt:lcidtoname_downlevel.obj
 0002:0000b698       ??_C@_1M@KPMILCJG@?$AAl?$AAt?$AA?9?$AAl?$AAt@ 0000000180065698     libucrt:lcidtoname_downlevel.obj
 0002:0000b6a8       ??_C@_1M@BDEKKCA@?$AAl?$AAv?$AA?9?$AAl?$AAv@ 00000001800656a8     libucrt:lcidtoname_downlevel.obj
 0002:0000b6b8       ??_C@_1M@ELCKCCJJ@?$AAm?$AAi?$AA?9?$AAn?$AAz@ 00000001800656b8     libucrt:lcidtoname_downlevel.obj
 0002:0000b6c8       ??_C@_1M@CBOOLAPA@?$AAm?$AAk?$AA?9?$AAm?$AAk@ 00000001800656c8     libucrt:lcidtoname_downlevel.obj
 0002:0000b6d8       ??_C@_1M@GPHNBJKN@?$AAm?$AAl?$AA?9?$AAi?$AAn@ 00000001800656d8     libucrt:lcidtoname_downlevel.obj
 0002:0000b6e8       ??_C@_1M@PABJILIG@?$AAm?$AAn?$AA?9?$AAm?$AAn@ 00000001800656e8     libucrt:lcidtoname_downlevel.obj
 0002:0000b6f8       ??_C@_1M@FGBKKIPG@?$AAm?$AAr?$AA?9?$AAi?$AAn@ 00000001800656f8     libucrt:lcidtoname_downlevel.obj
 0002:0000b708       ??_C@_1M@NDBPDDAL@?$AAm?$AAs?$AA?9?$AAb?$AAn@ 0000000180065708     libucrt:lcidtoname_downlevel.obj
 0002:0000b718       ??_C@_1M@OPIHOOPI@?$AAm?$AAs?$AA?9?$AAm?$AAy@ 0000000180065718     libucrt:lcidtoname_downlevel.obj
 0002:0000b728       ??_C@_1M@PPDBCNFM@?$AAm?$AAt?$AA?9?$AAm?$AAt@ 0000000180065728     libucrt:lcidtoname_downlevel.obj
 0002:0000b738       ??_C@_1M@KDJDKMDD@?$AAn?$AAb?$AA?9?$AAn?$AAo@ 0000000180065738     libucrt:lcidtoname_downlevel.obj
 0002:0000b748       ??_C@_1M@KFCFLMJP@?$AAn?$AAl?$AA?9?$AAb?$AAe@ 0000000180065748     libucrt:lcidtoname_downlevel.obj
 0002:0000b758       ??_C@_1M@KPOPDDGO@?$AAn?$AAl?$AA?9?$AAn?$AAl@ 0000000180065758     libucrt:lcidtoname_downlevel.obj
 0002:0000b768       ??_C@_1M@LJKPEMLN@?$AAn?$AAn?$AA?9?$AAn?$AAo@ 0000000180065768     libucrt:lcidtoname_downlevel.obj
 0002:0000b778       ??_C@_1M@BDGHHBFL@?$AAn?$AAs?$AA?9?$AAz?$AAa@ 0000000180065778     libucrt:lcidtoname_downlevel.obj
 0002:0000b788       ??_C@_1M@IDEHOAP@?$AAp?$AAa?$AA?9?$AAi?$AAn@ 0000000180065788     libucrt:lcidtoname_downlevel.obj
 0002:0000b798       ??_C@_1M@HDBKGOGH@?$AAp?$AAl?$AA?9?$AAp?$AAl@ 0000000180065798     libucrt:lcidtoname_downlevel.obj
 0002:0000b7a8       ??_C@_1M@LJLLCMEH@?$AAp?$AAt?$AA?9?$AAb?$AAr@ 00000001800657a8     libucrt:lcidtoname_downlevel.obj
 0002:0000b7b8       ??_C@_1M@NCMONAAL@?$AAp?$AAt?$AA?9?$AAp?$AAt@ 00000001800657b8     libucrt:lcidtoname_downlevel.obj
 0002:0000b7c8       ??_C@_1O@EAKMAJDN@?$AAq?$AAu?$AAz?$AA?9?$AAb?$AAo@ 00000001800657c8     libucrt:lcidtoname_downlevel.obj
 0002:0000b7d8       ??_C@_1O@BHHPIGDN@?$AAq?$AAu?$AAz?$AA?9?$AAe?$AAc@ 00000001800657d8     libucrt:lcidtoname_downlevel.obj
 0002:0000b7e8       ??_C@_1O@GBAPEKMJ@?$AAq?$AAu?$AAz?$AA?9?$AAp?$AAe@ 00000001800657e8     libucrt:lcidtoname_downlevel.obj
 0002:0000b7f8       ??_C@_1M@CLGLEFBO@?$AAr?$AAo?$AA?9?$AAr?$AAo@ 00000001800657f8     libucrt:lcidtoname_downlevel.obj
 0002:0000b808       ??_C@_1M@CEEDODME@?$AAr?$AAu?$AA?9?$AAr?$AAu@ 0000000180065808     libucrt:lcidtoname_downlevel.obj
 0002:0000b818       ??_C@_1M@HPKKKMPP@?$AAs?$AAa?$AA?9?$AAi?$AAn@ 0000000180065818     libucrt:lcidtoname_downlevel.obj
 0002:0000b828       ??_C@_1M@BKMAIGOJ@?$AAs?$AAe?$AA?9?$AAf?$AAi@ 0000000180065828     libucrt:lcidtoname_downlevel.obj
 0002:0000b838       ??_C@_1M@NDPIFLFI@?$AAs?$AAe?$AA?9?$AAn?$AAo@ 0000000180065838     libucrt:lcidtoname_downlevel.obj
 0002:0000b848       ??_C@_1M@DANKKHJ@?$AAs?$AAe?$AA?9?$AAs?$AAe@ 0000000180065848     libucrt:lcidtoname_downlevel.obj
 0002:0000b858       ??_C@_1M@PNBLONPJ@?$AAs?$AAk?$AA?9?$AAs?$AAk@ 0000000180065858     libucrt:lcidtoname_downlevel.obj
 0002:0000b868       ??_C@_1M@LFMODOAL@?$AAs?$AAl?$AA?9?$AAs?$AAi@ 0000000180065868     libucrt:lcidtoname_downlevel.obj
 0002:0000b878       ??_C@_1O@DFKOMPG@?$AAs?$AAm?$AAa?$AA?9?$AAn?$AAo@ 0000000180065878     libucrt:lcidtoname_downlevel.obj
 0002:0000b888       ??_C@_1O@NDKPBNNH@?$AAs?$AAm?$AAa?$AA?9?$AAs?$AAe@ 0000000180065888     libucrt:lcidtoname_downlevel.obj
 0002:0000b898       ??_C@_1O@PLLKBHAB@?$AAs?$AAm?$AAj?$AA?9?$AAn?$AAo@ 0000000180065898     libucrt:lcidtoname_downlevel.obj
 0002:0000b8a8       ??_C@_1O@CLEPOGCA@?$AAs?$AAm?$AAj?$AA?9?$AAs?$AAe@ 00000001800658a8     libucrt:lcidtoname_downlevel.obj
 0002:0000b8b8       ??_C@_1O@DLGJGKMK@?$AAs?$AAm?$AAn?$AA?9?$AAf?$AAi@ 00000001800658b8     libucrt:lcidtoname_downlevel.obj
 0002:0000b8c8       ??_C@_1O@OJDJGAJC@?$AAs?$AAm?$AAs?$AA?9?$AAf?$AAi@ 00000001800658c8     libucrt:lcidtoname_downlevel.obj
 0002:0000b8d8       ??_C@_1M@BOFOGHPB@?$AAs?$AAq?$AA?9?$AAa?$AAl@ 00000001800658d8     libucrt:lcidtoname_downlevel.obj
 0002:0000b8e8       ??_C@_1BG@LJBBIPGB@?$AAs?$AAr?$AA?9?$AAb?$AAa?$AA?9?$AAc?$AAy?$AAr?$AAl@ 00000001800658e8     libucrt:lcidtoname_downlevel.obj
 0002:0000b900       ??_C@_1BG@JLBENFOE@?$AAs?$AAr?$AA?9?$AAb?$AAa?$AA?9?$AAl?$AAa?$AAt?$AAn@ 0000000180065900     libucrt:lcidtoname_downlevel.obj
 0002:0000b918       ??_C@_1BG@KODPNHE@?$AAs?$AAr?$AA?9?$AAs?$AAp?$AA?9?$AAc?$AAy?$AAr?$AAl@ 0000000180065918     libucrt:lcidtoname_downlevel.obj
 0002:0000b930       ??_C@_1BG@CIOGKHPB@?$AAs?$AAr?$AA?9?$AAs?$AAp?$AA?9?$AAl?$AAa?$AAt?$AAn@ 0000000180065930     libucrt:lcidtoname_downlevel.obj
 0002:0000b948       ??_C@_1M@NGFJLMAC@?$AAs?$AAv?$AA?9?$AAf?$AAi@ 0000000180065948     libucrt:lcidtoname_downlevel.obj
 0002:0000b958       ??_C@_1M@MPJEJAJC@?$AAs?$AAv?$AA?9?$AAs?$AAe@ 0000000180065958     libucrt:lcidtoname_downlevel.obj
 0002:0000b968       ??_C@_1M@MPNDHLFK@?$AAs?$AAw?$AA?9?$AAk?$AAe@ 0000000180065968     libucrt:lcidtoname_downlevel.obj
 0002:0000b978       ??_C@_1O@KOHBJJI@?$AAs?$AAy?$AAr?$AA?9?$AAs?$AAy@ 0000000180065978     libucrt:lcidtoname_downlevel.obj
 0002:0000b988       ??_C@_1M@LDCEFHA@?$AAt?$AAa?$AA?9?$AAi?$AAn@ 0000000180065988     libucrt:lcidtoname_downlevel.obj
 0002:0000b998       ??_C@_1M@CNJOFAK@?$AAt?$AAe?$AA?9?$AAi?$AAn@ 0000000180065998     libucrt:lcidtoname_downlevel.obj
 0002:0000b9a8       ??_C@_1M@GNAECACD@?$AAt?$AAh?$AA?9?$AAt?$AAh@ 00000001800659a8     libucrt:lcidtoname_downlevel.obj
 0002:0000b9b8       ??_C@_1M@CHBIHOJO@?$AAt?$AAn?$AA?9?$AAz?$AAa@ 00000001800659b8     libucrt:lcidtoname_downlevel.obj
 0002:0000b9c8       ??_C@_1M@GCCMIGPJ@?$AAt?$AAr?$AA?9?$AAt?$AAr@ 00000001800659c8     libucrt:lcidtoname_downlevel.obj
 0002:0000b9d8       ??_C@_1M@CELMCNBK@?$AAt?$AAt?$AA?9?$AAr?$AAu@ 00000001800659d8     libucrt:lcidtoname_downlevel.obj
 0002:0000b9e8       ??_C@_1M@KLMCELGA@?$AAu?$AAk?$AA?9?$AAu?$AAa@ 00000001800659e8     libucrt:lcidtoname_downlevel.obj
 0002:0000b9f8       ??_C@_1M@EPAJJAJF@?$AAu?$AAr?$AA?9?$AAp?$AAk@ 00000001800659f8     libucrt:lcidtoname_downlevel.obj
 0002:0000ba08       ??_C@_1BG@GEGPMCDJ@?$AAu?$AAz?$AA?9?$AAu?$AAz?$AA?9?$AAc?$AAy?$AAr?$AAl@ 0000000180065a08     libucrt:lcidtoname_downlevel.obj
 0002:0000ba20       ??_C@_1BG@EGGKJILM@?$AAu?$AAz?$AA?9?$AAu?$AAz?$AA?9?$AAl?$AAa?$AAt?$AAn@ 0000000180065a20     libucrt:lcidtoname_downlevel.obj
 0002:0000ba38       ??_C@_1M@GFOCLFF@?$AAv?$AAi?$AA?9?$AAv?$AAn@ 0000000180065a38     libucrt:lcidtoname_downlevel.obj
 0002:0000ba48       ??_C@_1M@CPAMEDFI@?$AAx?$AAh?$AA?9?$AAz?$AAa@ 0000000180065a48     libucrt:lcidtoname_downlevel.obj
 0002:0000ba58       ??_C@_1O@EBKIFIGN@?$AAz?$AAh?$AA?9?$AAc?$AAh?$AAs@ 0000000180065a58     libucrt:lcidtoname_downlevel.obj
 0002:0000ba68       ??_C@_1O@NMHPGANE@?$AAz?$AAh?$AA?9?$AAc?$AAh?$AAt@ 0000000180065a68     libucrt:lcidtoname_downlevel.obj
 0002:0000ba78       ??_C@_1M@LPINJOMC@?$AAz?$AAh?$AA?9?$AAc?$AAn@ 0000000180065a78     libucrt:lcidtoname_downlevel.obj
 0002:0000ba88       ??_C@_1M@OCJEJODD@?$AAz?$AAh?$AA?9?$AAh?$AAk@ 0000000180065a88     libucrt:lcidtoname_downlevel.obj
 0002:0000ba98       ??_C@_1M@DNDLJINH@?$AAz?$AAh?$AA?9?$AAm?$AAo@ 0000000180065a98     libucrt:lcidtoname_downlevel.obj
 0002:0000baa8       ??_C@_1M@MBFDNDND@?$AAz?$AAh?$AA?9?$AAs?$AAg@ 0000000180065aa8     libucrt:lcidtoname_downlevel.obj
 0002:0000bab8       ??_C@_1M@IMEPLEPE@?$AAz?$AAh?$AA?9?$AAt?$AAw@ 0000000180065ab8     libucrt:lcidtoname_downlevel.obj
 0002:0000bac8       ??_C@_1M@BBGHNHJP@?$AAz?$AAu?$AA?9?$AAz?$AAa@ 0000000180065ac8     libucrt:lcidtoname_downlevel.obj
 0002:0000bad4       ??_C@_05DNEBIAHO@1?$CDINF@ 0000000180065ad4     libucrt:cfout.obj
 0002:0000badc       ??_C@_06IMKFLFPG@1?$CDQNAN@ 0000000180065adc     libucrt:cfout.obj
 0002:0000bae4       ??_C@_06PGGFOGJG@1?$CDSNAN@ 0000000180065ae4     libucrt:cfout.obj
 0002:0000baec       ??_C@_05PHHOCPM@1?$CDIND@  0000000180065aec     libucrt:cfout.obj
 0002:0000bd60       __log10_256_lead           0000000180065d60     libucrt:log10_256_lead_tail_table.obj
 0002:0000c570       __log10_256_tail           0000000180066570     libucrt:log10_256_lead_tail_table.obj
 0002:0000cd78       ??_C@_1BA@BALFACEM@?$AAC?$AAO?$AAN?$AAO?$AAU?$AAT?$AA$@ 0000000180066d78     libucrt:initcon.obj
 0002:0000cd88       ??_C@_1BK@DBDEIDLH@?$AAK?$AAE?$AAR?$AAN?$AAE?$AAL?$AA3?$AA2?$AA?4?$AAD?$AAL?$AAL@ 0000000180066d88     DelayImp:delayhlp.obj
 0002:0000cda8       ??_C@_0BI@OMNLIJDB@AcquireSRWLockExclusive@ 0000000180066da8     DelayImp:delayhlp.obj
 0002:0000cdc0       ??_C@_0BI@HMIEPCNJ@ReleaseSRWLockExclusive@ 0000000180066dc0     DelayImp:delayhlp.obj
 0002:0000cdd8       __pfnDliFailureHook2       0000000180066dd8     DelayImp:delayhk1.obj
 0002:0000cde0       _load_config_used          0000000180066de0     LIBCMT:loadcfg.obj
 0002:0000cf20       t_fn                       0000000180066f20     aesb.obj
 0002:0000df60       sigma                      0000000180067f60     blake256.obj
 0002:0000e040       cst                        0000000180068040     blake256.obj
 0002:0000e098       fe_d2                      0000000180068098     crypto-ops-data.obj
 0002:0000e0c0       fe_fffb2                   00000001800680c0     crypto-ops-data.obj
 0002:0000e0e8       fe_fffb4                   00000001800680e8     crypto-ops-data.obj
 0002:0000e110       ge_base                    0000000180068110     crypto-ops-data.obj
 0002:00015910       fe_ma2                     000000018006f910     crypto-ops-data.obj
 0002:00015938       fe_fffb1                   000000018006f938     crypto-ops-data.obj
 0002:00015960       ge_Bi                      000000018006f960     crypto-ops-data.obj
 0002:00015d20       fe_fffb3                   000000018006fd20     crypto-ops-data.obj
 0002:00015d48       fe_ma                      000000018006fd48     crypto-ops-data.obj
 0002:00015d70       fe_sqrtm1                  000000018006fd70     crypto-ops-data.obj
 0002:00015d98       fe_d                       000000018006fd98     crypto-ops-data.obj
 0002:00015dc0       T                          000000018006fdc0     groestl.obj
 0002:000165c0       E8_bitslice_roundconstant  00000001800705c0     jh.obj
 0002:00016b00       JH512_H0                   0000000180070b00     jh.obj
 0002:00016b80       JH224_H0                   0000000180070b80     jh.obj
 0002:00016c00       JH384_H0                   0000000180070c00     jh.obj
 0002:00016c80       JH256_H0                   0000000180070c80     jh.obj
 0002:00016d00       keccakf_rndc               0000000180070d00     keccak.obj
 0002:00016dc0       keccakf_rotc               0000000180070dc0     keccak.obj
 0002:00016e20       keccakf_piln               0000000180070e20     keccak.obj
 0002:00017690       SKEIN_512_IV_224           0000000180071690     skein.obj
 0002:000176d0       SKEIN_512_IV_512           00000001800716d0     skein.obj
 0002:00017710       SKEIN1024_IV_512           0000000180071710     skein.obj
 0002:00017790       SKEIN_512_IV_384           0000000180071790     skein.obj
 0002:000177d0       SKEIN_512_IV_256           00000001800717d0     skein.obj
 0002:00017810       SKEIN1024_IV_384           0000000180071810     skein.obj
 0002:00017890       SKEIN1024_IV_1024          0000000180071890     skein.obj
 0002:00017914       FLAG_clear_internal_memory 0000000180071914     core.obj
 0002:00017938       __pfnDliNotifyHook2        0000000180071938     win_delay_load_hook.obj
 0002:00017d98       ??_C@_0BC@BDKFLDHL@unknown?5exception@ 0000000180071d98     crypto.obj
 0002:00017db0       ??_C@_0BF@KINCDENJ@bad?5array?5new?5length@ 0000000180071db0     crypto.obj
 0002:00017dc8       ??_C@_0BA@FOIKENOD@vector?5too?5long@ 0000000180071dc8     crypto.obj
 0002:00017dd8       ??_7exception@stdext@@6B@  0000000180071dd8     crypto.obj
 0002:00017df0       ??_7bad_array_new_length@stdext@@6B@ 0000000180071df0     crypto.obj
 0002:00017e08       ??_C@_0BB@GCADKGJO@map?1set?5too?5long@ 0000000180071e08     multisig.obj
 0002:00017e20       ??_C@_0BJ@DHFDPMIM@invalid?5vector?5subscript@ 0000000180071e20     multisig.obj
 0002:00017e39       ??_C@_00CNPNBAHC@@         0000000180071e39     oaes_lib.obj
 0002:00017e3c       ??_C@_01EEMJAFIK@?6@       0000000180071e3c     oaes_lib.obj
 0002:00017e40       ??_C@_0DF@OJOCPDGH@Cryptonight?5variant?51?5need?5at?5l@ 0000000180071e40     slow-hash-portable.obj
 0002:00017e78       ??_C@_0BA@JFNIOLAK@string?5too?5long@ 0000000180071e78     StringTools.obj
 0002:00017e88       ??_C@_0BL@PKFANFNI@fromHex?3?5invalid?5character@ 0000000180071e88     StringTools.obj
 0002:00017ea8       ??_C@_0BN@GGIEHCCN@fromHex?3?5invalid?5string?5size@ 0000000180071ea8     StringTools.obj
 0002:00017ec8       ??_C@_0BB@JCEFLFJE@0123456789abcdef@ 0000000180071ec8     StringTools.obj
 0002:00017ee0       ??_C@_07PHAJODPE@Argon2d@  0000000180071ee0     argon2.obj
 0002:00017ee8       ??_C@_07ECKHJNLJ@Argon2i@  0000000180071ee8     argon2.obj
 0002:00017ef0       ??_C@_08LDGOACBG@Argon2id@ 0000000180071ef0     argon2.obj
 0002:00017f00       ??_C@_0CJ@EBIOIHBJ@?$DN?$DN?$DN?$DN?$DN?$DN?$DN?$DN?$DN?$DN?$DN?$DN?$DN?$DN?$DN?$DN?$DN?$DN?$DN?$DN?$DN?$DN?$DN?$DN?$DN?$DN?$DN?$DN?$DN?$DN?$DN@ 0000000180071f00     genkat.obj
 0002:00017f30       ??_C@_0BG@COJDLLJI@?$CFs?5version?5number?5?$CFd?6@ 0000000180071f30     genkat.obj
 0002:00017f50       ??_C@_0EN@IIFFGFMJ@Memory?3?5?$CFu?5KiB?0?5Iterations?3?5?$CFu?0@ 0000000180071f50     genkat.obj
 0002:00017fa0       ??_C@_0P@FMBCLNEI@Password?$FL?$CFu?$FN?3?5@ 0000000180071fa0     genkat.obj
 0002:00017fb0       ??_C@_08DBIJHJBE@CLEARED?6@ 0000000180071fb0     genkat.obj
 0002:00017fbc       ??_C@_06FNBBCMBJ@?$CF2?42x?5@ 0000000180071fbc     genkat.obj
 0002:00017fc8       ??_C@_0L@BLNCKCEO@Salt?$FL?$CFu?$FN?3?5@ 0000000180071fc8     genkat.obj
 0002:00017fd8       ??_C@_0N@DDMANCCL@Secret?$FL?$CFu?$FN?3?5@ 0000000180071fd8     genkat.obj
 0002:00017fe8       ??_C@_0BG@OGLBGJJG@Associated?5data?$FL?$CFu?$FN?3?5@ 0000000180071fe8     genkat.obj
 0002:00018000       ??_C@_0BF@BFIDIMIN@Pre?9hashing?5digest?3?5@ 0000000180072000     genkat.obj
 0002:00018018       ??_C@_05GHPJMBBO@Tag?3?5@  0000000180072018     genkat.obj
 0002:00018020       ??_C@_0BC@CJJDMFII@?6?5After?5pass?5?$CFu?3?6@ 0000000180072020     genkat.obj
 0002:00018038       ??_C@_0BL@JKBPNDHC@Block?5?$CF?44u?5?$FL?$CF3u?$FN?3?5?$CF016llx?6@ 0000000180072038     genkat.obj
 0002:00018058       ??_C@_09KFMJHHJJ@?$CIdefault?$CJ@ 0000000180072058     impl-select.obj
 0002:00018064       ??_C@_01GBGANLPD@0@        0000000180072064     turtlecoin-crypto.obj
 0002:00018068       ??_C@_0L@CEFBCHGP@signatures@ 0000000180072068     turtlecoin-crypto-node.obj
 0002:00018074       ??_C@_03ICHNJLJF@key@      0000000180072074     turtlecoin-crypto-node.obj
 0002:00018078       ??_C@_09IDENFCJL@publicKey@ 0000000180072078     turtlecoin-crypto-node.obj
 0002:00018088       ??_C@_09JKPDMHAN@secretKey@ 0000000180072088     turtlecoin-crypto-node.obj
 0002:00018098       ??_C@_0BN@JLBPFCPF@calculateMultisigPrivateKeys@ 0000000180072098     turtlecoin-crypto-node.obj
 0002:000180b8       ??_C@_0BK@OCELLCOI@calculateSharedPrivateKey@ 00000001800720b8     turtlecoin-crypto-node.obj
 0002:000180d8       ??_C@_0BJ@IKGOKAAL@calculateSharedPublicKey@ 00000001800720d8     turtlecoin-crypto-node.obj
 0002:000180f8       ??_C@_0BK@PPLKHBDL@generatePartialSigningKey@ 00000001800720f8     turtlecoin-crypto-node.obj
 0002:00018118       ??_C@_0BG@GNEOKPEK@prepareRingSignatures@ 0000000180072118     turtlecoin-crypto-node.obj
 0002:00018130       ??_C@_0BH@CAMKOJOB@completeRingSignatures@ 0000000180072130     turtlecoin-crypto-node.obj
 0002:00018148       ??_C@_0BG@PFLNNLOF@restoreRingSignatures@ 0000000180072148     turtlecoin-crypto-node.obj
 0002:00018160       ??_C@_0BA@DPHPBCMP@restoreKeyImage@ 0000000180072160     turtlecoin-crypto-node.obj
 0002:00018170       ??_C@_08DKOOKBJM@checkKey@ 0000000180072170     turtlecoin-crypto-node.obj
 0002:00018180       ??_C@_0BD@JOJALDLE@checkRingSignature@ 0000000180072180     turtlecoin-crypto-node.obj
 0002:00018198       ??_C@_0P@IEKOPJHI@checkSignature@ 0000000180072198     turtlecoin-crypto-node.obj
 0002:000181a8       ??_C@_0BA@DHHLPBDA@derivePublicKey@ 00000001800721a8     turtlecoin-crypto-node.obj
 0002:000181b8       ??_C@_0BA@COMFGEKG@deriveSecretKey@ 00000001800721b8     turtlecoin-crypto-node.obj
 0002:000181c8       ??_C@_0N@PIHFDKEN@generateKeys@ 00000001800721c8     turtlecoin-crypto-node.obj
 0002:000181d8       ??_C@_0BG@OFLGADCJ@generateKeyDerivation@ 00000001800721d8     turtlecoin-crypto-node.obj
 0002:000181f0       ??_C@_0BB@LDGHFCCN@generateKeyImage@ 00000001800721f0     turtlecoin-crypto-node.obj
 0002:00018208       ??_C@_0CK@BPNEJMEK@generatePrivateViewKeyFromPriva@ 0000000180072208     turtlecoin-crypto-node.obj
 0002:00018238       ??_C@_0CD@NMHOKDDD@generateDeterministicSubwalletK@ 0000000180072238     turtlecoin-crypto-node.obj
 0002:00018260       ??_C@_0CE@MLFPNJOA@generateViewKeysFromPrivateSpen@ 0000000180072260     turtlecoin-crypto-node.obj
 0002:00018288       ??_C@_0BH@ILEAKELB@generateRingSignatures@ 0000000180072288     turtlecoin-crypto-node.obj
 0002:000182a0       ??_C@_0BC@NADLEAKO@generateSignature@ 00000001800722a0     turtlecoin-crypto-node.obj
 0002:000182b8       ??_C@_0BE@KAOHGFA@hashToEllipticCurve@ 00000001800722b8     turtlecoin-crypto-node.obj
 0002:000182d0       ??_C@_0N@IJOKGAMJ@hashToScalar@ 00000001800722d0     turtlecoin-crypto-node.obj
 0002:000182e0       ??_C@_0O@HIBENBDD@scalarmultKey@ 00000001800722e0     turtlecoin-crypto-node.obj
 0002:000182f0       ??_C@_0L@DAOGPDCN@scReduce32@ 00000001800722f0     turtlecoin-crypto-node.obj
 0002:00018300       ??_C@_0BF@GMPIMKPG@secretKeyToPublicKey@ 0000000180072300     turtlecoin-crypto-node.obj
 0002:00018318       ??_C@_0L@CEAJPNGD@tree_depth@ 0000000180072318     turtlecoin-crypto-node.obj
 0002:00018328       ??_C@_09FAJELFML@tree_hash@ 0000000180072328     turtlecoin-crypto-node.obj
 0002:00018338       ??_C@_0M@GKMJDJIB@tree_branch@ 0000000180072338     turtlecoin-crypto-node.obj
 0002:00018348       ??_C@_0BG@DJDIGENN@tree_hash_from_branch@ 0000000180072348     turtlecoin-crypto-node.obj
 0002:00018360       ??_C@_0BC@KDIICPBP@underivePublicKey@ 0000000180072360     turtlecoin-crypto-node.obj
 0002:00018378       ??_C@_0L@HOBAGBGI@cnFastHash@ 0000000180072378     turtlecoin-crypto-node.obj
 0002:00018388       ??_C@_0N@OIBNDLOM@cn_fast_hash@ 0000000180072388     turtlecoin-crypto-node.obj
 0002:00018398       ??_C@_0BA@JLEEGOAA@cn_slow_hash_v0@ 0000000180072398     turtlecoin-crypto-node.obj
 0002:000183a8       ??_C@_0BA@ICFPFPEB@cn_slow_hash_v1@ 00000001800723a8     turtlecoin-crypto-node.obj
 0002:000183b8       ??_C@_0BA@KJHCAMIC@cn_slow_hash_v2@ 00000001800723b8     turtlecoin-crypto-node.obj
 0002:000183c8       ??_C@_0BF@CJKOPCBO@cn_lite_slow_hash_v0@ 00000001800723c8     turtlecoin-crypto-node.obj
 0002:000183e0       ??_C@_0BF@DALFMDFP@cn_lite_slow_hash_v1@ 00000001800723e0     turtlecoin-crypto-node.obj
 0002:000183f8       ??_C@_0BF@BLJIJAJM@cn_lite_slow_hash_v2@ 00000001800723f8     turtlecoin-crypto-node.obj
 0002:00018410       ??_C@_0BF@GGANGCBN@cn_dark_slow_hash_v0@ 0000000180072410     turtlecoin-crypto-node.obj
 0002:00018428       ??_C@_0BF@HPBGFDFM@cn_dark_slow_hash_v1@ 0000000180072428     turtlecoin-crypto-node.obj
 0002:00018440       ??_C@_0BF@FEDLAAJP@cn_dark_slow_hash_v2@ 0000000180072440     turtlecoin-crypto-node.obj
 0002:00018458       ??_C@_0BK@CFFBDHCK@cn_dark_lite_slow_hash_v0@ 0000000180072458     turtlecoin-crypto-node.obj
 0002:00018478       ??_C@_0BK@DMEKAGGL@cn_dark_lite_slow_hash_v1@ 0000000180072478     turtlecoin-crypto-node.obj
 0002:00018498       ??_C@_0BK@BHGHFFKI@cn_dark_lite_slow_hash_v2@ 0000000180072498     turtlecoin-crypto-node.obj
 0002:000184b8       ??_C@_0BH@ECJDHLGN@cn_turtle_slow_hash_v0@ 00000001800724b8     turtlecoin-crypto-node.obj
 0002:000184d0       ??_C@_0BH@FLIIEKCM@cn_turtle_slow_hash_v1@ 00000001800724d0     turtlecoin-crypto-node.obj
 0002:000184e8       ??_C@_0BH@HAKFBJOP@cn_turtle_slow_hash_v2@ 00000001800724e8     turtlecoin-crypto-node.obj
 0002:00018500       ??_C@_0BM@PHPHLLKM@cn_turtle_lite_slow_hash_v0@ 0000000180072500     turtlecoin-crypto-node.obj
 0002:00018520       ??_C@_0BM@OOOMIKON@cn_turtle_lite_slow_hash_v1@ 0000000180072520     turtlecoin-crypto-node.obj
 0002:00018540       ??_C@_0BM@MFMBNJCO@cn_turtle_lite_slow_hash_v2@ 0000000180072540     turtlecoin-crypto-node.obj
 0002:00018560       ??_C@_0BB@JOILICEN@chukwa_slow_hash@ 0000000180072560     turtlecoin-crypto-node.obj
 0002:00018580       ??_C@_0HE@EJPFCEEG@C?3?2Users?2TRRXITTE?2Desktop?2traai@ 0000000180072580     turtlecoin-crypto-node.obj
 0002:000185f8       ??_C@_0BB@PDJNODOJ@turtlecoincrypto@ 00000001800725f8     turtlecoin-crypto-node.obj
 0002:00018610       ??_C@_08JDDNMFDB@node?4exe@ 0000000180072610     win_delay_load_hook.obj
 0002:00018620       __real@4200000000000000    0000000180072620     slow-hash-portable.obj
 0002:00018628       __real@43e0000000000000    0000000180072628     slow-hash-portable.obj
 0002:00018630       __real@43f0000000000000    0000000180072630     slow-hash-portable.obj
 0002:00018640       __xmm@00000000000000000000000000000001 0000000180072640     crypto-ops.obj
 0002:00018650       __xmm@000000000000000000000000fff892fa 0000000180072650     crypto-ops.obj
 0002:00018660       __xmm@00000000000000010000000000000000 0000000180072660     crypto-ops.obj
 0002:00018700       _tls_used                  0000000180072700     LIBCMT:tlssup.obj
 0002:00018728       ??_R4type_info@@6B@        0000000180072728     LIBCMT:std_type_info_static.obj
 0002:00018750       ??_R3type_info@@8          0000000180072750     LIBCMT:std_type_info_static.obj
 0002:00018768       ??_R2type_info@@8          0000000180072768     LIBCMT:std_type_info_static.obj
 0002:00018778       ??_R1A@?0A@EA@type_info@@8 0000000180072778     LIBCMT:std_type_info_static.obj
 0002:000187a0       ??_R4exception@std@@6B@    00000001800727a0     LIBCMT:throw_bad_alloc.obj
 0002:000187c8       ??_R3exception@std@@8      00000001800727c8     LIBCMT:throw_bad_alloc.obj
 0002:000187e0       ??_R2exception@std@@8      00000001800727e0     LIBCMT:throw_bad_alloc.obj
 0002:000187f0       ??_R1A@?0A@EA@exception@std@@8 00000001800727f0     LIBCMT:throw_bad_alloc.obj
 0002:00018818       ??_R4bad_alloc@std@@6B@    0000000180072818     LIBCMT:throw_bad_alloc.obj
 0002:00018840       ??_R3bad_alloc@std@@8      0000000180072840     LIBCMT:throw_bad_alloc.obj
 0002:00018858       ??_R2bad_alloc@std@@8      0000000180072858     LIBCMT:throw_bad_alloc.obj
 0002:00018870       ??_R1A@?0A@EA@bad_alloc@std@@8 0000000180072870     LIBCMT:throw_bad_alloc.obj
 0002:00018898       ??_R4bad_array_new_length@std@@6B@ 0000000180072898     LIBCMT:throw_bad_alloc.obj
 0002:000188c0       ??_R3bad_array_new_length@std@@8 00000001800728c0     LIBCMT:throw_bad_alloc.obj
 0002:000188d8       ??_R2bad_array_new_length@std@@8 00000001800728d8     LIBCMT:throw_bad_alloc.obj
 0002:000188f8       ??_R1A@?0A@EA@bad_array_new_length@std@@8 00000001800728f8     LIBCMT:throw_bad_alloc.obj
 0002:00018920       ??_R4logic_error@std@@6B@  0000000180072920     libcpmt:xthrow.obj
 0002:00018948       ??_R3logic_error@std@@8    0000000180072948     libcpmt:xthrow.obj
 0002:00018960       ??_R2logic_error@std@@8    0000000180072960     libcpmt:xthrow.obj
 0002:00018978       ??_R1A@?0A@EA@logic_error@std@@8 0000000180072978     libcpmt:xthrow.obj
 0002:000189a0       ??_R4length_error@std@@6B@ 00000001800729a0     libcpmt:xthrow.obj
 0002:000189c8       ??_R3length_error@std@@8   00000001800729c8     libcpmt:xthrow.obj
 0002:000189e0       ??_R2length_error@std@@8   00000001800729e0     libcpmt:xthrow.obj
 0002:00018a00       ??_R1A@?0A@EA@length_error@std@@8 0000000180072a00     libcpmt:xthrow.obj
 0002:00018a28       ??_R4out_of_range@std@@6B@ 0000000180072a28     libcpmt:xthrow.obj
 0002:00018a50       ??_R3out_of_range@std@@8   0000000180072a50     libcpmt:xthrow.obj
 0002:00018a68       ??_R2out_of_range@std@@8   0000000180072a68     libcpmt:xthrow.obj
 0002:00018a88       ??_R1A@?0A@EA@out_of_range@std@@8 0000000180072a88     libcpmt:xthrow.obj
 0002:00018ab0       ??_R4runtime_error@std@@6B@ 0000000180072ab0     libcpmt:xthrow.obj
 0002:00018ad8       ??_R3runtime_error@std@@8  0000000180072ad8     libcpmt:xthrow.obj
 0002:00018af0       ??_R2runtime_error@std@@8  0000000180072af0     libcpmt:xthrow.obj
 0002:00018b08       ??_R1A@?0A@EA@runtime_error@std@@8 0000000180072b08     libcpmt:xthrow.obj
 0002:00018b30       ??_R4bad_exception@std@@6B@ 0000000180072b30     libvcruntime:frame.obj
 0002:00018b58       ??_R3bad_exception@std@@8  0000000180072b58     libvcruntime:frame.obj
 0002:00018b70       ??_R2bad_exception@std@@8  0000000180072b70     libvcruntime:frame.obj
 0002:00018b88       ??_R1A@?0A@EA@bad_exception@std@@8 0000000180072b88     libvcruntime:frame.obj
 0002:00018bac       __volatile_metadata        0000000180072bac     <linker-defined>
 0002:000190f8       __rtc_iaa                  00000001800730f8     LIBCMT:initsect.obj
 0002:00019100       __rtc_izz                  0000000180073100     LIBCMT:initsect.obj
 0002:00019108       __rtc_taa                  0000000180073108     LIBCMT:initsect.obj
 0002:00019110       __rtc_tzz                  0000000180073110     LIBCMT:initsect.obj
 0002:00019120       _tls_start                 0000000180073120     LIBCMT:tlssup.obj
 0002:00019130       __tls_guard                0000000180073130     LIBCMT:tlsdyn.obj
 0002:0001cbe8       _tls_end                   0000000180076be8     LIBCMT:tlssup.obj
 0002:00020bb0       _TI2?AVbad_alloc@std@@     000000018007abb0     LIBCMT:throw_bad_alloc.obj
 0002:00020bd0       _CTA2?AVbad_alloc@std@@    000000018007abd0     LIBCMT:throw_bad_alloc.obj
 0002:00020be8       _CT??_R0?AVbad_alloc@std@@@8??0bad_alloc@std@@QEAA@AEBV01@@Z24 000000018007abe8     LIBCMT:throw_bad_alloc.obj
 0002:00020c10       _CT??_R0?AVexception@std@@@8??0exception@std@@QEAA@AEBV01@@Z24 000000018007ac10     LIBCMT:throw_bad_alloc.obj
 0002:00020c38       _TI3?AVbad_array_new_length@std@@ 000000018007ac38     LIBCMT:throw_bad_alloc.obj
 0002:00020c58       _CTA3?AVbad_array_new_length@std@@ 000000018007ac58     LIBCMT:throw_bad_alloc.obj
 0002:00020c78       _CT??_R0?AVbad_array_new_length@std@@@8??0bad_array_new_length@std@@QEAA@AEBV01@@Z24 000000018007ac78     LIBCMT:throw_bad_alloc.obj
 0002:00020ca0       _CT??_R0?AVlogic_error@std@@@8??0logic_error@std@@QEAA@AEBV01@@Z24 000000018007aca0     libcpmt:xthrow.obj
 0002:00020cc8       _TI3?AVlength_error@std@@  000000018007acc8     libcpmt:xthrow.obj
 0002:00020ce8       _CTA3?AVlength_error@std@@ 000000018007ace8     libcpmt:xthrow.obj
 0002:00020d08       _CT??_R0?AVlength_error@std@@@8??0length_error@std@@QEAA@AEBV01@@Z24 000000018007ad08     libcpmt:xthrow.obj
 0002:00020d30       _TI3?AVout_of_range@std@@  000000018007ad30     libcpmt:xthrow.obj
 0002:00020d50       _CTA3?AVout_of_range@std@@ 000000018007ad50     libcpmt:xthrow.obj
 0002:00020d70       _CT??_R0?AVout_of_range@std@@@8??0out_of_range@std@@QEAA@AEBV01@@Z24 000000018007ad70     libcpmt:xthrow.obj
 0002:00020d98       _TI2?AVbad_exception@std@@ 000000018007ad98     libvcruntime:frame.obj
 0002:00020db8       _CTA2?AVbad_exception@std@@ 000000018007adb8     libvcruntime:frame.obj
 0002:00020dd0       _CT??_R0?AVbad_exception@std@@@8??0bad_exception@std@@QEAA@AEBV01@@Z24 000000018007add0     libvcruntime:frame.obj
 0002:00020df8       _TI2?AVruntime_error@std@@ 000000018007adf8     StringTools.obj
 0002:00020e18       _CT??_R0?AVruntime_error@std@@@8??0runtime_error@std@@QEAA@AEBV01@@Z16 000000018007ae18     StringTools.obj
 0002:00020e40       _CT??_R0?AVexception@stdext@@@8??0exception@stdext@@QEAA@AEBV01@@Z16 000000018007ae40     StringTools.obj
 0002:00020e68       _CTA2?AVruntime_error@std@@ 000000018007ae68     StringTools.obj
 0002:00020e7c       __DELAY_IMPORT_DESCRIPTOR_node_exe 000000018007ae7c     node:node.exe
 0002:00020e9c       __NULL_DELAY_IMPORT_DESCRIPTOR 000000018007ae9c     node:node.exe
 0002:00020fd8       \177node_NULL_THUNK_DATA_DLN 000000018007afd8     node:node.exe
 0002:00021940       \177node_NULL_THUNK_DATA_DLB 000000018007b940     node:node.exe
 0002:00021ac8       __IMPORT_DESCRIPTOR_KERNEL32 000000018007bac8     kernel32:KERNEL32.dll
 0002:00021adc       __NULL_IMPORT_DESCRIPTOR   000000018007badc     kernel32:KERNEL32.dll
 0003:00000000       __security_cookie_complement 000000018007d000     LIBCMT:gs_cookie.obj
 0003:00000008       __security_cookie          000000018007d008     LIBCMT:gs_cookie.obj
 0003:00000010       __scrt_native_dllmain_reason 000000018007d010     LIBCMT:utility.obj
 0003:00000020       __isa_available            000000018007d020     LIBCMT:cpu_disp.obj
 0003:00000024       __isa_enabled              000000018007d024     LIBCMT:cpu_disp.obj
 0003:00000028       __memcpy_nt_iters          000000018007d028     LIBCMT:cpu_disp.obj
 0003:00000030       __memset_nt_iters          000000018007d030     LIBCMT:cpu_disp.obj
 0003:0000003c       ?_Sync@ios_base@std@@0_NA  000000018007d03c     libcpmt:ios.obj
 0003:00000064       __abort_behavior           000000018007d064     libucrt:abort.obj
 0003:00000070       _iob                       000000018007d070     libucrt:_file.obj
 0003:00000180       __acrt_lconv_c             000000018007d180     libucrt:localeconv.obj
 0003:00000218       __acrt_lconv_static_decimal 000000018007d218     libucrt:localeconv.obj
 0003:0000021c       __acrt_lconv_static_W_decimal 000000018007d21c     libucrt:localeconv.obj
 0003:00000220       _pwctype                   000000018007d220     libucrt:ctype.obj
 0003:00000400       __acrt_initial_locale_data 000000018007d400     libucrt:nlsdata.obj
 0003:00000558       __acrt_initial_locale_pointers 000000018007d558     libucrt:nlsdata.obj
 0003:00000568       __acrt_wide_c_locale_string 000000018007d568     libucrt:nlsdata.obj
 0003:00000570       __badioinfo                000000018007d570     libucrt:ioinit.obj
 0003:000005c0       __acrt_initial_multibyte_data 000000018007d5c0     libucrt:mbctype.obj
 0003:00000b00       __globallocalestatus       000000018007db00     libucrt:glstatus.obj
 0003:00000b10       _lookuptrailbytes          000000018007db10     libucrt:read.obj
 0003:00000c28       _fltused                   000000018007dc28     LIBCMT:fltused.obj
 0003:00000c90       ??_R0?AVbad_alloc@std@@@8  000000018007dc90     LIBCMT:throw_bad_alloc.obj
 0003:00000cb8       ??_R0?AVexception@std@@@8  000000018007dcb8     LIBCMT:throw_bad_alloc.obj
 0003:00000ce0       ??_R0?AVbad_array_new_length@std@@@8 000000018007dce0     LIBCMT:throw_bad_alloc.obj
 0003:00000d10       ??_R0?AVlogic_error@std@@@8 000000018007dd10     libcpmt:xthrow.obj
 0003:00000d38       ??_R0?AVlength_error@std@@@8 000000018007dd38     libcpmt:xthrow.obj
 0003:00000d60       ??_R0?AVout_of_range@std@@@8 000000018007dd60     libcpmt:xthrow.obj
 0003:00000d88       ??_R0?AVbad_exception@std@@@8 000000018007dd88     libvcruntime:frame.obj
 0003:00000db0       ??_R0?AVruntime_error@std@@@8 000000018007ddb0     StringTools.obj
 0003:00000dd8       ??_R0?AVexception@stdext@@@8 000000018007ddd8     StringTools.obj
 0003:00000e00       ??_R0?AVtype_info@@@8      000000018007de00     LIBCMT:std_type_info_static.obj
 0003:00000e20       __imp_?Value@External@v8@@QEBAPEAXXZ 000000018007de20     node:node.exe
 0003:00000e28       __imp_?New@External@v8@@SA?AV?$Local@VExternal@v8@@@2@PEAVIsolate@2@PEAX@Z 000000018007de28     node:node.exe
 0003:00000e30       __imp_?NewFromUnsigned@Integer@v8@@SA?AV?$Local@VInteger@v8@@@2@PEAVIsolate@2@I@Z 000000018007de30     node:node.exe
 0003:00000e38       __imp_?GetCurrentContext@Isolate@v8@@QEAA?AV?$Local@VContext@v8@@@2@XZ 000000018007de38     node:node.exe
 0003:00000e40       __imp_?GetCurrent@Isolate@v8@@SAPEAV12@XZ 000000018007de40     node:node.exe
 0003:00000e48       __imp_?CreateHandle@HandleScope@v8@@KAPEAPEAVObject@internal@2@PEAVIsolate@42@PEAV342@@Z 000000018007de48     node:node.exe
 0003:00000e50       __imp_?CreateHandle@HandleScope@v8@@CAPEAPEAVObject@internal@2@PEAVNeverReadOnlySpaceObject@42@PEAV342@@Z 000000018007de50     node:node.exe
 0003:00000e58       __imp_??1HandleScope@v8@@QEAA@XZ 000000018007de58     node:node.exe
 0003:00000e60       __imp_??0HandleScope@v8@@QEAA@PEAVIsolate@1@@Z 000000018007de60     node:node.exe
 0003:00000e68       __imp_?New@Array@v8@@SA?AV?$Local@VArray@v8@@@2@PEAVIsolate@2@H@Z 000000018007de68     node:node.exe
 0003:00000e70       __imp_?Length@Array@v8@@QEBAIXZ 000000018007de70     node:node.exe
 0003:00000e78       __imp_?GetFunction@FunctionTemplate@v8@@QEAA?AV?$MaybeLocal@VFunction@v8@@@2@V?$Local@VContext@v8@@@2@@Z 000000018007de78     node:node.exe
 0003:00000e80       __imp_?New@FunctionTemplate@v8@@SA?AV?$Local@VFunctionTemplate@v8@@@2@PEAVIsolate@2@P6AXAEBV?$FunctionCallbackInfo@VValue@v8@@@2@@ZV?$Local@VValue@v8@@@2@V?$Local@VSignature@v8@@@2@HW4ConstructorBehavior@2@W4SideEffectType@2@@Z 000000018007de80     node:node.exe
 0003:00000e88       __imp_?ToLocalEmpty@V8@v8@@CAXXZ 000000018007de88     node:node.exe
 0003:00000e90       __imp_?Uint32Value@Value@v8@@QEBA?AV?$Maybe@I@2@V?$Local@VContext@v8@@@2@@Z 000000018007de90     node:node.exe
 0003:00000e98       __imp_?ToUint32@Value@v8@@QEBA?AV?$MaybeLocal@VUint32@v8@@@2@V?$Local@VContext@v8@@@2@@Z 000000018007de98     node:node.exe
 0003:00000ea0       __imp_?ToString@Value@v8@@QEBA?AV?$MaybeLocal@VString@v8@@@2@V?$Local@VContext@v8@@@2@@Z 000000018007dea0     node:node.exe
 0003:00000ea8       __imp_?IsNumber@Value@v8@@QEBA_NXZ 000000018007dea8     node:node.exe
 0003:00000eb0       __imp_?IsArray@Value@v8@@QEBA_NXZ 000000018007deb0     node:node.exe
 0003:00000eb8       __imp_?Escape@EscapableHandleScope@v8@@AEAAPEAPEAVObject@internal@2@PEAPEAV342@@Z 000000018007deb8     node:node.exe
 0003:00000ec0       __imp_??0EscapableHandleScope@v8@@QEAA@PEAVIsolate@1@@Z 000000018007dec0     node:node.exe
 0003:00000ec8       __imp_?NewFromUtf8@String@v8@@SA?AV?$MaybeLocal@VString@v8@@@2@PEAVIsolate@2@PEBDW4NewStringType@2@H@Z 000000018007dec8     node:node.exe
 0003:00000ed0       __imp_?WriteUtf8@String@v8@@QEBAHPEADHPEAHH@Z 000000018007ded0     node:node.exe
 0003:00000ed8       __imp_?Length@String@v8@@QEBAHXZ 000000018007ded8     node:node.exe
 0003:00000ee0       __imp_?SlowGetInternalField@Object@v8@@AEAA?AV?$Local@VValue@v8@@@2@H@Z 000000018007dee0     node:node.exe
 0003:00000ee8       __imp_?New@Object@v8@@SA?AV?$Local@VObject@v8@@@2@PEAVIsolate@2@@Z 000000018007dee8     node:node.exe
 0003:00000ef0       __imp_?SetInternalField@Object@v8@@QEAAXHV?$Local@VValue@v8@@@2@@Z 000000018007def0     node:node.exe
 0003:00000ef8       __imp_?Get@Object@v8@@QEAA?AV?$MaybeLocal@VValue@v8@@@2@V?$Local@VContext@v8@@@2@I@Z 000000018007def8     node:node.exe
 0003:00000f00       __imp_?Set@Object@v8@@QEAA?AV?$Maybe@_N@2@V?$Local@VContext@v8@@@2@V?$Local@VValue@v8@@@2@1@Z 000000018007df00     node:node.exe
 0003:00000f08       __imp_?Set@Object@v8@@QEAA?AV?$Maybe@_N@2@V?$Local@VContext@v8@@@2@IV?$Local@VValue@v8@@@2@@Z 000000018007df08     node:node.exe
 0003:00000f10       __imp_?SetInternalFieldCount@ObjectTemplate@v8@@QEAAXH@Z 000000018007df10     node:node.exe
 0003:00000f18       __imp_?NewInstance@ObjectTemplate@v8@@QEAA?AV?$MaybeLocal@VObject@v8@@@2@V?$Local@VContext@v8@@@2@@Z 000000018007df18     node:node.exe
 0003:00000f20       __imp_?New@ObjectTemplate@v8@@SA?AV?$Local@VObjectTemplate@v8@@@2@PEAVIsolate@2@V?$Local@VFunctionTemplate@v8@@@2@@Z 000000018007df20     node:node.exe
 0003:00000f28       __imp_node_module_register 000000018007df28     node:node.exe
 0003:00000f30       __imp_??1EscapableHandleScope@v8@@QEAA@XZ 000000018007df30     node:node.exe
 0003:00000f38       \177node_NULL_THUNK_DATA_DLA 000000018007df38     node:node.exe
 0003:00000f40       __hmod__node_exe           000000018007df40     node:node.exe
 0003:000014c0       __castguard_check_failure_os_handled_fptr 000000018007e4c0     LIBCMT:guard_support.obj
 0003:000014c8       _tls_index                 000000018007e4c8     LIBCMT:tlssup.obj
 0003:000014d0       ?__type_info_root_node@@3U__type_info_node@@A 000000018007e4d0     LIBCMT:tncleanup.obj
 0003:000014e0       __scrt_current_native_startup_state 000000018007e4e0     LIBCMT:utility.obj
 0003:000014e8       __scrt_native_startup_lock 000000018007e4e8     LIBCMT:utility.obj
 0003:00001528       __scrt_debugger_hook_flag  000000018007e528     LIBCMT:utility_desktop.obj
 0003:0000152c       __favor                    000000018007e52c     LIBCMT:cpu_disp.obj
 0003:00001530       ?_Raise_handler@std@@3P6AXAEBVexception@stdext@@@ZEA 000000018007e530     libcpmt:raisehan.obj
 0003:00001690       ?_Id_cnt@id@locale@std@@0HA 000000018007e690     libcpmt:locale0.obj
 0003:00001698       ?_Clocptr@_Locimp@locale@std@@0PEAV123@EA 000000018007e698     libcpmt:locale0.obj
 0003:000016a0       ?id@?$ctype@_W@std@@2V0locale@2@A 000000018007e6a0     libcpmt:locale0.obj
 0003:000016a8       ?id@?$ctype@D@std@@2V0locale@2@A 000000018007e6a8     libcpmt:locale0.obj
 0003:000016b0       ?id@?$codecvt@GDU_Mbstatet@@@std@@2V0locale@2@A 000000018007e6b0     libcpmt:locale0.obj
 0003:000016b8       ?id@?$ctype@G@std@@2V0locale@2@A 000000018007e6b8     libcpmt:locale0.obj
 0003:000016d0       ?id@?$codecvt@_WDU_Mbstatet@@@std@@2V0locale@2@A 000000018007e6d0     libcpmt:locale0.obj
 0003:000016f0       ?_Index@ios_base@std@@0HA  000000018007e6f0     libcpmt:ios.obj
 0003:00001760       ?id@?$num_get@DV?$istreambuf_iterator@DU?$char_traits@D@std@@@std@@@std@@2V0locale@2@A 000000018007e760     libcpmt:locale.obj
 0003:00001768       ?id@?$codecvt@DDU_Mbstatet@@@std@@2V0locale@2@A 000000018007e768     libcpmt:locale.obj
 0003:00001770       ?_Ptr_cin@std@@3PEAV?$basic_istream@DU?$char_traits@D@std@@@1@EA 000000018007e770     libcpmt:iosptrs.obj
 0003:00001778       ?_Ptr_cout@std@@3PEAV?$basic_ostream@DU?$char_traits@D@std@@@1@EA 000000018007e778     libcpmt:iosptrs.obj
 0003:00001780       ?_Ptr_cerr@std@@3PEAV?$basic_ostream@DU?$char_traits@D@std@@@1@EA 000000018007e780     libcpmt:iosptrs.obj
 0003:00001788       ?_Ptr_clog@std@@3PEAV?$basic_ostream@DU?$char_traits@D@std@@@1@EA 000000018007e788     libcpmt:iosptrs.obj
 0003:00001790       ?_Ptr_wcin@std@@3PEAV?$basic_istream@_WU?$char_traits@_W@std@@@1@EA 000000018007e790     libcpmt:iosptrs.obj
 0003:00001798       ?_Ptr_wcout@std@@3PEAV?$basic_ostream@_WU?$char_traits@_W@std@@@1@EA 000000018007e798     libcpmt:iosptrs.obj
 0003:000017a0       ?_Ptr_wcerr@std@@3PEAV?$basic_ostream@_WU?$char_traits@_W@std@@@1@EA 000000018007e7a0     libcpmt:iosptrs.obj
 0003:000017a8       ?_Ptr_wclog@std@@3PEAV?$basic_ostream@_WU?$char_traits@_W@std@@@1@EA 000000018007e7a8     libcpmt:iosptrs.obj
 0003:00001810       ?id@?$time_put@_WV?$ostreambuf_iterator@_WU?$char_traits@_W@std@@@std@@@std@@2V0locale@2@A 000000018007e810     libcpmt:wlocale.obj
 0003:00001818       ?id@?$num_get@_WV?$istreambuf_iterator@_WU?$char_traits@_W@std@@@std@@@std@@2V0locale@2@A 000000018007e818     libcpmt:wlocale.obj
 0003:00001820       ?id@?$num_put@_WV?$ostreambuf_iterator@_WU?$char_traits@_W@std@@@std@@@std@@2V0locale@2@A 000000018007e820     libcpmt:wlocale.obj
 0003:00001828       ?id@?$numpunct@_W@std@@2V0locale@2@A 000000018007e828     libcpmt:wlocale.obj
 0003:00001830       ?id@?$collate@_W@std@@2V0locale@2@A 000000018007e830     libcpmt:wlocale.obj
 0003:00001838       ?id@?$messages@_W@std@@2V0locale@2@A 000000018007e838     libcpmt:wlocale.obj
 0003:00001840       ?id@?$money_get@_WV?$istreambuf_iterator@_WU?$char_traits@_W@std@@@std@@@std@@2V0locale@2@A 000000018007e840     libcpmt:wlocale.obj
 0003:00001848       ?id@?$money_put@_WV?$ostreambuf_iterator@_WU?$char_traits@_W@std@@@std@@@std@@2V0locale@2@A 000000018007e848     libcpmt:wlocale.obj
 0003:00001850       ?id@?$moneypunct@_W$0A@@std@@2V0locale@2@A 000000018007e850     libcpmt:wlocale.obj
 0003:00001858       ?id@?$moneypunct@_W$00@std@@2V0locale@2@A 000000018007e858     libcpmt:wlocale.obj
 0003:00001860       ?id@?$time_get@_WV?$istreambuf_iterator@_WU?$char_traits@_W@std@@@std@@@std@@2V0locale@2@A 000000018007e860     libcpmt:wlocale.obj
 0003:00001868       ?id@?$num_get@GV?$istreambuf_iterator@GU?$char_traits@G@std@@@std@@@std@@2V0locale@2@A 000000018007e868     libcpmt:wlocale.obj
 0003:00001870       ?id@?$num_put@GV?$ostreambuf_iterator@GU?$char_traits@G@std@@@std@@@std@@2V0locale@2@A 000000018007e870     libcpmt:wlocale.obj
 0003:00001878       ?id@?$numpunct@G@std@@2V0locale@2@A 000000018007e878     libcpmt:wlocale.obj
 0003:00001880       ?id@?$collate@G@std@@2V0locale@2@A 000000018007e880     libcpmt:wlocale.obj
 0003:00001888       ?id@?$messages@G@std@@2V0locale@2@A 000000018007e888     libcpmt:wlocale.obj
 0003:00001890       ?id@?$money_get@GV?$istreambuf_iterator@GU?$char_traits@G@std@@@std@@@std@@2V0locale@2@A 000000018007e890     libcpmt:wlocale.obj
 0003:00001898       ?id@?$money_put@GV?$ostreambuf_iterator@GU?$char_traits@G@std@@@std@@@std@@2V0locale@2@A 000000018007e898     libcpmt:wlocale.obj
 0003:000018a0       ?id@?$moneypunct@G$0A@@std@@2V0locale@2@A 000000018007e8a0     libcpmt:wlocale.obj
 0003:000018a8       ?id@?$moneypunct@G$00@std@@2V0locale@2@A 000000018007e8a8     libcpmt:wlocale.obj
 0003:000018b0       ?id@?$time_get@GV?$istreambuf_iterator@GU?$char_traits@G@std@@@std@@@std@@2V0locale@2@A 000000018007e8b0     libcpmt:wlocale.obj
 0003:000018b8       ?id@?$time_put@GV?$ostreambuf_iterator@GU?$char_traits@G@std@@@std@@@std@@2V0locale@2@A 000000018007e8b8     libcpmt:wlocale.obj
 0003:000018c0       ?id@?$collate@D@std@@2V0locale@2@A 000000018007e8c0     libcpmt:xlocale.obj
 0003:000018c8       ?id@?$messages@D@std@@2V0locale@2@A 000000018007e8c8     libcpmt:xlocale.obj
 0003:000018d0       ?id@?$money_get@DV?$istreambuf_iterator@DU?$char_traits@D@std@@@std@@@std@@2V0locale@2@A 000000018007e8d0     libcpmt:xlocale.obj
 0003:000018d8       ?id@?$money_put@DV?$ostreambuf_iterator@DU?$char_traits@D@std@@@std@@@std@@2V0locale@2@A 000000018007e8d8     libcpmt:xlocale.obj
 0003:000018e0       ?id@?$moneypunct@D$0A@@std@@2V0locale@2@A 000000018007e8e0     libcpmt:xlocale.obj
 0003:000018e8       ?id@?$moneypunct@D$00@std@@2V0locale@2@A 000000018007e8e8     libcpmt:xlocale.obj
 0003:000018f0       ?id@?$time_get@DV?$istreambuf_iterator@DU?$char_traits@D@std@@@std@@@std@@2V0locale@2@A 000000018007e8f0     libcpmt:xlocale.obj
 0003:000018f8       ?id@?$time_put@DV?$ostreambuf_iterator@DU?$char_traits@D@std@@@std@@@std@@2V0locale@2@A 000000018007e8f8     libcpmt:xlocale.obj
 0003:00001900       ?__WinRTOutOfMemoryExceptionCallback@@3P6APEAXXZEA 000000018007e900     libvcruntime:ehhelpers.obj
 0003:00001990       __pPurecall                000000018007e990     libvcruntime:purevirt_data.obj
 0003:00001998       ?pArgList@UnDecorator@@0PEAVReplicator@@EA 000000018007e998     libvcruntime:undname.obj
 0003:000019a0       ?pZNameList@UnDecorator@@0PEAVReplicator@@EA 000000018007e9a0     libvcruntime:undname.obj
 0003:000019a8       ?pTemplateArgList@UnDecorator@@0PEAVReplicator@@EA 000000018007e9a8     libvcruntime:undname.obj
 0003:000019b0       ?gName@UnDecorator@@0PEBDEB 000000018007e9b0     libvcruntime:undname.obj
 0003:000019b8       ?name@UnDecorator@@0PEBDEB 000000018007e9b8     libvcruntime:undname.obj
 0003:000019c0       ?disableFlags@UnDecorator@@0KA 000000018007e9c0     libvcruntime:undname.obj
 0003:000019c4       ?fExplicitTemplateParams@UnDecorator@@0_NA 000000018007e9c4     libvcruntime:undname.obj
 0003:000019c5       ?fGetTemplateArgumentList@UnDecorator@@0_NA 000000018007e9c5     libvcruntime:undname.obj
 0003:000019c8       ?m_pGetParameter@UnDecorator@@0P6APEADJ@ZEA 000000018007e9c8     libvcruntime:undname.obj
 0003:000019d0       ?m_CHPENameOffset@UnDecorator@@0KA 000000018007e9d0     libvcruntime:undname.obj
 0003:000019d4       ?m_recursionLevel@UnDecorator@@0KA 000000018007e9d4     libvcruntime:undname.obj
 0003:00001a80       _nstream                   000000018007ea80     libucrt:_file.obj
 0003:00001a88       __piob                     000000018007ea88     libucrt:_file.obj
 0003:00001a90       _cflush                    000000018007ea90     libucrt:_file.obj
 0003:00001a94       __acrt_lconv_static_null   000000018007ea94     libucrt:localeconv.obj
 0003:00001a98       __acrt_lconv_static_W_null 000000018007ea98     libucrt:localeconv.obj
 0003:00001ac8       ?c_exit_complete@?1???R<lambda_6e4b09c48022b2350581041d5f6b0c4c>@@QEBA@XZ@4_NA 000000018007eac8     libucrt:exit.obj
 0003:00001bd8       _environ_table             000000018007ebd8     libucrt:environment_initialization.obj
 0003:00001be0       _wenviron_table            000000018007ebe0     libucrt:environment_initialization.obj
 0003:00001be8       __dcrt_initial_wide_environment 000000018007ebe8     libucrt:environment_initialization.obj
 0003:00001bf0       __dcrt_initial_narrow_environment 000000018007ebf0     libucrt:environment_initialization.obj
 0003:00001bf8       __acrt_atexit_table        000000018007ebf8     libucrt:onexit.obj
 0003:00001c10       __acrt_at_quick_exit_table 000000018007ec10     libucrt:onexit.obj
 0003:00002020       ?_timezone@@3V?$dual_state_global@J@__crt_state_management@@A 000000018007f020     libucrt:timeset.obj
 0003:00002024       ?_daylight@@3V?$dual_state_global@H@__crt_state_management@@A 000000018007f024     libucrt:timeset.obj
 0003:00002028       ?_dstbias@@3V?$dual_state_global@J@__crt_state_management@@A 000000018007f028     libucrt:timeset.obj
 0003:00002120       __acrt_stdout_buffer       000000018007f120     libucrt:_sftbuf.obj
 0003:00002128       __acrt_stderr_buffer       000000018007f128     libucrt:_sftbuf.obj
 0003:00002130       __acrt_locale_changed_data 000000018007f130     libucrt:wsetlocale.obj
 0003:00002138       __acrt_current_locale_data 000000018007f138     libucrt:nlsdata.obj
 0003:00002140       __pioinfo                  000000018007f140     libucrt:ioinit.obj
 0003:00002540       _nhandle                   000000018007f540     libucrt:ioinit.obj
 0003:00002570       _mbctype                   000000018007f570     libucrt:mbctype.obj
 0003:00002578       _mbcasemap                 000000018007f578     libucrt:mbctype.obj
 0003:00002580       __acrt_current_multibyte_data 000000018007f580     libucrt:mbctype.obj
 0003:00002590       _pgmptr                    000000018007f590     libucrt:argv_data.obj
 0003:00002598       __argc                     000000018007f598     libucrt:argv_data.obj
 0003:000025a0       __argv                     000000018007f5a0     libucrt:argv_data.obj
 0003:000025a8       __wargv                    000000018007f5a8     libucrt:argv_data.obj
 0003:000025b0       _acmdln                    000000018007f5b0     libucrt:argv_data.obj
 0003:000025b8       _wcmdln                    000000018007f5b8     libucrt:argv_data.obj
 0003:000025c0       __acrt_heap                000000018007f5c0     libucrt:heap_handle.obj
 0003:000025d0       __fma3_is_available        000000018007f5d0     libucrt:fma3_available.obj
 0003:000025d4       __use_fma3_lib             000000018007f5d4     libucrt:fma3_available.obj
 0003:000025f0       ?DloadKernel32@@3PEAUHINSTANCE__@@EA 000000018007f5f0     DelayImp:delayhlp.obj
 0003:000025f8       ?DloadAcquireSRWLockExclusive@@3P6AXPEA_K@ZEA 000000018007f5f8     DelayImp:delayhlp.obj
 0003:00002600       ?DloadReleaseSRWLockExclusive@@3P6AXPEA_K@ZEA 000000018007f600     DelayImp:delayhlp.obj
 0003:00002608       ?DloadSrwLock@@3_KA        000000018007f608     DelayImp:delayhlp.obj
 0003:00002610       ?DloadSectionLockCount@@3KA 000000018007f610     DelayImp:delayhlp.obj
 0003:00002614       ?DloadSectionOldProtection@@3KA 000000018007f614     DelayImp:delayhlp.obj
 0003:00002618       ?DloadSectionCommitPermanent@@3KA 000000018007f618     DelayImp:delayhlp.obj
 0003:00002620       ?_OptionsStorage@?1??__local_stdio_scanf_options@@9@4_KA 000000018007f620     StringTools.obj
 0003:000839c0       ?id@?$num_put@DV?$ostreambuf_iterator@DU?$char_traits@D@std@@@std@@@std@@2V0locale@2@A 00000001801009c0     StringTools.obj
 0003:000839c8       ?id@?$numpunct@D@std@@2V0locale@2@A 00000001801009c8     StringTools.obj
 0003:000839d0       __scrt_ucrt_dll_is_in_use  00000001801009d0     <common>
 0003:000839d8       ?_OptionsStorage@?1??__local_stdio_printf_options@@9@9 00000001801009d8     <common>

 entry point at        0001:0003e828

 Static symbols

 0000:ffef8000       .debug$S                   0000000180000000     turtlecoin-crypto.exp
 0000:ffef8000       .debug$S                   0000000180000000     kernel32:KERNEL32.dll
 0000:ffef8000       .debug$S                   0000000180000000     kernel32:KERNEL32.dll
 0000:ffef8000       .debug$S                   0000000180000000     kernel32:KERNEL32.dll
 0000:ffef8000       .debug$S                   0000000180000000     kernel32:KERNEL32.dll
 0000:ffef8000       .debug$S                   0000000180000000     kernel32:KERNEL32.dll
 0000:ffef8000       .debug$S                   0000000180000000     kernel32:KERNEL32.dll
 0000:ffef8000       .debug$S                   0000000180000000     kernel32:KERNEL32.dll
 0000:ffef8000       .debug$S                   0000000180000000     kernel32:KERNEL32.dll
 0000:ffef8000       .debug$S                   0000000180000000     kernel32:KERNEL32.dll
 0000:ffef8000       .debug$S                   0000000180000000     kernel32:KERNEL32.dll
 0000:ffef8000       .debug$S                   0000000180000000     kernel32:KERNEL32.dll
 0000:ffef8000       .debug$S                   0000000180000000     kernel32:KERNEL32.dll
 0000:ffef8000       .debug$S                   0000000180000000     kernel32:KERNEL32.dll
 0000:ffef8000       .debug$S                   0000000180000000     kernel32:KERNEL32.dll
 0000:ffef8000       .debug$S                   0000000180000000     kernel32:KERNEL32.dll
 0000:ffef8000       .debug$S                   0000000180000000     kernel32:KERNEL32.dll
 0000:ffef8000       .debug$S                   0000000180000000     kernel32:KERNEL32.dll
 0000:ffef8000       .debug$S                   0000000180000000     kernel32:KERNEL32.dll
 0000:ffef8000       .debug$S                   0000000180000000     kernel32:KERNEL32.dll
 0000:ffef8000       .debug$S                   0000000180000000     kernel32:KERNEL32.dll
 0000:ffef8000       .debug$S                   0000000180000000     kernel32:KERNEL32.dll
 0000:ffef8000       .debug$S                   0000000180000000     kernel32:KERNEL32.dll
 0000:ffef8000       .debug$S                   0000000180000000     kernel32:KERNEL32.dll
 0000:ffef8000       .debug$S                   0000000180000000     kernel32:KERNEL32.dll
 0000:ffef8000       .debug$S                   0000000180000000     kernel32:KERNEL32.dll
 0000:ffef8000       .debug$S                   0000000180000000     kernel32:KERNEL32.dll
 0000:ffef8000       .debug$S                   0000000180000000     kernel32:KERNEL32.dll
 0000:ffef8000       .debug$S                   0000000180000000     kernel32:KERNEL32.dll
 0000:ffef8000       .debug$S                   0000000180000000     kernel32:KERNEL32.dll
 0000:ffef8000       .debug$S                   0000000180000000     kernel32:KERNEL32.dll
 0000:ffef8000       .debug$S                   0000000180000000     kernel32:KERNEL32.dll
 0000:ffef8000       .debug$S                   0000000180000000     kernel32:KERNEL32.dll
 0000:ffef8000       .debug$S                   0000000180000000     kernel32:KERNEL32.dll
 0000:ffef8000       .debug$S                   0000000180000000     kernel32:KERNEL32.dll
 0000:ffef8000       .debug$S                   0000000180000000     kernel32:KERNEL32.dll
 0000:ffef8000       .debug$S                   0000000180000000     kernel32:KERNEL32.dll
 0000:ffef8000       .debug$S                   0000000180000000     kernel32:KERNEL32.dll
 0000:ffef8000       .debug$S                   0000000180000000     kernel32:KERNEL32.dll
 0000:ffef8000       .debug$S                   0000000180000000     kernel32:KERNEL32.dll
 0000:ffef8000       .debug$S                   0000000180000000     kernel32:KERNEL32.dll
 0000:ffef8000       .debug$S                   0000000180000000     kernel32:KERNEL32.dll
 0000:ffef8000       .debug$S                   0000000180000000     kernel32:KERNEL32.dll
 0000:ffef8000       .debug$S                   0000000180000000     kernel32:KERNEL32.dll
 0000:ffef8000       .debug$S                   0000000180000000     kernel32:KERNEL32.dll
 0000:ffef8000       .debug$S                   0000000180000000     kernel32:KERNEL32.dll
 0000:ffef8000       .debug$S                   0000000180000000     kernel32:KERNEL32.dll
 0000:ffef8000       .debug$S                   0000000180000000     kernel32:KERNEL32.dll
 0000:ffef8000       .debug$S                   0000000180000000     kernel32:KERNEL32.dll
 0000:ffef8000       .debug$S                   0000000180000000     kernel32:KERNEL32.dll
 0000:ffef8000       .debug$S                   0000000180000000     kernel32:KERNEL32.dll
 0000:ffef8000       .debug$S                   0000000180000000     kernel32:KERNEL32.dll
 0000:ffef8000       .debug$S                   0000000180000000     kernel32:KERNEL32.dll
 0000:ffef8000       .debug$S                   0000000180000000     kernel32:KERNEL32.dll
 0000:ffef8000       .debug$S                   0000000180000000     kernel32:KERNEL32.dll
 0000:ffef8000       .debug$S                   0000000180000000     kernel32:KERNEL32.dll
 0000:ffef8000       .debug$S                   0000000180000000     kernel32:KERNEL32.dll
 0000:ffef8000       .debug$S                   0000000180000000     kernel32:KERNEL32.dll
 0000:ffef8000       .debug$S                   0000000180000000     kernel32:KERNEL32.dll
 0000:ffef8000       .debug$S                   0000000180000000     kernel32:KERNEL32.dll
 0000:ffef8000       .debug$S                   0000000180000000     kernel32:KERNEL32.dll
 0000:ffef8000       .debug$S                   0000000180000000     kernel32:KERNEL32.dll
 0000:ffef8000       .debug$S                   0000000180000000     kernel32:KERNEL32.dll
 0000:ffef8000       .debug$S                   0000000180000000     kernel32:KERNEL32.dll
 0000:ffef8000       .debug$S                   0000000180000000     kernel32:KERNEL32.dll
 0000:ffef8000       .debug$S                   0000000180000000     kernel32:KERNEL32.dll
 0000:ffef8000       .debug$S                   0000000180000000     kernel32:KERNEL32.dll
 0000:ffef8000       .debug$S                   0000000180000000     kernel32:KERNEL32.dll
 0000:ffef8000       .debug$S                   0000000180000000     kernel32:KERNEL32.dll
 0000:ffef8000       .debug$S                   0000000180000000     kernel32:KERNEL32.dll
 0000:ffef8000       .debug$S                   0000000180000000     kernel32:KERNEL32.dll
 0000:ffef8000       .debug$S                   0000000180000000     kernel32:KERNEL32.dll
 0000:ffef8000       .debug$S                   0000000180000000     kernel32:KERNEL32.dll
 0000:ffef8000       .debug$S                   0000000180000000     kernel32:KERNEL32.dll
 0000:ffef8000       .debug$S                   0000000180000000     kernel32:KERNEL32.dll
 0000:ffef8000       .debug$S                   0000000180000000     kernel32:KERNEL32.dll
 0000:ffef8000       .debug$S                   0000000180000000     kernel32:KERNEL32.dll
 0000:ffef8000       .debug$S                   0000000180000000     kernel32:KERNEL32.dll
 0000:ffef8000       .debug$S                   0000000180000000     kernel32:KERNEL32.dll
 0000:ffef8000       .debug$S                   0000000180000000     kernel32:KERNEL32.dll
 0000:ffef8000       .debug$S                   0000000180000000     kernel32:KERNEL32.dll
 0000:ffef8000       .debug$S                   0000000180000000     kernel32:KERNEL32.dll
 0000:ffef8000       .debug$S                   0000000180000000     kernel32:KERNEL32.dll
 0000:ffef8000       .debug$S                   0000000180000000     kernel32:KERNEL32.dll
 0000:ffef8000       .debug$S                   0000000180000000     kernel32:KERNEL32.dll
 0000:ffef8000       .debug$S                   0000000180000000     kernel32:KERNEL32.dll
 0000:ffef8000       .debug$S                   0000000180000000     kernel32:KERNEL32.dll
 0000:ffef8000       .debug$S                   0000000180000000     kernel32:KERNEL32.dll
 0000:ffef8000       .debug$S                   0000000180000000     kernel32:KERNEL32.dll
 0000:ffef8000       .debug$S                   0000000180000000     kernel32:KERNEL32.dll
 0000:ffef8000       .debug$S                   0000000180000000     kernel32:KERNEL32.dll
 0000:ffef8000       .debug$S                   0000000180000000     kernel32:KERNEL32.dll
 0000:ffef8000       .debug$S                   0000000180000000     kernel32:KERNEL32.dll
 0000:ffef8000       .debug$S                   0000000180000000     kernel32:KERNEL32.dll
 0000:ffef8000       .debug$S                   0000000180000000     kernel32:KERNEL32.dll
 0000:ffef8000       .debug$S                   0000000180000000     kernel32:KERNEL32.dll
 0000:ffef8000       .debug$S                   0000000180000000     kernel32:KERNEL32.dll
 0000:ffef8000       .debug$S                   0000000180000000     kernel32:KERNEL32.dll
 0000:ffef8000       .debug$S                   0000000180000000     kernel32:KERNEL32.dll
 0000:ffef8000       .debug$S                   0000000180000000     kernel32:KERNEL32.dll
 0000:ffef8000       .debug$S                   0000000180000000     kernel32:KERNEL32.dll
 0000:ffef8000       .debug$S                   0000000180000000     kernel32:KERNEL32.dll
 0000:ffef8000       .debug$S                   0000000180000000     kernel32:KERNEL32.dll
 0000:ffef8000       .debug$S                   0000000180000000     kernel32:KERNEL32.dll
 0000:ffef8000       .debug$S                   0000000180000000     node:node.exe
 0000:ffef8000       .debug$S                   0000000180000000     node:node.exe
 0000:ffef8000       .debug$S                   0000000180000000     node:node.exe
 0000:ffef8000       .debug$S                   0000000180000000     node:node.exe
 0000:ffef8000       .debug$S                   0000000180000000     node:node.exe
 0000:ffef8000       .debug$S                   0000000180000000     node:node.exe
 0000:ffef8000       .debug$S                   0000000180000000     node:node.exe
 0000:ffef8000       .debug$S                   0000000180000000     node:node.exe
 0000:ffef8000       .debug$S                   0000000180000000     node:node.exe
 0000:ffef8000       .debug$S                   0000000180000000     node:node.exe
 0000:ffef8000       .debug$S                   0000000180000000     node:node.exe
 0000:ffef8000       .debug$S                   0000000180000000     node:node.exe
 0000:ffef8000       .debug$S                   0000000180000000     node:node.exe
 0000:ffef8000       .debug$S                   0000000180000000     node:node.exe
 0000:ffef8000       .debug$S                   0000000180000000     node:node.exe
 0000:ffef8000       .debug$S                   0000000180000000     node:node.exe
 0000:ffef8000       .debug$S                   0000000180000000     node:node.exe
 0000:ffef8000       .debug$S                   0000000180000000     node:node.exe
 0000:ffef8000       .debug$S                   0000000180000000     node:node.exe
 0000:ffef8000       .debug$S                   0000000180000000     node:node.exe
 0000:ffef8000       .debug$S                   0000000180000000     node:node.exe
 0000:ffef8000       .debug$S                   0000000180000000     node:node.exe
 0000:ffef8000       .debug$S                   0000000180000000     node:node.exe
 0000:ffef8000       .debug$S                   0000000180000000     node:node.exe
 0000:ffef8000       .debug$S                   0000000180000000     node:node.exe
 0000:ffef8000       .debug$S                   0000000180000000     node:node.exe
 0000:ffef8000       .debug$S                   0000000180000000     node:node.exe
 0000:ffef8000       .debug$S                   0000000180000000     node:node.exe
 0000:ffef8000       .debug$S                   0000000180000000     node:node.exe
 0000:ffef8000       .debug$S                   0000000180000000     node:node.exe
 0000:ffef8000       .debug$S                   0000000180000000     node:node.exe
 0000:ffef8000       .debug$S                   0000000180000000     node:node.exe
 0000:ffef8000       .debug$S                   0000000180000000     node:node.exe
 0000:ffef8000       .debug$S                   0000000180000000     node:node.exe
 0000:ffef8000       .debug$S                   0000000180000000     node:node.exe
 0000:ffef8000       .debug$S                   0000000180000000     node:node.exe
 0000:ffef8000       .debug$S                   0000000180000000     node:node.exe
 0000:ffef8000       .debug$S                   0000000180000000     node:node.exe
 0000:ffef8000       .debug$S                   0000000180000000     node:node.exe
 0000:ffef8000       .debug$S                   0000000180000000     node:node.exe
 0000:ffef8000       .debug$S                   0000000180000000     node:node.exe
 0000:ffef8000       .debug$S                   0000000180000000     node:node.exe
 0001:00000000       ??__Egen@Random@@YAXXZ     0000000180001000 f   chacha8.obj
 0001:00000080       ??__Egen@Random@@YAXXZ     0000000180001080 f   crypto.obj
 0001:00000100       ??__Egen@Random@@YAXXZ     0000000180001100 f   random.obj
 0001:00000180       ??__Egen@@YAXXZ            0000000180001180 f   random.obj
 0001:000001e0       ??__Einitlocks@std@@YAXXZ  00000001800011e0 f   libcpmt:xlock.obj
 0001:00000200       ??__Eclassic_locale@std@@YAXXZ 0000000180001200 f   libcpmt:locale0.obj
 0001:0000020c       ??__F_Fac_tidy_reg@std@@YAXXZ 000000018000120c f   libcpmt:locale0.obj
 0001:00000218       ??__Einitlocks@std@@YAXXZ  0000000180001218 f   libcpmt:iosptrs.obj
 0001:00000238       ??__Finit_atexit@@YAXXZ    0000000180001238 f   libcpmt:iosptrs.obj
 0001:00001920       ?random_scalar@Crypto@@YAXAEAUEllipticCurveScalar@1@@Z 0000000180002920 f   crypto.obj
 0001:000019d0       ?hash_to_ec@Crypto@@YAXAEBUPublicKey@1@AEAUge_p3@1@@Z 00000001800029d0 f   crypto.obj
 0001:00003230       fe_invert                  0000000180004230 f   crypto-ops.obj
 0001:000034c0       fe_isnonzero               00000001800044c0 f   crypto-ops.obj
 0001:000035a0       fe_mul                     00000001800045a0 f   crypto-ops.obj
 0001:00003ed0       fe_sq                      0000000180004ed0 f   crypto-ops.obj
 0001:00004440       fe_sq2                     0000000180005440 f   crypto-ops.obj
 0001:000049b0       fe_tobytes                 00000001800059b0 f   crypto-ops.obj
 0001:00005060       slide                      0000000180006060 f   crypto-ops.obj
 0001:00006010       ge_madd                    0000000180007010 f   crypto-ops.obj
 0001:00006400       ge_msub                    0000000180007400 f   crypto-ops.obj
 0001:00006c50       ge_precomp_cmov            0000000180007c50 f   crypto-ops.obj
 0001:00006ed0       select                     0000000180007ed0 f   crypto-ops.obj
 0001:00008ab0       fe_divpowm1                0000000180009ab0 f   crypto-ops.obj
 0001:00008db0       ge_cached_cmov             0000000180009db0 f   crypto-ops.obj
 0001:00014430       RND512P                    0000000180015430 f   groestl.obj
 0001:00014ef0       RND512Q                    0000000180015ef0 f   groestl.obj
 0001:00015a40       F512                       0000000180016a40 f   groestl.obj
 0001:00015d90       Update                     0000000180016d90 f   groestl.obj
 0001:00015f00       Final                      0000000180016f00 f   groestl.obj
 0001:000165f0       E8                         00000001800175f0 f   jh.obj
 0001:00017500       F8                         0000000180018500 f   jh.obj
 0001:000175d0       Update                     00000001800185d0 f   jh.obj
 0001:00017760       Final                      0000000180018760 f   jh.obj
 0001:00019ae0       oaes_key_destroy           000000018001aae0 f   oaes_lib.obj
 0001:00019b60       oaes_key_expand            000000018001ab60 f   oaes_lib.obj
 0001:00019e70       Skein_256_Process_Block    000000018001ae70 f   skein.obj
 0001:0001a7a0       Skein_512_Process_Block    000000018001b7a0 f   skein.obj
 0001:0001bd60       Skein1024_Process_Block    000000018001cd60 f   skein.obj
 0001:0001c820       Skein_512_Update           000000018001d820 f   skein.obj
 0001:0001c900       Final                      000000018001d900 f   skein.obj
 0001:0001ebe0       fill_block                 000000018001fbe0 f   argon2-arch.obj
 0001:00022f20       fill_segment_64            0000000180023f20 f   argon2-arch.obj
 0001:00023680       fill_segment_thr           0000000180024680 f   core.obj
 0001:000236b0       fill_memory_blocks_mt      00000001800246b0 f   core.obj
 0001:00031490       ?FunctionCallbackWrapper@imp@Nan@@YAXAEBV?$FunctionCallbackInfo@VValue@v8@@@v8@@@Z 0000000180032490 f   turtlecoin-crypto-node.obj
 0001:0003dd60       _register_turtlecoincrypto 000000018003ed60 f   turtlecoin-crypto-node.obj
 0001:0003e190       ?load_exe_hook@@YAP6A_JXZIPEAUDelayLoadInfo@@@Z 000000018003f190 f   win_delay_load_hook.obj
 0001:0003e3f0       $$000000                   000000018003f3f0     LIBCMT:amdsecgs.obj
 0001:0003e508       ?dllmain_crt_dispatch@@YAHQEAUHINSTANCE__@@KQEAX@Z 000000018003f508 f   LIBCMT:dll_dllmain.obj
 0001:0003e558       ?dllmain_crt_process_attach@@YAHQEAUHINSTANCE__@@QEAX@Z 000000018003f558 f   LIBCMT:dll_dllmain.obj
 0001:0003e670       ?dllmain_crt_process_detach@@YAH_N@Z 000000018003f670 f   LIBCMT:dll_dllmain.obj
 0001:0003e6f4       ?dllmain_dispatch@@YAHQEAUHINSTANCE__@@KQEAX@Z 000000018003f6f4 f   LIBCMT:dll_dllmain.obj
 0001:0003ea20       capture_current_context    000000018003fa20 f   LIBCMT:gs_report.obj
 0001:0003ea90       capture_previous_context   000000018003fa90 f   LIBCMT:gs_report.obj
 0001:00040430       $$000000                   0000000180041430     libvcruntime:memset.obj
 0001:000405f0       $$000000                   00000001800415f0     libvcruntime:memcpy.obj
 0001:00040ca0       $$000000                   0000000180041ca0     libvcruntime:memchr.obj
 0001:00040d20       $$000000                   0000000180041d20     libvcruntime:memcmp.obj
 0001:000410a0       ??$BuildCatchObjectHelperInternal@V__FrameHandler4@@@@YAHPEAUEHExceptionRecord@@PEAXPEAUHandlerType4@FH4@@PEBU_s_CatchableType@@@Z 00000001800420a0 f   libvcruntime:frame.obj
 0001:000412a4       ??$BuildCatchObjectInternal@V__FrameHandler4@@@@YAXPEAUEHExceptionRecord@@PEAXPEAUHandlerType4@FH4@@PEBU_s_CatchableType@@@Z 00000001800422a4 f   libvcruntime:frame.obj
 0001:00041368       ??$CatchIt@V__FrameHandler4@@@@YAXPEAUEHExceptionRecord@@PEA_KPEAU_CONTEXT@@PEAU_xDISPATCHER_CONTEXT@@PEAUFuncInfo4@FH4@@PEAUHandlerType4@4@PEBU_s_CatchableType@@PEAUTryBlockMapEntry4@4@H1EE@Z 0000000180042368 f   libvcruntime:frame.obj
 0001:0004143c       ??$FindHandler@V__FrameHandler4@@@@YAXPEAUEHExceptionRecord@@PEA_KPEAU_CONTEXT@@PEAU_xDISPATCHER_CONTEXT@@PEAUFuncInfo4@FH4@@EH1@Z 000000018004243c f   libvcruntime:frame.obj
 0001:00041938       ??$FindHandlerForForeignException@V__FrameHandler4@@@@YAXPEAUEHExceptionRecord@@PEA_KPEAU_CONTEXT@@PEAU_xDISPATCHER_CONTEXT@@PEAUFuncInfo4@FH4@@HH1@Z 0000000180042938 f   libvcruntime:frame.obj
 0001:000426c8       ?ExFilterRethrow@@YAHPEAU_EXCEPTION_POINTERS@@PEAUEHExceptionRecord@@PEAH@Z 00000001800436c8 f   libvcruntime:frame.obj
 0001:00042750       ?ExFilterRethrowFH4@@YAHPEAU_EXCEPTION_POINTERS@@PEAUEHExceptionRecord@@HPEAH@Z 0000000180043750 f   libvcruntime:frame.obj
 0001:00042a68       ?IsInExceptionSpec@@YAEPEAUEHExceptionRecord@@PEBU_s_ESTypeList@@@Z 0000000180043a68 f   libvcruntime:frame.obj
 0001:00042b58       ?Is_bad_exception_allowed@@YAEPEBU_s_ESTypeList@@@Z 0000000180043b58 f   libvcruntime:frame.obj
 0001:00042e40       $$000000                   0000000180043e40     libvcruntime:notify.obj
 0001:00042f28       ?try_get_function@@YAPEAXW4function_id@?A0xf6f43728@@QEBDQEBW4module_id@2@2@Z 0000000180043f28 f   libvcruntime:winapi_downlevel.obj
 0001:00043210       $$000000                   0000000180044210     libvcruntime:handlers.obj
 0001:00043814       ??$common_gmtime_s@_J@@YAHQEAUtm@@QEB_J@Z 0000000180044814 f   libucrt:gmtime.obj
 0001:000439ac       ?compute_year@@YAHAEA_JAEA_N@Z 00000001800449ac f   libucrt:gmtime.obj
 0001:00043b30       ??$?RV<lambda_fe5404e9642edbb7c8ae71e1dcfa4018>@@AEAV<lambda_36eeb330e99a4f0bf8a7da86d0894cb9>@@V<lambda_2fa474834de80dc12f7a3c6eddd7a366>@@@?$__crt_seh_guarded_call@H@@QEAAH$$QEAV<lambda_fe5404e9642edbb7c8ae71e1dcfa4018>@@AEAV<lambda_36eeb330e99a4f0bf8a7da86d0894cb9>@@$$QEAV<lambda_2fa474834de80dc12f7a3c6eddd7a366>@@@Z 0000000180044b30 f   libucrt:output.obj
 0001:00043e58       ??R<lambda_36eeb330e99a4f0bf8a7da86d0894cb9>@@QEBAHXZ 0000000180044e58 f   libucrt:output.obj
 0001:000448a8       $LN17                      00000001800458a8     libucrt:output.obj
 0001:00045874       memcpy_s                   0000000180046874 f   libucrt:cfout.obj
 0001:00045874       memcpy_s                   0000000180046874 f   libucrt:input.obj
 0001:00045900       $$000000                   0000000180046900     libucrt:strncmp.obj
 0001:000459e4       ??$thread_start@P6AIPEAX@Z$00@@YAKQEAX@Z 00000001800469e4 f   libucrt:thread.obj
 0001:00045a4c       ?common_end_thread@@YAXI@Z 0000000180046a4c f   libucrt:thread.obj
 0001:00045ab0       ?create_thread_parameter@@YAPEAU__acrt_thread_parameter@@QEAX0@Z 0000000180046ab0 f   libucrt:thread.obj
 0001:00045fa4       ??$?RV<lambda_d80eeec6fff315bfe5c115232f3240e3>@@AEAV<lambda_6e4b09c48022b2350581041d5f6b0c4c>@@V<lambda_2358e3775559c9db80273638284d5e45>@@@?$__crt_seh_guarded_call@X@@QEAAX$$QEAV<lambda_d80eeec6fff315bfe5c115232f3240e3>@@AEAV<lambda_6e4b09c48022b2350581041d5f6b0c4c>@@$$QEAV<lambda_2358e3775559c9db80273638284d5e45>@@@Z 0000000180046fa4 f   libucrt:exit.obj
 0001:00045fdc       ??R<lambda_6e4b09c48022b2350581041d5f6b0c4c>@@QEBA@XZ 0000000180046fdc f   libucrt:exit.obj
 0001:000460a0       ?atexit_exception_filter@@YAHK@Z 00000001800470a0 f   libucrt:exit.obj
 0001:000460ac       ?common_exit@@YAXHW4_crt_exit_cleanup_mode@@W4_crt_exit_return_mode@@@Z 00000001800470ac f   libucrt:exit.obj
 0001:00046168       ?exit_or_terminate_process@@YAXI@Z 0000000180047168 f   libucrt:exit.obj
 0001:000461b4       ?try_cor_exit_process@@YAXI@Z 00000001800471b4 f   libucrt:exit.obj
 0001:0004623c       ??$parse_command_line@D@@YAXPEADPEAPEAD0PEA_K2@Z 000000018004723c f   libucrt:argv_parsing.obj
 0001:000465e4       ??$common_initialize_environment_nolock@D@@YAHXZ 00000001800475e4 f   libucrt:environment_initialization.obj
 0001:00046650       ??$common_initialize_environment_nolock@_W@@YAHXZ 0000000180047650 f   libucrt:environment_initialization.obj
 0001:000466b8       ??$create_environment@D@@YAQEAPEADQEAD@Z 00000001800476b8 f   libucrt:environment_initialization.obj
 0001:000467c0       ??$create_environment@_W@@YAQEAPEA_WQEA_W@Z 00000001800477c0 f   libucrt:environment_initialization.obj
 0001:000468d4       ??$free_environment@D@@YAXQEAPEAD@Z 00000001800478d4 f   libucrt:environment_initialization.obj
 0001:000468d4       ??$free_environment@_W@@YAXQEAPEA_W@Z 00000001800478d4 f   libucrt:environment_initialization.obj
 0001:00046918       ??$initialize_environment_by_cloning_nolock@_W@@YAHXZ 0000000180047918 f   libucrt:environment_initialization.obj
 0001:000469cc       ??$uninitialize_environment_internal@D@@YAXAEAPEAPEAD@Z 00000001800479cc f   libucrt:environment_initialization.obj
 0001:000469e8       ??$uninitialize_environment_internal@_W@@YAXAEAPEAPEA_W@Z 00000001800479e8 f   libucrt:environment_initialization.obj
 0001:00046a80       ??$?RV<lambda_638799b9deba96c50f710eeac98168cd>@@AEAV<lambda_22ebabd17bc4fa466a2aca6d8deb888d>@@V<lambda_a6f7d7db0129f75315ebf26d50c089f1>@@@?$__crt_seh_guarded_call@H@@QEAAH$$QEAV<lambda_638799b9deba96c50f710eeac98168cd>@@AEAV<lambda_22ebabd17bc4fa466a2aca6d8deb888d>@@$$QEAV<lambda_a6f7d7db0129f75315ebf26d50c089f1>@@@Z 0000000180047a80 f   libucrt:onexit.obj
 0001:00046abc       ??$?RV<lambda_7777bce6b2f8c936911f934f8298dc43>@@AEAV<lambda_f03950bc5685219e0bcd2087efbe011e>@@V<lambda_3883c3dff614d5e0c5f61bb1ac94921c>@@@?$__crt_seh_guarded_call@H@@QEAAH$$QEAV<lambda_7777bce6b2f8c936911f934f8298dc43>@@AEAV<lambda_f03950bc5685219e0bcd2087efbe011e>@@$$QEAV<lambda_3883c3dff614d5e0c5f61bb1ac94921c>@@@Z 0000000180047abc f   libucrt:onexit.obj
 0001:00046af8       ??R<lambda_22ebabd17bc4fa466a2aca6d8deb888d>@@QEBAHXZ 0000000180047af8 f   libucrt:onexit.obj
 0001:00046ca8       ??R<lambda_f03950bc5685219e0bcd2087efbe011e>@@QEBAHXZ 0000000180047ca8 f   libucrt:onexit.obj
 0001:00046e7c       initialize_global_variables 0000000180047e7c f   libucrt:initialization.obj
 0001:00046e90       initialize_c               0000000180047e90 f   libucrt:initialization.obj
 0001:00046eb4       initialize_environment     0000000180047eb4 f   libucrt:initialization.obj
 0001:00046eb4       initialize_global_state_isolation 0000000180047eb4 f   libucrt:initialization.obj
 0001:00046eb4       report_memory_leaks        0000000180047eb4 f   libucrt:initialization.obj
 0001:00046eb4       uninitialize_c             0000000180047eb4 f   libucrt:initialization.obj
 0001:00046eb4       uninitialize_global_state_isolation 0000000180047eb4 f   libucrt:initialization.obj
 0001:00046eb8       uninitialize_environment   0000000180047eb8 f   libucrt:initialization.obj
 0001:00046ec8       initialize_pointers        0000000180047ec8 f   libucrt:initialization.obj
 0001:00046f08       uninitialize_vcruntime     0000000180047f08 f   libucrt:initialization.obj
 0001:00046f10       uninitialize_allocated_memory 0000000180047f10 f   libucrt:initialization.obj
 0001:00046f50       uninitialize_allocated_io_buffers 0000000180047f50 f   libucrt:initialization.obj
 0001:00047290       $$000000                   0000000180048290     libucrt:pow.obj
 0001:00048930       $$000000                   0000000180049930     libucrt:powf.obj
 0001:0004a7fc       ??$?RV<lambda_0ae27a3a962d80f24befdcbee591983d>@@AEAV<lambda_8d0ee55de4b1038c4002e0adecdf1839>@@V<lambda_dc504788e8f1664fe9b84e20bfb512f2>@@@?$__crt_seh_guarded_call@X@@QEAAX$$QEAV<lambda_0ae27a3a962d80f24befdcbee591983d>@@AEAV<lambda_8d0ee55de4b1038c4002e0adecdf1839>@@$$QEAV<lambda_dc504788e8f1664fe9b84e20bfb512f2>@@@Z 000000018004b7fc f   libucrt:per_thread_data.obj
 0001:0004a83c       ??$?RV<lambda_2d41944a1d46af3157314b8a01080d33>@@AEAV<lambda_8f455de75cd7d7f24b4096f044d8b9e6>@@V<lambda_aa500f224e6afead328df44964fe2772>@@@?$__crt_seh_guarded_call@X@@QEAAX$$QEAV<lambda_2d41944a1d46af3157314b8a01080d33>@@AEAV<lambda_8f455de75cd7d7f24b4096f044d8b9e6>@@$$QEAV<lambda_aa500f224e6afead328df44964fe2772>@@@Z 000000018004b83c f   libucrt:per_thread_data.obj
 0001:0004a87c       ??$?RV<lambda_aa87e3671a710a21b5dc78c0bdf72e11>@@AEAV<lambda_92619d2358a28f41a33ba319515a20b9>@@V<lambda_6992ecaafeb10aed2b74cb1fae11a551>@@@?$__crt_seh_guarded_call@X@@QEAAX$$QEAV<lambda_aa87e3671a710a21b5dc78c0bdf72e11>@@AEAV<lambda_92619d2358a28f41a33ba319515a20b9>@@$$QEAV<lambda_6992ecaafeb10aed2b74cb1fae11a551>@@@Z 000000018004b87c f   libucrt:per_thread_data.obj
 0001:0004a8c4       ??$?RV<lambda_f2e299630e499de9f9a165e60fcd3db5>@@AEAV<lambda_2ae9d31cdba2644fcbeaf08da7c24588>@@V<lambda_40d01ff24d0e7b3814fdbdcee8eab3c7>@@@?$__crt_seh_guarded_call@X@@QEAAX$$QEAV<lambda_f2e299630e499de9f9a165e60fcd3db5>@@AEAV<lambda_2ae9d31cdba2644fcbeaf08da7c24588>@@$$QEAV<lambda_40d01ff24d0e7b3814fdbdcee8eab3c7>@@@Z 000000018004b8c4 f   libucrt:per_thread_data.obj
 0001:0004a924       ?construct_ptd_array@@YAXQEAU__acrt_ptd@@@Z 000000018004b924 f   libucrt:per_thread_data.obj
 0001:0004a9f4       ?destroy_fls@@YAXPEAX@Z    000000018004b9f4 f   libucrt:per_thread_data.obj
 0001:0004aa14       ?destroy_ptd_array@@YAXQEAU__acrt_ptd@@@Z 000000018004ba14 f   libucrt:per_thread_data.obj
 0001:0004ab0c       ?replace_current_thread_locale_nolock@@YAXQEAU__acrt_ptd@@QEAU__crt_locale_data@@@Z 000000018004bb0c f   libucrt:per_thread_data.obj
 0001:0004aed8       ?try_get_function@@YAPEAXW4function_id@?A0x391cf84c@@QEBDQEBW4module_id@2@2@Z 000000018004bed8 f   libucrt:winapi_thunks.obj
 0001:0004b7b0       ?tzset_env_copy_to_tzname@@YAXQEB_WQEA_WQEAD_K@Z 000000018004c7b0 f   libucrt:tzset.obj
 0001:0004b894       ?tzset_from_environment_nolock@@YAXPEA_W@Z 000000018004c894 f   libucrt:tzset.obj
 0001:0004bb28       ?tzset_from_system_nolock@@YAXXZ 000000018004cb28 f   libucrt:tzset.obj
 0001:0004bcb0       ?tzset_nolock@@YAXXZ       000000018004ccb0 f   libucrt:tzset.obj
 0001:0004bdb8       ?tzset_os_copy_to_tzname@@YAXQEB_WQEA_WQEADI@Z 000000018004cdb8 f   libucrt:tzset.obj
 0001:0004c2fc       ?fp_format_a@@YAHQEBNPEAD_KQEAD2H_NIQEAU__crt_locale_pointers@@W4__acrt_rounding_mode@@@Z 000000018004d2fc f   libucrt:cvt.obj
 0001:0004c67c       ?fp_format_e@@YAHQEBNQEAD_K12H_NIQEAU__crt_locale_pointers@@W4__acrt_rounding_mode@@@Z 000000018004d67c f   libucrt:cvt.obj
 0001:0004c76c       ?fp_format_e_internal@@YAHQEAD_KH_NIQEAU_strflt@@2QEAU__crt_locale_pointers@@@Z 000000018004d76c f   libucrt:cvt.obj
 0001:0004c940       ?fp_format_f_internal@@YAHQEAD_KHQEAU_strflt@@_NQEAU__crt_locale_pointers@@@Z 000000018004d940 f   libucrt:cvt.obj
 0001:0004caa8       ?fp_format_g@@YAHQEBNQEAD_K12H_NIW4__acrt_rounding_mode@@QEAU__crt_locale_pointers@@@Z 000000018004daa8 f   libucrt:cvt.obj
 0001:0004cbf0       ?should_round_up@@YA_NQEBN_KFW4__acrt_rounding_mode@@@Z 000000018004dbf0 f   libucrt:cvt.obj
 0001:0004d1e4       ??$?RV<lambda_410d79af7f07d98d83a3f525b3859a53>@@AEAV<lambda_3e16ef9562a7dcce91392c22ab16ea36>@@V<lambda_38119f0e861e05405d8a144b9b982f0a>@@@?$__crt_seh_guarded_call@X@@QEAAX$$QEAV<lambda_410d79af7f07d98d83a3f525b3859a53>@@AEAV<lambda_3e16ef9562a7dcce91392c22ab16ea36>@@$$QEAV<lambda_38119f0e861e05405d8a144b9b982f0a>@@@Z 000000018004e1e4 f   libucrt:wsetlocale.obj
 0001:0004d290       ?initialize_inherited_file_handles_nolock@@YAXXZ 000000018004e290 f   libucrt:ioinit.obj
 0001:0004d380       ?initialize_stdio_handles_nolock@@YAXXZ 000000018004e380 f   libucrt:ioinit.obj
 0001:0004d508       ??$?RV<lambda_450d765d439847d4c735a33c368b5fc0>@@AEAV<lambda_44731a7d0e6d81c3e6aa82d741081786>@@V<lambda_601a2a7da3b7a96e9554ac7215c4b07c>@@@?$__crt_seh_guarded_call@P6AXH@Z@@QEAAP6AXH@Z$$QEAV<lambda_450d765d439847d4c735a33c368b5fc0>@@AEAV<lambda_44731a7d0e6d81c3e6aa82d741081786>@@$$QEAV<lambda_601a2a7da3b7a96e9554ac7215c4b07c>@@@Z 000000018004e508 f   libucrt:signal.obj
 0001:0004d8c0       ??$?RV<lambda_842d9ff0dc9ef11c61343bbaebe7f885>@@AEAV<lambda_c5860995281e5c4ce005b3de8f5874ee>@@V<lambda_d90129c13df834fdcbf8d2b88dafcf2d>@@@?$__crt_seh_guarded_call@X@@QEAAX$$QEAV<lambda_842d9ff0dc9ef11c61343bbaebe7f885>@@AEAV<lambda_c5860995281e5c4ce005b3de8f5874ee>@@$$QEAV<lambda_d90129c13df834fdcbf8d2b88dafcf2d>@@@Z 000000018004e8c0 f   libucrt:fflush.obj
 0001:0004d95c       ??$?RV<lambda_886d6c58226a84441f68b9f2b8217b83>@@AEAV<lambda_ab61a845afdef5b7c387490eaf3616ee>@@V<lambda_f7f22ab5edc0698d5f6905b0d3f44752>@@@?$__crt_seh_guarded_call@X@@QEAAX$$QEAV<lambda_886d6c58226a84441f68b9f2b8217b83>@@AEAV<lambda_ab61a845afdef5b7c387490eaf3616ee>@@$$QEAV<lambda_f7f22ab5edc0698d5f6905b0d3f44752>@@@Z 000000018004e95c f   libucrt:fflush.obj
 0001:0004da3c       ?common_flush_all@@YAH_N@Z 000000018004ea3c f   libucrt:fflush.obj
 0001:0004e228       ?<lambda_invoker_cdecl>@<lambda_a1ce4c8ae42411fd470c77163914f50e>@@CAHPEBX0@Z 000000018004f228 f   libucrt:argv_wildcards.obj
 0001:0004e3c8       ??$common_expand_argv_wildcards@D@@YAHQEAPEADQEAPEAPEAD@Z 000000018004f3c8 f   libucrt:argv_wildcards.obj
 0001:0004e5d4       ??$copy_and_add_argument_to_buffer@D@@YAHQEBD0_KAEAV?$argument_list@D@?A0x5f5c8891@@@Z 000000018004f5d4 f   libucrt:argv_wildcards.obj
 0001:0004e75c       ??$expand_argument_wildcards@D@@YAHQEAD0AEAV?$argument_list@D@?A0x5f5c8891@@@Z 000000018004f75c f   libucrt:argv_wildcards.obj
 0001:0004eb94       ??$?RV<lambda_efdfa57d1f175319df784efa44bb7b81>@@AEAV<lambda_5f0a4c1567f8adc6734073e5d1e1b35c>@@V<lambda_2e8a7d3640ea6ccb4c2413664c2db6fd>@@@?$__crt_seh_guarded_call@X@@QEAAX$$QEAV<lambda_efdfa57d1f175319df784efa44bb7b81>@@AEAV<lambda_5f0a4c1567f8adc6734073e5d1e1b35c>@@$$QEAV<lambda_2e8a7d3640ea6ccb4c2413664c2db6fd>@@@Z 000000018004fb94 f   libucrt:mbctype.obj
 0001:0004ed50       ?getSystemCP@@YAHH@Z       000000018004fd50 f   libucrt:mbctype.obj
 0001:0004edd0       ?setSBCS@@YAXPEAU__crt_multibyte_data@@@Z 000000018004fdd0 f   libucrt:mbctype.obj
 0001:0004ee60       ?setSBUpLow@@YAXPEAU__crt_multibyte_data@@@Z 000000018004fe60 f   libucrt:mbctype.obj
 0001:0004f044       ?setmbcp_internal@@YAHH_NQEAU__acrt_ptd@@QEAPEAU__crt_multibyte_data@@@Z 0000000180050044 f   libucrt:mbctype.obj
 0001:0004f204       ?update_thread_multibyte_data_internal@@YAPEAU__crt_multibyte_data@@QEAU__acrt_ptd@@QEAPEAU1@@Z 0000000180050204 f   libucrt:mbctype.obj
 0001:0004f5f4       ?x_ismbbtype_l@@YAHPEAU__crt_locale_pointers@@IHH@Z 00000001800505f4 f   libucrt:ismbbyte.obj
 0001:0004f9c0       ??$common_set_variable_in_environment_nolock@_W@@YAHQEA_WH@Z 00000001800509c0 f   libucrt:setenv.obj
 0001:0004fce4       ??$copy_environment@_W@@YAPEAPEA_WQEAPEA_W@Z 0000000180050ce4 f   libucrt:setenv.obj
 0001:00050140       ?__acrt_LCMapStringA_stat@@YAHPEAU__crt_locale_pointers@@PEB_WKPEBDHPEADHHH@Z 0000000180051140 f   libucrt:lcmapstringa.obj
 0001:00050da0       ??$common_getenv_nolock@_W@@YAPEA_WQEB_W@Z 0000000180051da0 f   libucrt:getenv.obj
 0001:00050e38       ??$common_getenv_s@_W@@YAHQEA_KQEA_W_KQEB_W@Z 0000000180051e38 f   libucrt:getenv.obj
 0001:00052624       ??$write_buffer_nolock@D@@YA_NDV__crt_stdio_stream@@@Z 0000000180053624 f   libucrt:_flsbuf.obj
 0001:00052708       ?stream_is_at_end_of_file_nolock@@YA_NV__crt_stdio_stream@@@Z 0000000180053708 f   libucrt:_flsbuf.obj
 0001:00052a14       ?free_crt_array_internal@@YAXQEAPEBX_K@Z 0000000180053a14 f   libucrt:inittime.obj
 0001:00052f80       ??$?RV<lambda_a37b2b86f63e897a80ea819b0eb08c01>@@AEAV<lambda_38ce7e780aa69e748d6df282ebc68efe>@@V<lambda_99fb1378e971ab6e7edea83e3a7a83a2>@@@?$__crt_seh_guarded_call@H@@QEAAH$$QEAV<lambda_a37b2b86f63e897a80ea819b0eb08c01>@@AEAV<lambda_38ce7e780aa69e748d6df282ebc68efe>@@$$QEAV<lambda_99fb1378e971ab6e7edea83e3a7a83a2>@@@Z 0000000180053f80 f   libucrt:commit.obj
 0001:000530a0       ?write_double_translated_ansi_nolock@@YA?AUwrite_result@?A0x17268360@@HQEBDI@Z 00000001800540a0 f   libucrt:write.obj
 0001:0005358c       ?write_text_ansi_nolock@@YA?AUwrite_result@?A0x17268360@@HQEBDI@Z 000000018005458c f   libucrt:write.obj
 0001:00053690       ?write_text_utf16le_nolock@@YA?AUwrite_result@?A0x17268360@@HQEBDI@Z 0000000180054690 f   libucrt:write.obj
 0001:000537ac       ?write_text_utf8_nolock@@YA?AUwrite_result@?A0x17268360@@HQEBDI@Z 00000001800547ac f   libucrt:write.obj
 0001:00053cf0       $$000000                   0000000180054cf0     libucrt:fpsr.obj
 0001:00054564       fallbackMethod             0000000180055564 f   libucrt:strpbrk.obj
 0001:0005491c       $LN78                      000000018005591c     libucrt:strpbrk.obj
 0001:00054958       $LN77                      0000000180055958     libucrt:strpbrk.obj
 0001:00054998       $LN76                      0000000180055998     libucrt:strpbrk.obj
 0001:00054a74       ?initialize_multibyte@@YAHXZ 0000000180055a74 f   libucrt:multibyte_initializer.obj
 0001:00054c08       _call_matherr              0000000180055c08 f   libucrt:libm_error.obj
 0001:00054c70       _exception_enabled         0000000180055c70 f   libucrt:libm_error.obj
 0001:000553c0       $$000000                   00000001800563c0     libucrt:log10.obj
 0001:0005596c       ??$common_lseek@_J@@YA_JH_JH@Z 000000018005696c f   libucrt:lseek.obj
 0001:00055a5c       ??$common_lseek_nolock@_J@@YA_JH_JH@Z 0000000180056a5c f   libucrt:lseek.obj
 0001:00055b10       ??$?RV<lambda_751a882b2c74d4b022dec766aa51a29a>@@AEAV<lambda_628dfdc04ba53c8bfc02c9951375f3f5>@@V<lambda_f6c7be5f7998530c34de24c7437d6b54>@@@?$__crt_seh_guarded_call@H@@QEAAH$$QEAV<lambda_751a882b2c74d4b022dec766aa51a29a>@@AEAV<lambda_628dfdc04ba53c8bfc02c9951375f3f5>@@$$QEAV<lambda_f6c7be5f7998530c34de24c7437d6b54>@@@Z 0000000180056b10 f   libucrt:close.obj
 0001:00055e78       common_control87           0000000180056e78 f   libucrt:ieee.obj
 0001:00056160       _log_special_common        0000000180057160 f   libucrt:log_special.obj
 0001:00056aa0       $$000000                   0000000180057aa0     LIBCMT:chkstk.obj
 0001:00056ed0       $$000000                   0000000180057ed0     LIBCMT:guard_dispatch.obj
 0001:00056ef0       $$000000                   0000000180057ef0     LIBCMT:guard_xfg_dispatch.obj
 0001:00056f10       ?dtor$0@?0??_Throw_bad_array_new_length@std@@YAXXZ@4HA 0000000180057f10 f   crypto.obj
 0001:00056f20       ?dtor$0@?0??prepareRingSignatures@crypto_ops@Crypto@@SA_NUHash@2@UKeyImage@2@V?$vector@UPublicKey@Crypto@@V?$allocator@UPublicKey@Crypto@@@std@@@std@@_KUEllipticCurveScalar@2@AEAV?$vector@USignature@Crypto@@V?$allocator@USignature@Crypto@@@std@@@6@@Z@4HA 0000000180057f20 f   crypto.obj
 0001:00056f30       ?dtor$0@?0??generateRingSignatures@crypto_ops@Crypto@@SA_NUHash@2@UKeyImage@2@V?$vector@UPublicKey@Crypto@@V?$allocator@UPublicKey@Crypto@@@std@@@std@@USecretKey@2@_KAEAV?$vector@USignature@Crypto@@V?$allocator@USignature@Crypto@@@std@@@6@@Z@4HA 0000000180057f30 f   crypto.obj
 0001:00056f3c       ?dtor$2@?0??generateRingSignatures@crypto_ops@Crypto@@SA_NUHash@2@UKeyImage@2@V?$vector@UPublicKey@Crypto@@V?$allocator@UPublicKey@Crypto@@@std@@@std@@USecretKey@2@_KAEAV?$vector@USignature@Crypto@@V?$allocator@USignature@Crypto@@@std@@@6@@Z@4HA 0000000180057f3c f   crypto.obj
 0001:00056f50       ?dtor$0@?0??generate_deterministic_subwallet_key@crypto_ops@Crypto@@CAXAEBUSecretKey@2@_KAEAU32@@Z@4HA 0000000180057f50 f   crypto.obj
 0001:00056f5c       ?dtor$1@?0??generate_deterministic_subwallet_key@crypto_ops@Crypto@@CAXAEBUSecretKey@2@_KAEAU32@@Z@4HA 0000000180057f5c f   crypto.obj
 0001:00056f70       ?dtor$0@?0??calculate_multisig_private_keys@Multisig@Crypto@@YA?AV?$vector@USecretKey@Crypto@@V?$allocator@USecretKey@Crypto@@@std@@@std@@AEBUSecretKey@2@AEBV?$vector@UPublicKey@Crypto@@V?$allocator@UPublicKey@Crypto@@@std@@@4@@Z@4HA 0000000180057f70 f   multisig.obj
 0001:00056fa0       ?dtor$3@?0??calculate_shared_public_key@Multisig@Crypto@@YAXAEBV?$vector@UPublicKey@Crypto@@V?$allocator@UPublicKey@Crypto@@@std@@@std@@AEAUPublicKey@2@@Z@4HA 0000000180057fa0 f   multisig.obj
 0001:00056fac       ?dtor$6@?0??calculate_shared_public_key@Multisig@Crypto@@YAXAEBV?$vector@UPublicKey@Crypto@@V?$allocator@UPublicKey@Crypto@@@std@@@std@@AEAUPublicKey@2@@Z@4HA 0000000180057fac f   multisig.obj
 0001:00056fb8       ?dtor$1@?0??calculate_shared_public_key@Multisig@Crypto@@YAXAEBV?$vector@UPublicKey@Crypto@@V?$allocator@UPublicKey@Crypto@@@std@@@std@@AEAUPublicKey@2@@Z@4HA 0000000180057fb8 f   multisig.obj
 0001:00056fc4       ?dtor$0@?0??calculate_shared_public_key@Multisig@Crypto@@YAXAEBV?$vector@UPublicKey@Crypto@@V?$allocator@UPublicKey@Crypto@@@std@@@std@@AEAUPublicKey@2@@Z@4HA 0000000180057fc4 f   multisig.obj
 0001:00056fd0       ?dtor$3@?0??restore_key_image@Multisig@Crypto@@YA?AUKeyImage@2@AEBUPublicKey@2@AEBUEllipticCurveScalar@2@AEBV?$vector@UKeyImage@Crypto@@V?$allocator@UKeyImage@Crypto@@@std@@@std@@@Z@4HA 0000000180057fd0 f   multisig.obj
 0001:00056fdc       ?dtor$6@?0??restore_key_image@Multisig@Crypto@@YA?AUKeyImage@2@AEBUPublicKey@2@AEBUEllipticCurveScalar@2@AEBV?$vector@UKeyImage@Crypto@@V?$allocator@UKeyImage@Crypto@@@std@@@std@@@Z@4HA 0000000180057fdc f   multisig.obj
 0001:00056fe8       ?dtor$1@?0??restore_key_image@Multisig@Crypto@@YA?AUKeyImage@2@AEBUPublicKey@2@AEBUEllipticCurveScalar@2@AEBV?$vector@UKeyImage@Crypto@@V?$allocator@UKeyImage@Crypto@@@std@@@std@@@Z@4HA 0000000180057fe8 f   multisig.obj
 0001:00056ff4       ?dtor$0@?0??restore_key_image@Multisig@Crypto@@YA?AUKeyImage@2@AEBUPublicKey@2@AEBUEllipticCurveScalar@2@AEBV?$vector@UKeyImage@Crypto@@V?$allocator@UKeyImage@Crypto@@@std@@@std@@@Z@4HA 0000000180057ff4 f   multisig.obj
 0001:00057000       ?dtor$0@?0??restore_ring_signatures@Multisig@Crypto@@YA_NAEBUEllipticCurveScalar@2@AEBV?$vector@USecretKey@Crypto@@V?$allocator@USecretKey@Crypto@@@std@@@std@@_K0AEAV?$vector@USignature@Crypto@@V?$allocator@USignature@Crypto@@@std@@@5@@Z@4HA 0000000180058000 f   multisig.obj
 0001:00057010       ?dtor$2@?0???$dedupeAndSortKeys@USecretKey@Crypto@@@Multisig@Crypto@@YA?AV?$vector@USecretKey@Crypto@@V?$allocator@USecretKey@Crypto@@@std@@@std@@AEBV23@@Z@4HA 0000000180058010 f   multisig.obj
 0001:0005701c       ?dtor$5@?0???$dedupeAndSortKeys@USecretKey@Crypto@@@Multisig@Crypto@@YA?AV?$vector@USecretKey@Crypto@@V?$allocator@USecretKey@Crypto@@@std@@@std@@AEBV23@@Z@4HA 000000018005801c f   multisig.obj
 0001:00057028       ?dtor$0@?0???$dedupeAndSortKeys@USecretKey@Crypto@@@Multisig@Crypto@@YA?AV?$vector@USecretKey@Crypto@@V?$allocator@USecretKey@Crypto@@@std@@@std@@AEBV23@@Z@4HA 0000000180058028 f   multisig.obj
 0001:00057040       ?dtor$0@?0???$addKeys@UKeyImage@Crypto@@@Multisig@Crypto@@YA?AUKeyImage@1@AEBU21@AEBV?$vector@UKeyImage@Crypto@@V?$allocator@UKeyImage@Crypto@@@std@@@std@@@Z@4HA 0000000180058040 f   multisig.obj
 0001:00057040       ?dtor$0@?0???$addKeys@USecretKey@Crypto@@@Multisig@Crypto@@YA?AUSecretKey@1@AEBU21@AEBV?$vector@USecretKey@Crypto@@V?$allocator@USecretKey@Crypto@@@std@@@std@@@Z@4HA 0000000180058040 f   multisig.obj
 0001:00057040       ?dtor$0@?0??restoreKeyImage@Cryptography@Core@@SA?AV?$basic_string@DU?$char_traits@D@std@@V?$allocator@D@2@@std@@AEBV34@0_KAEBV?$vector@V?$basic_string@DU?$char_traits@D@std@@V?$allocator@D@2@@std@@V?$allocator@V?$basic_string@DU?$char_traits@D@std@@V?$allocator@D@2@@std@@@2@@4@@Z@4HA 0000000180058040 f   turtlecoin-crypto.obj
 0001:00057050       ?dtor$0@?0??fromHex@Common@@YA?AV?$vector@EV?$allocator@E@std@@@std@@AEBV?$basic_string@DU?$char_traits@D@std@@V?$allocator@D@2@@3@@Z@4HA 0000000180058050 f   StringTools.obj
 0001:00057080       ?dtor$0@?0??cn_fast_hash@Cryptography@Core@@SA?AV?$basic_string@DU?$char_traits@D@std@@V?$allocator@D@2@@std@@V34@@Z@4HA 0000000180058080 f   turtlecoin-crypto.obj
 0001:0005708c       ?dtor$4@?0??cn_fast_hash@Cryptography@Core@@SA?AV?$basic_string@DU?$char_traits@D@std@@V?$allocator@D@2@@std@@V34@@Z@4HA 000000018005808c f   turtlecoin-crypto.obj
 0001:00057098       ?dtor$2@?0??cn_fast_hash@Cryptography@Core@@SA?AV?$basic_string@DU?$char_traits@D@std@@V?$allocator@D@2@@std@@V34@@Z@4HA 0000000180058098 f   turtlecoin-crypto.obj
 0001:000570a4       ?dtor$8@?0??cn_fast_hash@Cryptography@Core@@SA?AV?$basic_string@DU?$char_traits@D@std@@V?$allocator@D@2@@std@@V34@@Z@4HA 00000001800580a4 f   turtlecoin-crypto.obj
 0001:000570d0       ?dtor$0@?0??cn_dark_lite_slow_hash_v0@Cryptography@Core@@SA?AV?$basic_string@DU?$char_traits@D@std@@V?$allocator@D@2@@std@@V34@@Z@4HA 00000001800580d0 f   turtlecoin-crypto.obj
 0001:000570d0       ?dtor$0@?0??cn_dark_lite_slow_hash_v1@Cryptography@Core@@SA?AV?$basic_string@DU?$char_traits@D@std@@V?$allocator@D@2@@std@@V34@@Z@4HA 00000001800580d0 f   turtlecoin-crypto.obj
 0001:000570d0       ?dtor$0@?0??cn_dark_lite_slow_hash_v2@Cryptography@Core@@SA?AV?$basic_string@DU?$char_traits@D@std@@V?$allocator@D@2@@std@@V34@@Z@4HA 00000001800580d0 f   turtlecoin-crypto.obj
 0001:000570d0       ?dtor$0@?0??cn_dark_slow_hash_v0@Cryptography@Core@@SA?AV?$basic_string@DU?$char_traits@D@std@@V?$allocator@D@2@@std@@V34@@Z@4HA 00000001800580d0 f   turtlecoin-crypto.obj
 0001:000570d0       ?dtor$0@?0??cn_dark_slow_hash_v1@Cryptography@Core@@SA?AV?$basic_string@DU?$char_traits@D@std@@V?$allocator@D@2@@std@@V34@@Z@4HA 00000001800580d0 f   turtlecoin-crypto.obj
 0001:000570d0       ?dtor$0@?0??cn_dark_slow_hash_v2@Cryptography@Core@@SA?AV?$basic_string@DU?$char_traits@D@std@@V?$allocator@D@2@@std@@V34@@Z@4HA 00000001800580d0 f   turtlecoin-crypto.obj
 0001:000570d0       ?dtor$0@?0??cn_lite_slow_hash_v0@Cryptography@Core@@SA?AV?$basic_string@DU?$char_traits@D@std@@V?$allocator@D@2@@std@@V34@@Z@4HA 00000001800580d0 f   turtlecoin-crypto.obj
 0001:000570d0       ?dtor$0@?0??cn_lite_slow_hash_v1@Cryptography@Core@@SA?AV?$basic_string@DU?$char_traits@D@std@@V?$allocator@D@2@@std@@V34@@Z@4HA 00000001800580d0 f   turtlecoin-crypto.obj
 0001:000570d0       ?dtor$0@?0??cn_lite_slow_hash_v2@Cryptography@Core@@SA?AV?$basic_string@DU?$char_traits@D@std@@V?$allocator@D@2@@std@@V34@@Z@4HA 00000001800580d0 f   turtlecoin-crypto.obj
 0001:000570d0       ?dtor$0@?0??cn_slow_hash_v0@Cryptography@Core@@SA?AV?$basic_string@DU?$char_traits@D@std@@V?$allocator@D@2@@std@@V34@@Z@4HA 00000001800580d0 f   turtlecoin-crypto.obj
 0001:000570d0       ?dtor$0@?0??cn_slow_hash_v1@Cryptography@Core@@SA?AV?$basic_string@DU?$char_traits@D@std@@V?$allocator@D@2@@std@@V34@@Z@4HA 00000001800580d0 f   turtlecoin-crypto.obj
 0001:000570d0       ?dtor$0@?0??cn_slow_hash_v2@Cryptography@Core@@SA?AV?$basic_string@DU?$char_traits@D@std@@V?$allocator@D@2@@std@@V34@@Z@4HA 00000001800580d0 f   turtlecoin-crypto.obj
 0001:000570d0       ?dtor$0@?0??cn_turtle_lite_slow_hash_v0@Cryptography@Core@@SA?AV?$basic_string@DU?$char_traits@D@std@@V?$allocator@D@2@@std@@V34@@Z@4HA 00000001800580d0 f   turtlecoin-crypto.obj
 0001:000570d0       ?dtor$0@?0??cn_turtle_lite_slow_hash_v1@Cryptography@Core@@SA?AV?$basic_string@DU?$char_traits@D@std@@V?$allocator@D@2@@std@@V34@@Z@4HA 00000001800580d0 f   turtlecoin-crypto.obj
 0001:000570d0       ?dtor$0@?0??cn_turtle_lite_slow_hash_v2@Cryptography@Core@@SA?AV?$basic_string@DU?$char_traits@D@std@@V?$allocator@D@2@@std@@V34@@Z@4HA 00000001800580d0 f   turtlecoin-crypto.obj
 0001:000570d0       ?dtor$0@?0??cn_turtle_slow_hash_v0@Cryptography@Core@@SA?AV?$basic_string@DU?$char_traits@D@std@@V?$allocator@D@2@@std@@V34@@Z@4HA 00000001800580d0 f   turtlecoin-crypto.obj
 0001:000570d0       ?dtor$0@?0??cn_turtle_slow_hash_v1@Cryptography@Core@@SA?AV?$basic_string@DU?$char_traits@D@std@@V?$allocator@D@2@@std@@V34@@Z@4HA 00000001800580d0 f   turtlecoin-crypto.obj
 0001:000570d0       ?dtor$0@?0??cn_turtle_slow_hash_v2@Cryptography@Core@@SA?AV?$basic_string@DU?$char_traits@D@std@@V?$allocator@D@2@@std@@V34@@Z@4HA 00000001800580d0 f   turtlecoin-crypto.obj
 0001:000570dc       ?dtor$4@?0??cn_dark_lite_slow_hash_v0@Cryptography@Core@@SA?AV?$basic_string@DU?$char_traits@D@std@@V?$allocator@D@2@@std@@V34@@Z@4HA 00000001800580dc f   turtlecoin-crypto.obj
 0001:000570dc       ?dtor$4@?0??cn_dark_lite_slow_hash_v1@Cryptography@Core@@SA?AV?$basic_string@DU?$char_traits@D@std@@V?$allocator@D@2@@std@@V34@@Z@4HA 00000001800580dc f   turtlecoin-crypto.obj
 0001:000570dc       ?dtor$4@?0??cn_dark_lite_slow_hash_v2@Cryptography@Core@@SA?AV?$basic_string@DU?$char_traits@D@std@@V?$allocator@D@2@@std@@V34@@Z@4HA 00000001800580dc f   turtlecoin-crypto.obj
 0001:000570dc       ?dtor$4@?0??cn_dark_slow_hash_v0@Cryptography@Core@@SA?AV?$basic_string@DU?$char_traits@D@std@@V?$allocator@D@2@@std@@V34@@Z@4HA 00000001800580dc f   turtlecoin-crypto.obj
 0001:000570dc       ?dtor$4@?0??cn_dark_slow_hash_v1@Cryptography@Core@@SA?AV?$basic_string@DU?$char_traits@D@std@@V?$allocator@D@2@@std@@V34@@Z@4HA 00000001800580dc f   turtlecoin-crypto.obj
 0001:000570dc       ?dtor$4@?0??cn_dark_slow_hash_v2@Cryptography@Core@@SA?AV?$basic_string@DU?$char_traits@D@std@@V?$allocator@D@2@@std@@V34@@Z@4HA 00000001800580dc f   turtlecoin-crypto.obj
 0001:000570dc       ?dtor$4@?0??cn_lite_slow_hash_v0@Cryptography@Core@@SA?AV?$basic_string@DU?$char_traits@D@std@@V?$allocator@D@2@@std@@V34@@Z@4HA 00000001800580dc f   turtlecoin-crypto.obj
 0001:000570dc       ?dtor$4@?0??cn_lite_slow_hash_v1@Cryptography@Core@@SA?AV?$basic_string@DU?$char_traits@D@std@@V?$allocator@D@2@@std@@V34@@Z@4HA 00000001800580dc f   turtlecoin-crypto.obj
 0001:000570dc       ?dtor$4@?0??cn_lite_slow_hash_v2@Cryptography@Core@@SA?AV?$basic_string@DU?$char_traits@D@std@@V?$allocator@D@2@@std@@V34@@Z@4HA 00000001800580dc f   turtlecoin-crypto.obj
 0001:000570dc       ?dtor$4@?0??cn_slow_hash_v0@Cryptography@Core@@SA?AV?$basic_string@DU?$char_traits@D@std@@V?$allocator@D@2@@std@@V34@@Z@4HA 00000001800580dc f   turtlecoin-crypto.obj
 0001:000570dc       ?dtor$4@?0??cn_slow_hash_v1@Cryptography@Core@@SA?AV?$basic_string@DU?$char_traits@D@std@@V?$allocator@D@2@@std@@V34@@Z@4HA 00000001800580dc f   turtlecoin-crypto.obj
 0001:000570dc       ?dtor$4@?0??cn_slow_hash_v2@Cryptography@Core@@SA?AV?$basic_string@DU?$char_traits@D@std@@V?$allocator@D@2@@std@@V34@@Z@4HA 00000001800580dc f   turtlecoin-crypto.obj
 0001:000570dc       ?dtor$4@?0??cn_turtle_lite_slow_hash_v0@Cryptography@Core@@SA?AV?$basic_string@DU?$char_traits@D@std@@V?$allocator@D@2@@std@@V34@@Z@4HA 00000001800580dc f   turtlecoin-crypto.obj
 0001:000570dc       ?dtor$4@?0??cn_turtle_lite_slow_hash_v1@Cryptography@Core@@SA?AV?$basic_string@DU?$char_traits@D@std@@V?$allocator@D@2@@std@@V34@@Z@4HA 00000001800580dc f   turtlecoin-crypto.obj
 0001:000570dc       ?dtor$4@?0??cn_turtle_lite_slow_hash_v2@Cryptography@Core@@SA?AV?$basic_string@DU?$char_traits@D@std@@V?$allocator@D@2@@std@@V34@@Z@4HA 00000001800580dc f   turtlecoin-crypto.obj
 0001:000570dc       ?dtor$4@?0??cn_turtle_slow_hash_v0@Cryptography@Core@@SA?AV?$basic_string@DU?$char_traits@D@std@@V?$allocator@D@2@@std@@V34@@Z@4HA 00000001800580dc f   turtlecoin-crypto.obj
 0001:000570dc       ?dtor$4@?0??cn_turtle_slow_hash_v1@Cryptography@Core@@SA?AV?$basic_string@DU?$char_traits@D@std@@V?$allocator@D@2@@std@@V34@@Z@4HA 00000001800580dc f   turtlecoin-crypto.obj
 0001:000570dc       ?dtor$4@?0??cn_turtle_slow_hash_v2@Cryptography@Core@@SA?AV?$basic_string@DU?$char_traits@D@std@@V?$allocator@D@2@@std@@V34@@Z@4HA 00000001800580dc f   turtlecoin-crypto.obj
 0001:000570e8       ?dtor$2@?0??cn_dark_lite_slow_hash_v0@Cryptography@Core@@SA?AV?$basic_string@DU?$char_traits@D@std@@V?$allocator@D@2@@std@@V34@@Z@4HA 00000001800580e8 f   turtlecoin-crypto.obj
 0001:000570e8       ?dtor$2@?0??cn_dark_lite_slow_hash_v1@Cryptography@Core@@SA?AV?$basic_string@DU?$char_traits@D@std@@V?$allocator@D@2@@std@@V34@@Z@4HA 00000001800580e8 f   turtlecoin-crypto.obj
 0001:000570e8       ?dtor$2@?0??cn_dark_lite_slow_hash_v2@Cryptography@Core@@SA?AV?$basic_string@DU?$char_traits@D@std@@V?$allocator@D@2@@std@@V34@@Z@4HA 00000001800580e8 f   turtlecoin-crypto.obj
 0001:000570e8       ?dtor$2@?0??cn_dark_slow_hash_v0@Cryptography@Core@@SA?AV?$basic_string@DU?$char_traits@D@std@@V?$allocator@D@2@@std@@V34@@Z@4HA 00000001800580e8 f   turtlecoin-crypto.obj
 0001:000570e8       ?dtor$2@?0??cn_dark_slow_hash_v1@Cryptography@Core@@SA?AV?$basic_string@DU?$char_traits@D@std@@V?$allocator@D@2@@std@@V34@@Z@4HA 00000001800580e8 f   turtlecoin-crypto.obj
 0001:000570e8       ?dtor$2@?0??cn_dark_slow_hash_v2@Cryptography@Core@@SA?AV?$basic_string@DU?$char_traits@D@std@@V?$allocator@D@2@@std@@V34@@Z@4HA 00000001800580e8 f   turtlecoin-crypto.obj
 0001:000570e8       ?dtor$2@?0??cn_lite_slow_hash_v0@Cryptography@Core@@SA?AV?$basic_string@DU?$char_traits@D@std@@V?$allocator@D@2@@std@@V34@@Z@4HA 00000001800580e8 f   turtlecoin-crypto.obj
 0001:000570e8       ?dtor$2@?0??cn_lite_slow_hash_v1@Cryptography@Core@@SA?AV?$basic_string@DU?$char_traits@D@std@@V?$allocator@D@2@@std@@V34@@Z@4HA 00000001800580e8 f   turtlecoin-crypto.obj
 0001:000570e8       ?dtor$2@?0??cn_lite_slow_hash_v2@Cryptography@Core@@SA?AV?$basic_string@DU?$char_traits@D@std@@V?$allocator@D@2@@std@@V34@@Z@4HA 00000001800580e8 f   turtlecoin-crypto.obj
 0001:000570e8       ?dtor$2@?0??cn_slow_hash_v0@Cryptography@Core@@SA?AV?$basic_string@DU?$char_traits@D@std@@V?$allocator@D@2@@std@@V34@@Z@4HA 00000001800580e8 f   turtlecoin-crypto.obj
 0001:000570e8       ?dtor$2@?0??cn_slow_hash_v1@Cryptography@Core@@SA?AV?$basic_string@DU?$char_traits@D@std@@V?$allocator@D@2@@std@@V34@@Z@4HA 00000001800580e8 f   turtlecoin-crypto.obj
 0001:000570e8       ?dtor$2@?0??cn_slow_hash_v2@Cryptography@Core@@SA?AV?$basic_string@DU?$char_traits@D@std@@V?$allocator@D@2@@std@@V34@@Z@4HA 00000001800580e8 f   turtlecoin-crypto.obj
 0001:000570e8       ?dtor$2@?0??cn_turtle_lite_slow_hash_v0@Cryptography@Core@@SA?AV?$basic_string@DU?$char_traits@D@std@@V?$allocator@D@2@@std@@V34@@Z@4HA 00000001800580e8 f   turtlecoin-crypto.obj
 0001:000570e8       ?dtor$2@?0??cn_turtle_lite_slow_hash_v1@Cryptography@Core@@SA?AV?$basic_string@DU?$char_traits@D@std@@V?$allocator@D@2@@std@@V34@@Z@4HA 00000001800580e8 f   turtlecoin-crypto.obj
 0001:000570e8       ?dtor$2@?0??cn_turtle_lite_slow_hash_v2@Cryptography@Core@@SA?AV?$basic_string@DU?$char_traits@D@std@@V?$allocator@D@2@@std@@V34@@Z@4HA 00000001800580e8 f   turtlecoin-crypto.obj
 0001:000570e8       ?dtor$2@?0??cn_turtle_slow_hash_v0@Cryptography@Core@@SA?AV?$basic_string@DU?$char_traits@D@std@@V?$allocator@D@2@@std@@V34@@Z@4HA 00000001800580e8 f   turtlecoin-crypto.obj
 0001:000570e8       ?dtor$2@?0??cn_turtle_slow_hash_v1@Cryptography@Core@@SA?AV?$basic_string@DU?$char_traits@D@std@@V?$allocator@D@2@@std@@V34@@Z@4HA 00000001800580e8 f   turtlecoin-crypto.obj
 0001:000570e8       ?dtor$2@?0??cn_turtle_slow_hash_v2@Cryptography@Core@@SA?AV?$basic_string@DU?$char_traits@D@std@@V?$allocator@D@2@@std@@V34@@Z@4HA 00000001800580e8 f   turtlecoin-crypto.obj
 0001:000570f4       ?dtor$8@?0??cn_dark_lite_slow_hash_v0@Cryptography@Core@@SA?AV?$basic_string@DU?$char_traits@D@std@@V?$allocator@D@2@@std@@V34@@Z@4HA 00000001800580f4 f   turtlecoin-crypto.obj
 0001:000570f4       ?dtor$8@?0??cn_dark_lite_slow_hash_v1@Cryptography@Core@@SA?AV?$basic_string@DU?$char_traits@D@std@@V?$allocator@D@2@@std@@V34@@Z@4HA 00000001800580f4 f   turtlecoin-crypto.obj
 0001:000570f4       ?dtor$8@?0??cn_dark_lite_slow_hash_v2@Cryptography@Core@@SA?AV?$basic_string@DU?$char_traits@D@std@@V?$allocator@D@2@@std@@V34@@Z@4HA 00000001800580f4 f   turtlecoin-crypto.obj
 0001:000570f4       ?dtor$8@?0??cn_dark_slow_hash_v0@Cryptography@Core@@SA?AV?$basic_string@DU?$char_traits@D@std@@V?$allocator@D@2@@std@@V34@@Z@4HA 00000001800580f4 f   turtlecoin-crypto.obj
 0001:000570f4       ?dtor$8@?0??cn_dark_slow_hash_v1@Cryptography@Core@@SA?AV?$basic_string@DU?$char_traits@D@std@@V?$allocator@D@2@@std@@V34@@Z@4HA 00000001800580f4 f   turtlecoin-crypto.obj
 0001:000570f4       ?dtor$8@?0??cn_dark_slow_hash_v2@Cryptography@Core@@SA?AV?$basic_string@DU?$char_traits@D@std@@V?$allocator@D@2@@std@@V34@@Z@4HA 00000001800580f4 f   turtlecoin-crypto.obj
 0001:000570f4       ?dtor$8@?0??cn_lite_slow_hash_v0@Cryptography@Core@@SA?AV?$basic_string@DU?$char_traits@D@std@@V?$allocator@D@2@@std@@V34@@Z@4HA 00000001800580f4 f   turtlecoin-crypto.obj
 0001:000570f4       ?dtor$8@?0??cn_lite_slow_hash_v1@Cryptography@Core@@SA?AV?$basic_string@DU?$char_traits@D@std@@V?$allocator@D@2@@std@@V34@@Z@4HA 00000001800580f4 f   turtlecoin-crypto.obj
 0001:000570f4       ?dtor$8@?0??cn_lite_slow_hash_v2@Cryptography@Core@@SA?AV?$basic_string@DU?$char_traits@D@std@@V?$allocator@D@2@@std@@V34@@Z@4HA 00000001800580f4 f   turtlecoin-crypto.obj
 0001:000570f4       ?dtor$8@?0??cn_slow_hash_v0@Cryptography@Core@@SA?AV?$basic_string@DU?$char_traits@D@std@@V?$allocator@D@2@@std@@V34@@Z@4HA 00000001800580f4 f   turtlecoin-crypto.obj
 0001:000570f4       ?dtor$8@?0??cn_slow_hash_v1@Cryptography@Core@@SA?AV?$basic_string@DU?$char_traits@D@std@@V?$allocator@D@2@@std@@V34@@Z@4HA 00000001800580f4 f   turtlecoin-crypto.obj
 0001:000570f4       ?dtor$8@?0??cn_slow_hash_v2@Cryptography@Core@@SA?AV?$basic_string@DU?$char_traits@D@std@@V?$allocator@D@2@@std@@V34@@Z@4HA 00000001800580f4 f   turtlecoin-crypto.obj
 0001:000570f4       ?dtor$8@?0??cn_turtle_lite_slow_hash_v0@Cryptography@Core@@SA?AV?$basic_string@DU?$char_traits@D@std@@V?$allocator@D@2@@std@@V34@@Z@4HA 00000001800580f4 f   turtlecoin-crypto.obj
 0001:000570f4       ?dtor$8@?0??cn_turtle_lite_slow_hash_v1@Cryptography@Core@@SA?AV?$basic_string@DU?$char_traits@D@std@@V?$allocator@D@2@@std@@V34@@Z@4HA 00000001800580f4 f   turtlecoin-crypto.obj
 0001:000570f4       ?dtor$8@?0??cn_turtle_lite_slow_hash_v2@Cryptography@Core@@SA?AV?$basic_string@DU?$char_traits@D@std@@V?$allocator@D@2@@std@@V34@@Z@4HA 00000001800580f4 f   turtlecoin-crypto.obj
 0001:000570f4       ?dtor$8@?0??cn_turtle_slow_hash_v0@Cryptography@Core@@SA?AV?$basic_string@DU?$char_traits@D@std@@V?$allocator@D@2@@std@@V34@@Z@4HA 00000001800580f4 f   turtlecoin-crypto.obj
 0001:000570f4       ?dtor$8@?0??cn_turtle_slow_hash_v1@Cryptography@Core@@SA?AV?$basic_string@DU?$char_traits@D@std@@V?$allocator@D@2@@std@@V34@@Z@4HA 00000001800580f4 f   turtlecoin-crypto.obj
 0001:000570f4       ?dtor$8@?0??cn_turtle_slow_hash_v2@Cryptography@Core@@SA?AV?$basic_string@DU?$char_traits@D@std@@V?$allocator@D@2@@std@@V34@@Z@4HA 00000001800580f4 f   turtlecoin-crypto.obj
 0001:00057120       ?dtor$0@?0??chukwa_slow_hash@Cryptography@Core@@SA?AV?$basic_string@DU?$char_traits@D@std@@V?$allocator@D@2@@std@@V34@@Z@4HA 0000000180058120 f   turtlecoin-crypto.obj
 0001:0005712c       ?dtor$4@?0??chukwa_slow_hash@Cryptography@Core@@SA?AV?$basic_string@DU?$char_traits@D@std@@V?$allocator@D@2@@std@@V34@@Z@4HA 000000018005812c f   turtlecoin-crypto.obj
 0001:00057138       ?dtor$2@?0??chukwa_slow_hash@Cryptography@Core@@SA?AV?$basic_string@DU?$char_traits@D@std@@V?$allocator@D@2@@std@@V34@@Z@4HA 0000000180058138 f   turtlecoin-crypto.obj
 0001:00057144       ?dtor$8@?0??chukwa_slow_hash@Cryptography@Core@@SA?AV?$basic_string@DU?$char_traits@D@std@@V?$allocator@D@2@@std@@V34@@Z@4HA 0000000180058144 f   turtlecoin-crypto.obj
 0001:00057170       ?dtor$0@?0??tree_hash@Cryptography@Core@@SA?AV?$basic_string@DU?$char_traits@D@std@@V?$allocator@D@2@@std@@V?$vector@V?$basic_string@DU?$char_traits@D@std@@V?$allocator@D@2@@std@@V?$allocator@V?$basic_string@DU?$char_traits@D@std@@V?$allocator@D@2@@std@@@2@@4@@Z@4HA 0000000180058170 f   turtlecoin-crypto.obj
 0001:0005717c       ?dtor$1@?0??tree_hash@Cryptography@Core@@SA?AV?$basic_string@DU?$char_traits@D@std@@V?$allocator@D@2@@std@@V?$vector@V?$basic_string@DU?$char_traits@D@std@@V?$allocator@D@2@@std@@V?$allocator@V?$basic_string@DU?$char_traits@D@std@@V?$allocator@D@2@@std@@@2@@4@@Z@4HA 000000018005817c f   turtlecoin-crypto.obj
 0001:00057188       ?dtor$4@?0??tree_hash@Cryptography@Core@@SA?AV?$basic_string@DU?$char_traits@D@std@@V?$allocator@D@2@@std@@V?$vector@V?$basic_string@DU?$char_traits@D@std@@V?$allocator@D@2@@std@@V?$allocator@V?$basic_string@DU?$char_traits@D@std@@V?$allocator@D@2@@std@@@2@@4@@Z@4HA 0000000180058188 f   turtlecoin-crypto.obj
 0001:000571b0       ?dtor$0@?0??tree_branch@Cryptography@Core@@SA?AV?$vector@V?$basic_string@DU?$char_traits@D@std@@V?$allocator@D@2@@std@@V?$allocator@V?$basic_string@DU?$char_traits@D@std@@V?$allocator@D@2@@std@@@2@@std@@V34@@Z@4HA 00000001800581b0 f   turtlecoin-crypto.obj
 0001:000571bc       ?dtor$1@?0??tree_branch@Cryptography@Core@@SA?AV?$vector@V?$basic_string@DU?$char_traits@D@std@@V?$allocator@D@2@@std@@V?$allocator@V?$basic_string@DU?$char_traits@D@std@@V?$allocator@D@2@@std@@@2@@std@@V34@@Z@4HA 00000001800581bc f   turtlecoin-crypto.obj
 0001:000571c8       ?dtor$2@?0??tree_branch@Cryptography@Core@@SA?AV?$vector@V?$basic_string@DU?$char_traits@D@std@@V?$allocator@D@2@@std@@V?$allocator@V?$basic_string@DU?$char_traits@D@std@@V?$allocator@D@2@@std@@@2@@std@@V34@@Z@4HA 00000001800581c8 f   turtlecoin-crypto.obj
 0001:000571d4       ?dtor$3@?0??tree_branch@Cryptography@Core@@SA?AV?$vector@V?$basic_string@DU?$char_traits@D@std@@V?$allocator@D@2@@std@@V?$allocator@V?$basic_string@DU?$char_traits@D@std@@V?$allocator@D@2@@std@@@2@@std@@V34@@Z@4HA 00000001800581d4 f   turtlecoin-crypto.obj
 0001:00057200       ?dtor$0@?0??tree_hash_from_branch@Cryptography@Core@@SA?AV?$basic_string@DU?$char_traits@D@std@@V?$allocator@D@2@@std@@V?$vector@V?$basic_string@DU?$char_traits@D@std@@V?$allocator@D@2@@std@@V?$allocator@V?$basic_string@DU?$char_traits@D@std@@V?$allocator@D@2@@std@@@2@@4@V34@1@Z@4HA 0000000180058200 f   turtlecoin-crypto.obj
 0001:0005720c       ?dtor$1@?0??tree_hash_from_branch@Cryptography@Core@@SA?AV?$basic_string@DU?$char_traits@D@std@@V?$allocator@D@2@@std@@V?$vector@V?$basic_string@DU?$char_traits@D@std@@V?$allocator@D@2@@std@@V?$allocator@V?$basic_string@DU?$char_traits@D@std@@V?$allocator@D@2@@std@@@2@@4@V34@1@Z@4HA 000000018005820c f   turtlecoin-crypto.obj
 0001:00057218       ?dtor$2@?0??tree_hash_from_branch@Cryptography@Core@@SA?AV?$basic_string@DU?$char_traits@D@std@@V?$allocator@D@2@@std@@V?$vector@V?$basic_string@DU?$char_traits@D@std@@V?$allocator@D@2@@std@@V?$allocator@V?$basic_string@DU?$char_traits@D@std@@V?$allocator@D@2@@std@@@2@@4@V34@1@Z@4HA 0000000180058218 f   turtlecoin-crypto.obj
 0001:00057224       ?dtor$3@?0??tree_hash_from_branch@Cryptography@Core@@SA?AV?$basic_string@DU?$char_traits@D@std@@V?$allocator@D@2@@std@@V?$vector@V?$basic_string@DU?$char_traits@D@std@@V?$allocator@D@2@@std@@V?$allocator@V?$basic_string@DU?$char_traits@D@std@@V?$allocator@D@2@@std@@@2@@4@V34@1@Z@4HA 0000000180058224 f   turtlecoin-crypto.obj
 0001:00057230       ?dtor$6@?0??tree_hash_from_branch@Cryptography@Core@@SA?AV?$basic_string@DU?$char_traits@D@std@@V?$allocator@D@2@@std@@V?$vector@V?$basic_string@DU?$char_traits@D@std@@V?$allocator@D@2@@std@@V?$allocator@V?$basic_string@DU?$char_traits@D@std@@V?$allocator@D@2@@std@@@2@@4@V34@1@Z@4HA 0000000180058230 f   turtlecoin-crypto.obj
 0001:00057260       ?dtor$0@?0??generateRingSignatures@Cryptography@Core@@SA_NV?$basic_string@DU?$char_traits@D@std@@V?$allocator@D@2@@std@@0V?$vector@V?$basic_string@DU?$char_traits@D@std@@V?$allocator@D@2@@std@@V?$allocator@V?$basic_string@DU?$char_traits@D@std@@V?$allocator@D@2@@std@@@2@@4@0_KAEAV54@@Z@4HA 0000000180058260 f   turtlecoin-crypto.obj
 0001:0005726c       ?dtor$1@?0??generateRingSignatures@Cryptography@Core@@SA_NV?$basic_string@DU?$char_traits@D@std@@V?$allocator@D@2@@std@@0V?$vector@V?$basic_string@DU?$char_traits@D@std@@V?$allocator@D@2@@std@@V?$allocator@V?$basic_string@DU?$char_traits@D@std@@V?$allocator@D@2@@std@@@2@@4@0_KAEAV54@@Z@4HA 000000018005826c f   turtlecoin-crypto.obj
 0001:00057278       ?dtor$2@?0??generateRingSignatures@Cryptography@Core@@SA_NV?$basic_string@DU?$char_traits@D@std@@V?$allocator@D@2@@std@@0V?$vector@V?$basic_string@DU?$char_traits@D@std@@V?$allocator@D@2@@std@@V?$allocator@V?$basic_string@DU?$char_traits@D@std@@V?$allocator@D@2@@std@@@2@@4@0_KAEAV54@@Z@4HA 0000000180058278 f   turtlecoin-crypto.obj
 0001:00057284       ?dtor$3@?0??generateRingSignatures@Cryptography@Core@@SA_NV?$basic_string@DU?$char_traits@D@std@@V?$allocator@D@2@@std@@0V?$vector@V?$basic_string@DU?$char_traits@D@std@@V?$allocator@D@2@@std@@V?$allocator@V?$basic_string@DU?$char_traits@D@std@@V?$allocator@D@2@@std@@@2@@4@0_KAEAV54@@Z@4HA 0000000180058284 f   turtlecoin-crypto.obj
 0001:00057290       ?dtor$4@?0??generateRingSignatures@Cryptography@Core@@SA_NV?$basic_string@DU?$char_traits@D@std@@V?$allocator@D@2@@std@@0V?$vector@V?$basic_string@DU?$char_traits@D@std@@V?$allocator@D@2@@std@@V?$allocator@V?$basic_string@DU?$char_traits@D@std@@V?$allocator@D@2@@std@@@2@@4@0_KAEAV54@@Z@4HA 0000000180058290 f   turtlecoin-crypto.obj
 0001:0005729c       ?dtor$5@?0??generateRingSignatures@Cryptography@Core@@SA_NV?$basic_string@DU?$char_traits@D@std@@V?$allocator@D@2@@std@@0V?$vector@V?$basic_string@DU?$char_traits@D@std@@V?$allocator@D@2@@std@@V?$allocator@V?$basic_string@DU?$char_traits@D@std@@V?$allocator@D@2@@std@@@2@@4@0_KAEAV54@@Z@4HA 000000018005829c f   turtlecoin-crypto.obj
 0001:000572b0       ?dtor$0@?0??checkRingSignature@Cryptography@Core@@SA_NV?$basic_string@DU?$char_traits@D@std@@V?$allocator@D@2@@std@@0V?$vector@V?$basic_string@DU?$char_traits@D@std@@V?$allocator@D@2@@std@@V?$allocator@V?$basic_string@DU?$char_traits@D@std@@V?$allocator@D@2@@std@@@2@@4@1@Z@4HA 00000001800582b0 f   turtlecoin-crypto.obj
 0001:000572bc       ?dtor$1@?0??checkRingSignature@Cryptography@Core@@SA_NV?$basic_string@DU?$char_traits@D@std@@V?$allocator@D@2@@std@@0V?$vector@V?$basic_string@DU?$char_traits@D@std@@V?$allocator@D@2@@std@@V?$allocator@V?$basic_string@DU?$char_traits@D@std@@V?$allocator@D@2@@std@@@2@@4@1@Z@4HA 00000001800582bc f   turtlecoin-crypto.obj
 0001:000572c8       ?dtor$2@?0??checkRingSignature@Cryptography@Core@@SA_NV?$basic_string@DU?$char_traits@D@std@@V?$allocator@D@2@@std@@0V?$vector@V?$basic_string@DU?$char_traits@D@std@@V?$allocator@D@2@@std@@V?$allocator@V?$basic_string@DU?$char_traits@D@std@@V?$allocator@D@2@@std@@@2@@4@1@Z@4HA 00000001800582c8 f   turtlecoin-crypto.obj
 0001:000572d4       ?dtor$3@?0??checkRingSignature@Cryptography@Core@@SA_NV?$basic_string@DU?$char_traits@D@std@@V?$allocator@D@2@@std@@0V?$vector@V?$basic_string@DU?$char_traits@D@std@@V?$allocator@D@2@@std@@V?$allocator@V?$basic_string@DU?$char_traits@D@std@@V?$allocator@D@2@@std@@@2@@4@1@Z@4HA 00000001800582d4 f   turtlecoin-crypto.obj
 0001:000572e0       ?dtor$4@?0??checkRingSignature@Cryptography@Core@@SA_NV?$basic_string@DU?$char_traits@D@std@@V?$allocator@D@2@@std@@0V?$vector@V?$basic_string@DU?$char_traits@D@std@@V?$allocator@D@2@@std@@V?$allocator@V?$basic_string@DU?$char_traits@D@std@@V?$allocator@D@2@@std@@@2@@4@1@Z@4HA 00000001800582e0 f   turtlecoin-crypto.obj
 0001:000572ec       ?dtor$5@?0??checkRingSignature@Cryptography@Core@@SA_NV?$basic_string@DU?$char_traits@D@std@@V?$allocator@D@2@@std@@0V?$vector@V?$basic_string@DU?$char_traits@D@std@@V?$allocator@D@2@@std@@V?$allocator@V?$basic_string@DU?$char_traits@D@std@@V?$allocator@D@2@@std@@@2@@4@1@Z@4HA 00000001800582ec f   turtlecoin-crypto.obj
 0001:000572f8       ?dtor$6@?0??checkRingSignature@Cryptography@Core@@SA_NV?$basic_string@DU?$char_traits@D@std@@V?$allocator@D@2@@std@@0V?$vector@V?$basic_string@DU?$char_traits@D@std@@V?$allocator@D@2@@std@@V?$allocator@V?$basic_string@DU?$char_traits@D@std@@V?$allocator@D@2@@std@@@2@@4@1@Z@4HA 00000001800582f8 f   turtlecoin-crypto.obj
 0001:00057310       ?dtor$0@?0??generatePrivateViewKeyFromPrivateSpendKey@Cryptography@Core@@SA?AV?$basic_string@DU?$char_traits@D@std@@V?$allocator@D@2@@std@@V34@@Z@4HA 0000000180058310 f   turtlecoin-crypto.obj
 0001:0005731c       ?dtor$3@?0??generatePrivateViewKeyFromPrivateSpendKey@Cryptography@Core@@SA?AV?$basic_string@DU?$char_traits@D@std@@V?$allocator@D@2@@std@@V34@@Z@4HA 000000018005831c f   turtlecoin-crypto.obj
 0001:00057350       ?dtor$0@?0??generateDeterministicSubwalletKeys@Cryptography@Core@@SA_NV?$basic_string@DU?$char_traits@D@std@@V?$allocator@D@2@@std@@_KAEAV34@2@Z@4HA 0000000180058350 f   turtlecoin-crypto.obj
 0001:00057350       ?dtor$0@?0??generateViewKeysFromPrivateSpendKey@Cryptography@Core@@SAXV?$basic_string@DU?$char_traits@D@std@@V?$allocator@D@2@@std@@AEAV34@1@Z@4HA 0000000180058350 f   turtlecoin-crypto.obj
 0001:0005735c       ?dtor$4@?0??generateDeterministicSubwalletKeys@Cryptography@Core@@SA_NV?$basic_string@DU?$char_traits@D@std@@V?$allocator@D@2@@std@@_KAEAV34@2@Z@4HA 000000018005835c f   turtlecoin-crypto.obj
 0001:0005735c       ?dtor$4@?0??generateViewKeysFromPrivateSpendKey@Cryptography@Core@@SAXV?$basic_string@DU?$char_traits@D@std@@V?$allocator@D@2@@std@@AEAV34@1@Z@4HA 000000018005835c f   turtlecoin-crypto.obj
 0001:00057390       ?dtor$3@?0??generateKeys@Cryptography@Core@@SAXAEAV?$basic_string@DU?$char_traits@D@std@@V?$allocator@D@2@@std@@0@Z@4HA 0000000180058390 f   turtlecoin-crypto.obj
 0001:000573c0       ?dtor$0@?0??hashToEllipticCurve@Cryptography@Core@@SA?AV?$basic_string@DU?$char_traits@D@std@@V?$allocator@D@2@@std@@V34@@Z@4HA 00000001800583c0 f   turtlecoin-crypto.obj
 0001:000573c0       ?dtor$0@?0??scReduce32@Cryptography@Core@@SA?AV?$basic_string@DU?$char_traits@D@std@@V?$allocator@D@2@@std@@V34@@Z@4HA 00000001800583c0 f   turtlecoin-crypto.obj
 0001:000573c0       ?dtor$0@?0??secretKeyToPublicKey@Cryptography@Core@@SA_NV?$basic_string@DU?$char_traits@D@std@@V?$allocator@D@2@@std@@AEAV34@@Z@4HA 00000001800583c0 f   turtlecoin-crypto.obj
 0001:000573d0       ?dtor$0@?0??generateKeyDerivation@Cryptography@Core@@SA_NV?$basic_string@DU?$char_traits@D@std@@V?$allocator@D@2@@std@@0AEAV34@@Z@4HA 00000001800583d0 f   turtlecoin-crypto.obj
 0001:000573dc       ?dtor$1@?0??generateKeyDerivation@Cryptography@Core@@SA_NV?$basic_string@DU?$char_traits@D@std@@V?$allocator@D@2@@std@@0AEAV34@@Z@4HA 00000001800583dc f   turtlecoin-crypto.obj
 0001:000573e8       ?dtor$4@?0??generateKeyDerivation@Cryptography@Core@@SA_NV?$basic_string@DU?$char_traits@D@std@@V?$allocator@D@2@@std@@0AEAV34@@Z@4HA 00000001800583e8 f   turtlecoin-crypto.obj
 0001:00057420       ?dtor$0@?0??derivePublicKey@Cryptography@Core@@SA_NV?$basic_string@DU?$char_traits@D@std@@V?$allocator@D@2@@std@@_K0AEAV34@@Z@4HA 0000000180058420 f   turtlecoin-crypto.obj
 0001:00057420       ?dtor$0@?0??underivePublicKey@Cryptography@Core@@SA_NV?$basic_string@DU?$char_traits@D@std@@V?$allocator@D@2@@std@@_K0AEAV34@@Z@4HA 0000000180058420 f   turtlecoin-crypto.obj
 0001:0005742c       ?dtor$1@?0??derivePublicKey@Cryptography@Core@@SA_NV?$basic_string@DU?$char_traits@D@std@@V?$allocator@D@2@@std@@_K0AEAV34@@Z@4HA 000000018005842c f   turtlecoin-crypto.obj
 0001:0005742c       ?dtor$1@?0??underivePublicKey@Cryptography@Core@@SA_NV?$basic_string@DU?$char_traits@D@std@@V?$allocator@D@2@@std@@_K0AEAV34@@Z@4HA 000000018005842c f   turtlecoin-crypto.obj
 0001:00057440       ?dtor$0@?0??deriveSecretKey@Cryptography@Core@@SA?AV?$basic_string@DU?$char_traits@D@std@@V?$allocator@D@2@@std@@V34@_K0@Z@4HA 0000000180058440 f   turtlecoin-crypto.obj
 0001:0005744c       ?dtor$1@?0??deriveSecretKey@Cryptography@Core@@SA?AV?$basic_string@DU?$char_traits@D@std@@V?$allocator@D@2@@std@@V34@_K0@Z@4HA 000000018005844c f   turtlecoin-crypto.obj
 0001:00057458       ?dtor$4@?0??deriveSecretKey@Cryptography@Core@@SA?AV?$basic_string@DU?$char_traits@D@std@@V?$allocator@D@2@@std@@V34@_K0@Z@4HA 0000000180058458 f   turtlecoin-crypto.obj
 0001:00057480       ?dtor$0@?0??generateSignature@Cryptography@Core@@SA?AV?$basic_string@DU?$char_traits@D@std@@V?$allocator@D@2@@std@@V34@00@Z@4HA 0000000180058480 f   turtlecoin-crypto.obj
 0001:0005748c       ?dtor$1@?0??generateSignature@Cryptography@Core@@SA?AV?$basic_string@DU?$char_traits@D@std@@V?$allocator@D@2@@std@@V34@00@Z@4HA 000000018005848c f   turtlecoin-crypto.obj
 0001:00057498       ?dtor$2@?0??generateSignature@Cryptography@Core@@SA?AV?$basic_string@DU?$char_traits@D@std@@V?$allocator@D@2@@std@@V34@00@Z@4HA 0000000180058498 f   turtlecoin-crypto.obj
 0001:000574b0       ?dtor$0@?0??generateKeyImage@Cryptography@Core@@SA?AV?$basic_string@DU?$char_traits@D@std@@V?$allocator@D@2@@std@@V34@0@Z@4HA 00000001800584b0 f   turtlecoin-crypto.obj
 0001:000574b0       ?dtor$0@?0??scalarmultKey@Cryptography@Core@@SA?AV?$basic_string@DU?$char_traits@D@std@@V?$allocator@D@2@@std@@V34@0@Z@4HA 00000001800584b0 f   turtlecoin-crypto.obj
 0001:000574bc       ?dtor$1@?0??generateKeyImage@Cryptography@Core@@SA?AV?$basic_string@DU?$char_traits@D@std@@V?$allocator@D@2@@std@@V34@0@Z@4HA 00000001800584bc f   turtlecoin-crypto.obj
 0001:000574bc       ?dtor$1@?0??scalarmultKey@Cryptography@Core@@SA?AV?$basic_string@DU?$char_traits@D@std@@V?$allocator@D@2@@std@@V34@0@Z@4HA 00000001800584bc f   turtlecoin-crypto.obj
 0001:000574d0       ?dtor$0@?0??hashToScalar@Cryptography@Core@@SA?AV?$basic_string@DU?$char_traits@D@std@@V?$allocator@D@2@@std@@V34@@Z@4HA 00000001800584d0 f   turtlecoin-crypto.obj
 0001:000574dc       ?dtor$4@?0??hashToScalar@Cryptography@Core@@SA?AV?$basic_string@DU?$char_traits@D@std@@V?$allocator@D@2@@std@@V34@@Z@4HA 00000001800584dc f   turtlecoin-crypto.obj
 0001:000574e8       ?dtor$2@?0??hashToScalar@Cryptography@Core@@SA?AV?$basic_string@DU?$char_traits@D@std@@V?$allocator@D@2@@std@@V34@@Z@4HA 00000001800584e8 f   turtlecoin-crypto.obj
 0001:00057500       ?dtor$0@?0??restoreRingSignatures@Cryptography@Core@@SA_NAEBV?$basic_string@DU?$char_traits@D@std@@V?$allocator@D@2@@std@@_KAEBV?$vector@V?$basic_string@DU?$char_traits@D@std@@V?$allocator@D@2@@std@@V?$allocator@V?$basic_string@DU?$char_traits@D@std@@V?$allocator@D@2@@std@@@2@@4@10AEAV54@@Z@4HA 0000000180058500 f   turtlecoin-crypto.obj
 0001:0005750c       ?dtor$1@?0??restoreRingSignatures@Cryptography@Core@@SA_NAEBV?$basic_string@DU?$char_traits@D@std@@V?$allocator@D@2@@std@@_KAEBV?$vector@V?$basic_string@DU?$char_traits@D@std@@V?$allocator@D@2@@std@@V?$allocator@V?$basic_string@DU?$char_traits@D@std@@V?$allocator@D@2@@std@@@2@@4@10AEAV54@@Z@4HA 000000018005850c f   turtlecoin-crypto.obj
 0001:00057520       ?dtor$2@?0??generatePartialSigningKey@Cryptography@Core@@SA?AV?$basic_string@DU?$char_traits@D@std@@V?$allocator@D@2@@std@@AEBV34@0@Z@4HA 0000000180058520 f   turtlecoin-crypto.obj
 0001:00057550       ?dtor$0@?0??prepareRingSignatures@Cryptography@Core@@SA_NV?$basic_string@DU?$char_traits@D@std@@V?$allocator@D@2@@std@@0V?$vector@V?$basic_string@DU?$char_traits@D@std@@V?$allocator@D@2@@std@@V?$allocator@V?$basic_string@DU?$char_traits@D@std@@V?$allocator@D@2@@std@@@2@@4@_KAEAV54@AEAV34@@Z@4HA 0000000180058550 f   turtlecoin-crypto.obj
 0001:0005755c       ?dtor$1@?0??prepareRingSignatures@Cryptography@Core@@SA_NV?$basic_string@DU?$char_traits@D@std@@V?$allocator@D@2@@std@@0V?$vector@V?$basic_string@DU?$char_traits@D@std@@V?$allocator@D@2@@std@@V?$allocator@V?$basic_string@DU?$char_traits@D@std@@V?$allocator@D@2@@std@@@2@@4@_KAEAV54@AEAV34@@Z@4HA 000000018005855c f   turtlecoin-crypto.obj
 0001:00057568       ?dtor$2@?0??prepareRingSignatures@Cryptography@Core@@SA_NV?$basic_string@DU?$char_traits@D@std@@V?$allocator@D@2@@std@@0V?$vector@V?$basic_string@DU?$char_traits@D@std@@V?$allocator@D@2@@std@@V?$allocator@V?$basic_string@DU?$char_traits@D@std@@V?$allocator@D@2@@std@@@2@@4@_KAEAV54@AEAV34@@Z@4HA 0000000180058568 f   turtlecoin-crypto.obj
 0001:00057574       ?dtor$3@?0??prepareRingSignatures@Cryptography@Core@@SA_NV?$basic_string@DU?$char_traits@D@std@@V?$allocator@D@2@@std@@0V?$vector@V?$basic_string@DU?$char_traits@D@std@@V?$allocator@D@2@@std@@V?$allocator@V?$basic_string@DU?$char_traits@D@std@@V?$allocator@D@2@@std@@@2@@4@_KAEAV54@AEAV34@@Z@4HA 0000000180058574 f   turtlecoin-crypto.obj
 0001:00057580       ?dtor$4@?0??prepareRingSignatures@Cryptography@Core@@SA_NV?$basic_string@DU?$char_traits@D@std@@V?$allocator@D@2@@std@@0V?$vector@V?$basic_string@DU?$char_traits@D@std@@V?$allocator@D@2@@std@@V?$allocator@V?$basic_string@DU?$char_traits@D@std@@V?$allocator@D@2@@std@@@2@@4@_KAEAV54@AEAV34@@Z@4HA 0000000180058580 f   turtlecoin-crypto.obj
 0001:0005758c       ?dtor$8@?0??prepareRingSignatures@Cryptography@Core@@SA_NV?$basic_string@DU?$char_traits@D@std@@V?$allocator@D@2@@std@@0V?$vector@V?$basic_string@DU?$char_traits@D@std@@V?$allocator@D@2@@std@@V?$allocator@V?$basic_string@DU?$char_traits@D@std@@V?$allocator@D@2@@std@@@2@@4@_KAEAV54@AEAV34@@Z@4HA 000000018005858c f   turtlecoin-crypto.obj
 0001:000575a0       ?dtor$0@?0??prepareRingSignatures@Cryptography@Core@@SA_NV?$basic_string@DU?$char_traits@D@std@@V?$allocator@D@2@@std@@0V?$vector@V?$basic_string@DU?$char_traits@D@std@@V?$allocator@D@2@@std@@V?$allocator@V?$basic_string@DU?$char_traits@D@std@@V?$allocator@D@2@@std@@@2@@4@_K0AEAV54@@Z@4HA 00000001800585a0 f   turtlecoin-crypto.obj
 0001:000575ac       ?dtor$1@?0??prepareRingSignatures@Cryptography@Core@@SA_NV?$basic_string@DU?$char_traits@D@std@@V?$allocator@D@2@@std@@0V?$vector@V?$basic_string@DU?$char_traits@D@std@@V?$allocator@D@2@@std@@V?$allocator@V?$basic_string@DU?$char_traits@D@std@@V?$allocator@D@2@@std@@@2@@4@_K0AEAV54@@Z@4HA 00000001800585ac f   turtlecoin-crypto.obj
 0001:000575b8       ?dtor$2@?0??prepareRingSignatures@Cryptography@Core@@SA_NV?$basic_string@DU?$char_traits@D@std@@V?$allocator@D@2@@std@@0V?$vector@V?$basic_string@DU?$char_traits@D@std@@V?$allocator@D@2@@std@@V?$allocator@V?$basic_string@DU?$char_traits@D@std@@V?$allocator@D@2@@std@@@2@@4@_K0AEAV54@@Z@4HA 00000001800585b8 f   turtlecoin-crypto.obj
 0001:000575c4       ?dtor$3@?0??prepareRingSignatures@Cryptography@Core@@SA_NV?$basic_string@DU?$char_traits@D@std@@V?$allocator@D@2@@std@@0V?$vector@V?$basic_string@DU?$char_traits@D@std@@V?$allocator@D@2@@std@@V?$allocator@V?$basic_string@DU?$char_traits@D@std@@V?$allocator@D@2@@std@@@2@@4@_K0AEAV54@@Z@4HA 00000001800585c4 f   turtlecoin-crypto.obj
 0001:000575d0       ?dtor$4@?0??prepareRingSignatures@Cryptography@Core@@SA_NV?$basic_string@DU?$char_traits@D@std@@V?$allocator@D@2@@std@@0V?$vector@V?$basic_string@DU?$char_traits@D@std@@V?$allocator@D@2@@std@@V?$allocator@V?$basic_string@DU?$char_traits@D@std@@V?$allocator@D@2@@std@@@2@@4@_K0AEAV54@@Z@4HA 00000001800585d0 f   turtlecoin-crypto.obj
 0001:000575dc       ?dtor$5@?0??prepareRingSignatures@Cryptography@Core@@SA_NV?$basic_string@DU?$char_traits@D@std@@V?$allocator@D@2@@std@@0V?$vector@V?$basic_string@DU?$char_traits@D@std@@V?$allocator@D@2@@std@@V?$allocator@V?$basic_string@DU?$char_traits@D@std@@V?$allocator@D@2@@std@@@2@@4@_K0AEAV54@@Z@4HA 00000001800585dc f   turtlecoin-crypto.obj
 0001:000575f0       ?dtor$0@?0??completeRingSignatures@Cryptography@Core@@SA_NV?$basic_string@DU?$char_traits@D@std@@V?$allocator@D@2@@std@@_KAEBV34@AEAV?$vector@V?$basic_string@DU?$char_traits@D@std@@V?$allocator@D@2@@std@@V?$allocator@V?$basic_string@DU?$char_traits@D@std@@V?$allocator@D@2@@std@@@2@@4@@Z@4HA 00000001800585f0 f   turtlecoin-crypto.obj
 0001:000575fc       ?dtor$1@?0??completeRingSignatures@Cryptography@Core@@SA_NV?$basic_string@DU?$char_traits@D@std@@V?$allocator@D@2@@std@@_KAEBV34@AEAV?$vector@V?$basic_string@DU?$char_traits@D@std@@V?$allocator@D@2@@std@@V?$allocator@V?$basic_string@DU?$char_traits@D@std@@V?$allocator@D@2@@std@@@2@@4@@Z@4HA 00000001800585fc f   turtlecoin-crypto.obj
 0001:00057610       ?dtor$0@?0??calculateMultisigPrivateKeys@Cryptography@Core@@SA?AV?$vector@V?$basic_string@DU?$char_traits@D@std@@V?$allocator@D@2@@std@@V?$allocator@V?$basic_string@DU?$char_traits@D@std@@V?$allocator@D@2@@std@@@2@@std@@AEBV?$basic_string@DU?$char_traits@D@std@@V?$allocator@D@2@@4@AEBV34@@Z@4HA 0000000180058610 f   turtlecoin-crypto.obj
 0001:0005761c       ?dtor$1@?0??calculateMultisigPrivateKeys@Cryptography@Core@@SA?AV?$vector@V?$basic_string@DU?$char_traits@D@std@@V?$allocator@D@2@@std@@V?$allocator@V?$basic_string@DU?$char_traits@D@std@@V?$allocator@D@2@@std@@@2@@std@@AEBV?$basic_string@DU?$char_traits@D@std@@V?$allocator@D@2@@4@AEBV34@@Z@4HA 000000018005861c f   turtlecoin-crypto.obj
 0001:00057628       ?dtor$2@?0??calculateMultisigPrivateKeys@Cryptography@Core@@SA?AV?$vector@V?$basic_string@DU?$char_traits@D@std@@V?$allocator@D@2@@std@@V?$allocator@V?$basic_string@DU?$char_traits@D@std@@V?$allocator@D@2@@std@@@2@@std@@AEBV?$basic_string@DU?$char_traits@D@std@@V?$allocator@D@2@@4@AEBV34@@Z@4HA 0000000180058628 f   turtlecoin-crypto.obj
 0001:00057650       ?dtor$0@?0??calculateSharedPrivateKey@Cryptography@Core@@SA?AV?$basic_string@DU?$char_traits@D@std@@V?$allocator@D@2@@std@@AEBV?$vector@V?$basic_string@DU?$char_traits@D@std@@V?$allocator@D@2@@std@@V?$allocator@V?$basic_string@DU?$char_traits@D@std@@V?$allocator@D@2@@std@@@2@@4@@Z@4HA 0000000180058650 f   turtlecoin-crypto.obj
 0001:0005765c       ?dtor$2@?0??calculateSharedPrivateKey@Cryptography@Core@@SA?AV?$basic_string@DU?$char_traits@D@std@@V?$allocator@D@2@@std@@AEBV?$vector@V?$basic_string@DU?$char_traits@D@std@@V?$allocator@D@2@@std@@V?$allocator@V?$basic_string@DU?$char_traits@D@std@@V?$allocator@D@2@@std@@@2@@4@@Z@4HA 000000018005865c f   turtlecoin-crypto.obj
 0001:00057668       ?dtor$4@?0??calculateSharedPrivateKey@Cryptography@Core@@SA?AV?$basic_string@DU?$char_traits@D@std@@V?$allocator@D@2@@std@@AEBV?$vector@V?$basic_string@DU?$char_traits@D@std@@V?$allocator@D@2@@std@@V?$allocator@V?$basic_string@DU?$char_traits@D@std@@V?$allocator@D@2@@std@@@2@@4@@Z@4HA 0000000180058668 f   turtlecoin-crypto.obj
 0001:00057690       ?dtor$0@?0???0?$vector@V?$basic_string@DU?$char_traits@D@std@@V?$allocator@D@2@@std@@V?$allocator@V?$basic_string@DU?$char_traits@D@std@@V?$allocator@D@2@@std@@@2@@std@@QEAA@AEBV01@@Z@4HA 0000000180058690 f   turtlecoin-crypto.obj
 0001:0005769c       ?dtor$1@?0???0?$vector@V?$basic_string@DU?$char_traits@D@std@@V?$allocator@D@2@@std@@V?$allocator@V?$basic_string@DU?$char_traits@D@std@@V?$allocator@D@2@@std@@@2@@std@@QEAA@AEBV01@@Z@4HA 000000018005869c f   turtlecoin-crypto.obj
 0001:000576b0       ?dtor$1@?0???$podToHex@UEllipticCurveScalar@Crypto@@@Common@@YA?AV?$basic_string@DU?$char_traits@D@std@@V?$allocator@D@2@@std@@AEBUEllipticCurveScalar@Crypto@@@Z@4HA 00000001800586b0 f   turtlecoin-crypto.obj
 0001:000576b0       ?dtor$1@?0???$podToHex@UKeyImage@Crypto@@@Common@@YA?AV?$basic_string@DU?$char_traits@D@std@@V?$allocator@D@2@@std@@AEBUKeyImage@Crypto@@@Z@4HA 00000001800586b0 f   turtlecoin-crypto.obj
 0001:000576b0       ?dtor$1@?0???$podToHex@UPublicKey@Crypto@@@Common@@YA?AV?$basic_string@DU?$char_traits@D@std@@V?$allocator@D@2@@std@@AEBUPublicKey@Crypto@@@Z@4HA 00000001800586b0 f   turtlecoin-crypto.obj
 0001:000576b0       ?dtor$1@?0???$podToHex@USignature@Crypto@@@Common@@YA?AV?$basic_string@DU?$char_traits@D@std@@V?$allocator@D@2@@std@@AEBUSignature@Crypto@@@Z@4HA 00000001800586b0 f   turtlecoin-crypto.obj
 0001:000576e0       ?dtor$0@?0???$toTypedVector@UHash@Crypto@@@Core@@YAXAEBV?$vector@V?$basic_string@DU?$char_traits@D@std@@V?$allocator@D@2@@std@@V?$allocator@V?$basic_string@DU?$char_traits@D@std@@V?$allocator@D@2@@std@@@2@@std@@AEAV?$vector@UHash@Crypto@@V?$allocator@UHash@Crypto@@@std@@@2@@Z@4HA 00000001800586e0 f   turtlecoin-crypto.obj
 0001:000576e0       ?dtor$0@?0???$toTypedVector@UKeyImage@Crypto@@@Core@@YAXAEBV?$vector@V?$basic_string@DU?$char_traits@D@std@@V?$allocator@D@2@@std@@V?$allocator@V?$basic_string@DU?$char_traits@D@std@@V?$allocator@D@2@@std@@@2@@std@@AEAV?$vector@UKeyImage@Crypto@@V?$allocator@UKeyImage@Crypto@@@std@@@2@@Z@4HA 00000001800586e0 f   turtlecoin-crypto.obj
 0001:000576e0       ?dtor$0@?0???$toTypedVector@UPublicKey@Crypto@@@Core@@YAXAEBV?$vector@V?$basic_string@DU?$char_traits@D@std@@V?$allocator@D@2@@std@@V?$allocator@V?$basic_string@DU?$char_traits@D@std@@V?$allocator@D@2@@std@@@2@@std@@AEAV?$vector@UPublicKey@Crypto@@V?$allocator@UPublicKey@Crypto@@@std@@@2@@Z@4HA 00000001800586e0 f   turtlecoin-crypto.obj
 0001:000576e0       ?dtor$0@?0???$toTypedVector@USecretKey@Crypto@@@Core@@YAXAEBV?$vector@V?$basic_string@DU?$char_traits@D@std@@V?$allocator@D@2@@std@@V?$allocator@V?$basic_string@DU?$char_traits@D@std@@V?$allocator@D@2@@std@@@2@@std@@AEAV?$vector@USecretKey@Crypto@@V?$allocator@USecretKey@Crypto@@@std@@@2@@Z@4HA 00000001800586e0 f   turtlecoin-crypto.obj
 0001:000576f0       ?dtor$11@?0???$toStringVector@UHash@Crypto@@@Core@@YAXAEBV?$vector@UHash@Crypto@@V?$allocator@UHash@Crypto@@@std@@@std@@AEAV?$vector@V?$basic_string@DU?$char_traits@D@std@@V?$allocator@D@2@@std@@V?$allocator@V?$basic_string@DU?$char_traits@D@std@@V?$allocator@D@2@@std@@@2@@2@@Z@4HA 00000001800586f0 f   turtlecoin-crypto.obj
 0001:000576f0       ?dtor$11@?0???$toStringVector@USecretKey@Crypto@@@Core@@YAXAEBV?$vector@USecretKey@Crypto@@V?$allocator@USecretKey@Crypto@@@std@@@std@@AEAV?$vector@V?$basic_string@DU?$char_traits@D@std@@V?$allocator@D@2@@std@@V?$allocator@V?$basic_string@DU?$char_traits@D@std@@V?$allocator@D@2@@std@@@2@@2@@Z@4HA 00000001800586f0 f   turtlecoin-crypto.obj
 0001:00057716       ?dtor$1@?0???$toStringVector@UHash@Crypto@@@Core@@YAXAEBV?$vector@UHash@Crypto@@V?$allocator@UHash@Crypto@@@std@@@std@@AEAV?$vector@V?$basic_string@DU?$char_traits@D@std@@V?$allocator@D@2@@std@@V?$allocator@V?$basic_string@DU?$char_traits@D@std@@V?$allocator@D@2@@std@@@2@@2@@Z@4HA 0000000180058716 f   turtlecoin-crypto.obj
 0001:00057716       ?dtor$1@?0???$toStringVector@USecretKey@Crypto@@@Core@@YAXAEBV?$vector@USecretKey@Crypto@@V?$allocator@USecretKey@Crypto@@@std@@@std@@AEAV?$vector@V?$basic_string@DU?$char_traits@D@std@@V?$allocator@D@2@@std@@V?$allocator@V?$basic_string@DU?$char_traits@D@std@@V?$allocator@D@2@@std@@@2@@2@@Z@4HA 0000000180058716 f   turtlecoin-crypto.obj
 0001:00057730       ?dtor$2@?0???$toStringVector@USignature@Crypto@@@Core@@YAXAEBV?$vector@USignature@Crypto@@V?$allocator@USignature@Crypto@@@std@@@std@@AEAV?$vector@V?$basic_string@DU?$char_traits@D@std@@V?$allocator@D@2@@std@@V?$allocator@V?$basic_string@DU?$char_traits@D@std@@V?$allocator@D@2@@std@@@2@@2@@Z@4HA 0000000180058730 f   turtlecoin-crypto.obj
 0001:00057760       ?dtor$0@?0???$toTypedVector@USignature@Crypto@@@Core@@YAXAEBV?$vector@V?$basic_string@DU?$char_traits@D@std@@V?$allocator@D@2@@std@@V?$allocator@V?$basic_string@DU?$char_traits@D@std@@V?$allocator@D@2@@std@@@2@@std@@AEAV?$vector@USignature@Crypto@@V?$allocator@USignature@Crypto@@@std@@@2@@Z@4HA 0000000180058760 f   turtlecoin-crypto.obj
 0001:00057770       ?dtor$0@?0???0Utf8String@Nan@@QEAA@V?$Local@VValue@v8@@@v8@@@Z@4HA 0000000180058770 f   turtlecoin-crypto-node.obj
 0001:00057780       ?dtor$0@?0??prepareResult@@YA?AV?$Local@VArray@v8@@@v8@@_NV?$Local@VValue@v8@@@2@@Z@4HA 0000000180058780 f   turtlecoin-crypto-node.obj
 0001:0005778e       ?dtor$1@?0??prepareResult@@YA?AV?$Local@VArray@v8@@@v8@@_NV?$Local@VValue@v8@@@2@@Z@4HA 000000018005878e f   turtlecoin-crypto-node.obj
 0001:000577a0       ?dtor$0@?0??getString@@YA?AV?$basic_string@DU?$char_traits@D@std@@V?$allocator@D@2@@std@@AEBV?$FunctionCallbackInfo@VValue@v8@@@Nan@@E@Z@4HA 00000001800587a0 f   turtlecoin-crypto-node.obj
 0001:000577c6       ?dtor$1@?0??getString@@YA?AV?$basic_string@DU?$char_traits@D@std@@V?$allocator@D@2@@std@@AEBV?$FunctionCallbackInfo@VValue@v8@@@Nan@@E@Z@4HA 00000001800587c6 f   turtlecoin-crypto-node.obj
 0001:000577e0       ?dtor$0@?0??toStringVector@@YA?AV?$vector@V?$basic_string@DU?$char_traits@D@std@@V?$allocator@D@2@@std@@V?$allocator@V?$basic_string@DU?$char_traits@D@std@@V?$allocator@D@2@@std@@@2@@std@@AEBV?$FunctionCallbackInfo@VValue@v8@@@Nan@@E@Z@4HA 00000001800587e0 f   turtlecoin-crypto-node.obj
 0001:00057806       ?dtor$3@?0??toStringVector@@YA?AV?$vector@V?$basic_string@DU?$char_traits@D@std@@V?$allocator@D@2@@std@@V?$allocator@V?$basic_string@DU?$char_traits@D@std@@V?$allocator@D@2@@std@@@2@@std@@AEBV?$FunctionCallbackInfo@VValue@v8@@@Nan@@E@Z@4HA 0000000180058806 f   turtlecoin-crypto-node.obj
 0001:00057814       ?dtor$1@?0??toStringVector@@YA?AV?$vector@V?$basic_string@DU?$char_traits@D@std@@V?$allocator@D@2@@std@@V?$allocator@V?$basic_string@DU?$char_traits@D@std@@V?$allocator@D@2@@std@@@2@@std@@AEBV?$FunctionCallbackInfo@VValue@v8@@@Nan@@E@Z@4HA 0000000180058814 f   turtlecoin-crypto-node.obj
 0001:00057820       ?dtor$2@?0??toStringVector@@YA?AV?$vector@V?$basic_string@DU?$char_traits@D@std@@V?$allocator@D@2@@std@@V?$allocator@V?$basic_string@DU?$char_traits@D@std@@V?$allocator@D@2@@std@@@2@@std@@AEBV?$FunctionCallbackInfo@VValue@v8@@@Nan@@E@Z@4HA 0000000180058820 f   turtlecoin-crypto-node.obj
 0001:00057830       ?dtor$0@?0??getUInt32@@YAIAEBV?$FunctionCallbackInfo@VValue@v8@@@Nan@@E@Z@4HA 0000000180058830 f   turtlecoin-crypto-node.obj
 0001:00057830       ?dtor$0@?0??getUInt64@@YA_KAEBV?$FunctionCallbackInfo@VValue@v8@@@Nan@@E@Z@4HA 0000000180058830 f   turtlecoin-crypto-node.obj
 0001:00057840       ?dtor$1@?0??toV8Array@@YA?AV?$Local@VArray@v8@@@v8@@AEBV?$vector@V?$basic_string@DU?$char_traits@D@std@@V?$allocator@D@2@@std@@V?$allocator@V?$basic_string@DU?$char_traits@D@std@@V?$allocator@D@2@@std@@@2@@std@@@Z@4HA 0000000180058840 f   turtlecoin-crypto-node.obj
 0001:0005784c       ?dtor$3@?0??toV8Array@@YA?AV?$Local@VArray@v8@@@v8@@AEBV?$vector@V?$basic_string@DU?$char_traits@D@std@@V?$allocator@D@2@@std@@V?$allocator@V?$basic_string@DU?$char_traits@D@std@@V?$allocator@D@2@@std@@@2@@std@@@Z@4HA 000000018005884c f   turtlecoin-crypto-node.obj
 0001:00057860       ?dtor$0@?0??calculateMultisigPrivateKeys@@YAXAEBV?$FunctionCallbackInfo@VValue@v8@@@Nan@@@Z@4HA 0000000180058860 f   turtlecoin-crypto-node.obj
 0001:0005786c       ?dtor$1@?0??calculateMultisigPrivateKeys@@YAXAEBV?$FunctionCallbackInfo@VValue@v8@@@Nan@@@Z@4HA 000000018005886c f   turtlecoin-crypto-node.obj
 0001:00057878       ?dtor$2@?0??calculateMultisigPrivateKeys@@YAXAEBV?$FunctionCallbackInfo@VValue@v8@@@Nan@@@Z@4HA 0000000180058878 f   turtlecoin-crypto-node.obj
 0001:00057884       ?catch$4@?0??calculateMultisigPrivateKeys@@YAXAEBV?$FunctionCallbackInfo@VValue@v8@@@Nan@@@Z@4HA 0000000180058884 f   turtlecoin-crypto-node.obj
 0001:00057891       __catch$?calculateMultisigPrivateKeys@@YAXAEBV?$FunctionCallbackInfo@VValue@v8@@@Nan@@@Z$0 0000000180058891 f   turtlecoin-crypto-node.obj
 0001:000578b0       ?dtor$0@?0??calculateSharedPrivateKey@@YAXAEBV?$FunctionCallbackInfo@VValue@v8@@@Nan@@@Z@4HA 00000001800588b0 f   turtlecoin-crypto-node.obj
 0001:000578bc       ?dtor$1@?0??calculateSharedPrivateKey@@YAXAEBV?$FunctionCallbackInfo@VValue@v8@@@Nan@@@Z@4HA 00000001800588bc f   turtlecoin-crypto-node.obj
 0001:000578c8       ?dtor$3@?0??calculateSharedPrivateKey@@YAXAEBV?$FunctionCallbackInfo@VValue@v8@@@Nan@@@Z@4HA 00000001800588c8 f   turtlecoin-crypto-node.obj
 0001:000578d4       ?catch$6@?0??calculateSharedPrivateKey@@YAXAEBV?$FunctionCallbackInfo@VValue@v8@@@Nan@@@Z@4HA 00000001800588d4 f   turtlecoin-crypto-node.obj
 0001:000578e1       __catch$?calculateSharedPrivateKey@@YAXAEBV?$FunctionCallbackInfo@VValue@v8@@@Nan@@@Z$0 00000001800588e1 f   turtlecoin-crypto-node.obj
 0001:00057900       ?dtor$0@?0??calculateSharedPublicKey@@YAXAEBV?$FunctionCallbackInfo@VValue@v8@@@Nan@@@Z@4HA 0000000180058900 f   turtlecoin-crypto-node.obj
 0001:0005790c       ?dtor$2@?0??calculateSharedPublicKey@@YAXAEBV?$FunctionCallbackInfo@VValue@v8@@@Nan@@@Z@4HA 000000018005890c f   turtlecoin-crypto-node.obj
 0001:00057918       ?dtor$1@?0??calculateSharedPublicKey@@YAXAEBV?$FunctionCallbackInfo@VValue@v8@@@Nan@@@Z@4HA 0000000180058918 f   turtlecoin-crypto-node.obj
 0001:00057924       ?dtor$5@?0??calculateSharedPublicKey@@YAXAEBV?$FunctionCallbackInfo@VValue@v8@@@Nan@@@Z@4HA 0000000180058924 f   turtlecoin-crypto-node.obj
 0001:00057930       ?catch$8@?0??calculateSharedPublicKey@@YAXAEBV?$FunctionCallbackInfo@VValue@v8@@@Nan@@@Z@4HA 0000000180058930 f   turtlecoin-crypto-node.obj
 0001:0005793d       __catch$?calculateSharedPublicKey@@YAXAEBV?$FunctionCallbackInfo@VValue@v8@@@Nan@@@Z$0 000000018005893d f   turtlecoin-crypto-node.obj
 0001:00057960       ?dtor$0@?0??prepareRingSignatures@@YAXAEBV?$FunctionCallbackInfo@VValue@v8@@@Nan@@@Z@4HA 0000000180058960 f   turtlecoin-crypto-node.obj
 0001:0005796c       ?dtor$1@?0??prepareRingSignatures@@YAXAEBV?$FunctionCallbackInfo@VValue@v8@@@Nan@@@Z@4HA 000000018005896c f   turtlecoin-crypto-node.obj
 0001:00057978       ?dtor$2@?0??prepareRingSignatures@@YAXAEBV?$FunctionCallbackInfo@VValue@v8@@@Nan@@@Z@4HA 0000000180058978 f   turtlecoin-crypto-node.obj
 0001:00057984       ?dtor$3@?0??prepareRingSignatures@@YAXAEBV?$FunctionCallbackInfo@VValue@v8@@@Nan@@@Z@4HA 0000000180058984 f   turtlecoin-crypto-node.obj
 0001:00057990       ?dtor$4@?0??prepareRingSignatures@@YAXAEBV?$FunctionCallbackInfo@VValue@v8@@@Nan@@@Z@4HA 0000000180058990 f   turtlecoin-crypto-node.obj
 0001:0005799c       ?dtor$5@?0??prepareRingSignatures@@YAXAEBV?$FunctionCallbackInfo@VValue@v8@@@Nan@@@Z@4HA 000000018005899c f   turtlecoin-crypto-node.obj
 0001:000579a8       ?dtor$6@?0??prepareRingSignatures@@YAXAEBV?$FunctionCallbackInfo@VValue@v8@@@Nan@@@Z@4HA 00000001800589a8 f   turtlecoin-crypto-node.obj
 0001:000579b4       ?dtor$8@?0??prepareRingSignatures@@YAXAEBV?$FunctionCallbackInfo@VValue@v8@@@Nan@@@Z@4HA 00000001800589b4 f   turtlecoin-crypto-node.obj
 0001:000579c0       ?dtor$9@?0??prepareRingSignatures@@YAXAEBV?$FunctionCallbackInfo@VValue@v8@@@Nan@@@Z@4HA 00000001800589c0 f   turtlecoin-crypto-node.obj
 0001:000579cc       ?dtor$10@?0??prepareRingSignatures@@YAXAEBV?$FunctionCallbackInfo@VValue@v8@@@Nan@@@Z@4HA 00000001800589cc f   turtlecoin-crypto-node.obj
 0001:000579d8       ?dtor$13@?0??prepareRingSignatures@@YAXAEBV?$FunctionCallbackInfo@VValue@v8@@@Nan@@@Z@4HA 00000001800589d8 f   turtlecoin-crypto-node.obj
 0001:000579e4       ?dtor$15@?0??prepareRingSignatures@@YAXAEBV?$FunctionCallbackInfo@VValue@v8@@@Nan@@@Z@4HA 00000001800589e4 f   turtlecoin-crypto-node.obj
 0001:000579f2       ?dtor$16@?0??prepareRingSignatures@@YAXAEBV?$FunctionCallbackInfo@VValue@v8@@@Nan@@@Z@4HA 00000001800589f2 f   turtlecoin-crypto-node.obj
 0001:00057a00       ?catch$20@?0??prepareRingSignatures@@YAXAEBV?$FunctionCallbackInfo@VValue@v8@@@Nan@@@Z@4HA 0000000180058a00 f   turtlecoin-crypto-node.obj
 0001:00057a0d       __catch$?prepareRingSignatures@@YAXAEBV?$FunctionCallbackInfo@VValue@v8@@@Nan@@@Z$0 0000000180058a0d f   turtlecoin-crypto-node.obj
 0001:00057a30       ?dtor$0@?0??completeRingSignatures@@YAXAEBV?$FunctionCallbackInfo@VValue@v8@@@Nan@@@Z@4HA 0000000180058a30 f   turtlecoin-crypto-node.obj
 0001:00057a3c       ?dtor$1@?0??completeRingSignatures@@YAXAEBV?$FunctionCallbackInfo@VValue@v8@@@Nan@@@Z@4HA 0000000180058a3c f   turtlecoin-crypto-node.obj
 0001:00057a48       ?dtor$2@?0??completeRingSignatures@@YAXAEBV?$FunctionCallbackInfo@VValue@v8@@@Nan@@@Z@4HA 0000000180058a48 f   turtlecoin-crypto-node.obj
 0001:00057a54       ?catch$6@?0??completeRingSignatures@@YAXAEBV?$FunctionCallbackInfo@VValue@v8@@@Nan@@@Z@4HA 0000000180058a54 f   turtlecoin-crypto-node.obj
 0001:00057a61       __catch$?completeRingSignatures@@YAXAEBV?$FunctionCallbackInfo@VValue@v8@@@Nan@@@Z$0 0000000180058a61 f   turtlecoin-crypto-node.obj
 0001:00057a80       ?dtor$0@?0??restoreRingSignatures@@YAXAEBV?$FunctionCallbackInfo@VValue@v8@@@Nan@@@Z@4HA 0000000180058a80 f   turtlecoin-crypto-node.obj
 0001:00057a8c       ?dtor$1@?0??restoreRingSignatures@@YAXAEBV?$FunctionCallbackInfo@VValue@v8@@@Nan@@@Z@4HA 0000000180058a8c f   turtlecoin-crypto-node.obj
 0001:00057a98       ?dtor$2@?0??restoreRingSignatures@@YAXAEBV?$FunctionCallbackInfo@VValue@v8@@@Nan@@@Z@4HA 0000000180058a98 f   turtlecoin-crypto-node.obj
 0001:00057aa4       ?dtor$3@?0??restoreRingSignatures@@YAXAEBV?$FunctionCallbackInfo@VValue@v8@@@Nan@@@Z@4HA 0000000180058aa4 f   turtlecoin-crypto-node.obj
 0001:00057ab0       ?catch$6@?0??restoreRingSignatures@@YAXAEBV?$FunctionCallbackInfo@VValue@v8@@@Nan@@@Z@4HA 0000000180058ab0 f   turtlecoin-crypto-node.obj
 0001:00057abd       __catch$?restoreRingSignatures@@YAXAEBV?$FunctionCallbackInfo@VValue@v8@@@Nan@@@Z$0 0000000180058abd f   turtlecoin-crypto-node.obj
 0001:00057ae0       ?dtor$0@?0??generatePartialSigningKey@@YAXAEBV?$FunctionCallbackInfo@VValue@v8@@@Nan@@@Z@4HA 0000000180058ae0 f   turtlecoin-crypto-node.obj
 0001:00057aec       ?dtor$1@?0??generatePartialSigningKey@@YAXAEBV?$FunctionCallbackInfo@VValue@v8@@@Nan@@@Z@4HA 0000000180058aec f   turtlecoin-crypto-node.obj
 0001:00057af8       ?dtor$2@?0??generatePartialSigningKey@@YAXAEBV?$FunctionCallbackInfo@VValue@v8@@@Nan@@@Z@4HA 0000000180058af8 f   turtlecoin-crypto-node.obj
 0001:00057b04       ?dtor$4@?0??generatePartialSigningKey@@YAXAEBV?$FunctionCallbackInfo@VValue@v8@@@Nan@@@Z@4HA 0000000180058b04 f   turtlecoin-crypto-node.obj
 0001:00057b10       ?catch$9@?0??generatePartialSigningKey@@YAXAEBV?$FunctionCallbackInfo@VValue@v8@@@Nan@@@Z@4HA 0000000180058b10 f   turtlecoin-crypto-node.obj
 0001:00057b1d       __catch$?generatePartialSigningKey@@YAXAEBV?$FunctionCallbackInfo@VValue@v8@@@Nan@@@Z$0 0000000180058b1d f   turtlecoin-crypto-node.obj
 0001:00057b40       ?dtor$0@?0??restoreKeyImage@@YAXAEBV?$FunctionCallbackInfo@VValue@v8@@@Nan@@@Z@4HA 0000000180058b40 f   turtlecoin-crypto-node.obj
 0001:00057b4c       ?dtor$1@?0??restoreKeyImage@@YAXAEBV?$FunctionCallbackInfo@VValue@v8@@@Nan@@@Z@4HA 0000000180058b4c f   turtlecoin-crypto-node.obj
 0001:00057b58       ?dtor$2@?0??restoreKeyImage@@YAXAEBV?$FunctionCallbackInfo@VValue@v8@@@Nan@@@Z@4HA 0000000180058b58 f   turtlecoin-crypto-node.obj
 0001:00057b64       ?dtor$3@?0??restoreKeyImage@@YAXAEBV?$FunctionCallbackInfo@VValue@v8@@@Nan@@@Z@4HA 0000000180058b64 f   turtlecoin-crypto-node.obj
 0001:00057b70       ?dtor$5@?0??restoreKeyImage@@YAXAEBV?$FunctionCallbackInfo@VValue@v8@@@Nan@@@Z@4HA 0000000180058b70 f   turtlecoin-crypto-node.obj
 0001:00057b7c       ?catch$10@?0??restoreKeyImage@@YAXAEBV?$FunctionCallbackInfo@VValue@v8@@@Nan@@@Z@4HA 0000000180058b7c f   turtlecoin-crypto-node.obj
 0001:00057b89       __catch$?restoreKeyImage@@YAXAEBV?$FunctionCallbackInfo@VValue@v8@@@Nan@@@Z$0 0000000180058b89 f   turtlecoin-crypto-node.obj
 0001:00057ba0       ?dtor$0@?0??checkKey@@YAXAEBV?$FunctionCallbackInfo@VValue@v8@@@Nan@@@Z@4HA 0000000180058ba0 f   turtlecoin-crypto-node.obj
 0001:00057bac       ?catch$3@?0??checkKey@@YAXAEBV?$FunctionCallbackInfo@VValue@v8@@@Nan@@@Z@4HA 0000000180058bac f   turtlecoin-crypto-node.obj
 0001:00057bb9       __catch$?checkKey@@YAXAEBV?$FunctionCallbackInfo@VValue@v8@@@Nan@@@Z$0 0000000180058bb9 f   turtlecoin-crypto-node.obj
 0001:00057be0       ?dtor$0@?0??checkRingSignature@@YAXAEBV?$FunctionCallbackInfo@VValue@v8@@@Nan@@@Z@4HA 0000000180058be0 f   turtlecoin-crypto-node.obj
 0001:00057bec       ?dtor$1@?0??checkRingSignature@@YAXAEBV?$FunctionCallbackInfo@VValue@v8@@@Nan@@@Z@4HA 0000000180058bec f   turtlecoin-crypto-node.obj
 0001:00057bf8       ?dtor$2@?0??checkRingSignature@@YAXAEBV?$FunctionCallbackInfo@VValue@v8@@@Nan@@@Z@4HA 0000000180058bf8 f   turtlecoin-crypto-node.obj
 0001:00057c04       ?dtor$3@?0??checkRingSignature@@YAXAEBV?$FunctionCallbackInfo@VValue@v8@@@Nan@@@Z@4HA 0000000180058c04 f   turtlecoin-crypto-node.obj
 0001:00057c10       ?dtor$4@?0??checkRingSignature@@YAXAEBV?$FunctionCallbackInfo@VValue@v8@@@Nan@@@Z@4HA 0000000180058c10 f   turtlecoin-crypto-node.obj
 0001:00057c1c       ?dtor$5@?0??checkRingSignature@@YAXAEBV?$FunctionCallbackInfo@VValue@v8@@@Nan@@@Z@4HA 0000000180058c1c f   turtlecoin-crypto-node.obj
 0001:00057c28       ?dtor$6@?0??checkRingSignature@@YAXAEBV?$FunctionCallbackInfo@VValue@v8@@@Nan@@@Z@4HA 0000000180058c28 f   turtlecoin-crypto-node.obj
 0001:00057c34       ?catch$10@?0??checkRingSignature@@YAXAEBV?$FunctionCallbackInfo@VValue@v8@@@Nan@@@Z@4HA 0000000180058c34 f   turtlecoin-crypto-node.obj
 0001:00057c41       __catch$?checkRingSignature@@YAXAEBV?$FunctionCallbackInfo@VValue@v8@@@Nan@@@Z$0 0000000180058c41 f   turtlecoin-crypto-node.obj
 0001:00057c70       ?dtor$0@?0??checkSignature@@YAXAEBV?$FunctionCallbackInfo@VValue@v8@@@Nan@@@Z@4HA 0000000180058c70 f   turtlecoin-crypto-node.obj
 0001:00057c7c       ?dtor$1@?0??checkSignature@@YAXAEBV?$FunctionCallbackInfo@VValue@v8@@@Nan@@@Z@4HA 0000000180058c7c f   turtlecoin-crypto-node.obj
 0001:00057c88       ?dtor$2@?0??checkSignature@@YAXAEBV?$FunctionCallbackInfo@VValue@v8@@@Nan@@@Z@4HA 0000000180058c88 f   turtlecoin-crypto-node.obj
 0001:00057c94       ?dtor$3@?0??checkSignature@@YAXAEBV?$FunctionCallbackInfo@VValue@v8@@@Nan@@@Z@4HA 0000000180058c94 f   turtlecoin-crypto-node.obj
 0001:00057ca0       ?dtor$4@?0??checkSignature@@YAXAEBV?$FunctionCallbackInfo@VValue@v8@@@Nan@@@Z@4HA 0000000180058ca0 f   turtlecoin-crypto-node.obj
 0001:00057cac       ?catch$9@?0??checkSignature@@YAXAEBV?$FunctionCallbackInfo@VValue@v8@@@Nan@@@Z@4HA 0000000180058cac f   turtlecoin-crypto-node.obj
 0001:00057cb9       __catch$?checkSignature@@YAXAEBV?$FunctionCallbackInfo@VValue@v8@@@Nan@@@Z$0 0000000180058cb9 f   turtlecoin-crypto-node.obj
 0001:00057ce0       ?dtor$0@?0??derivePublicKey@@YAXAEBV?$FunctionCallbackInfo@VValue@v8@@@Nan@@@Z@4HA 0000000180058ce0 f   turtlecoin-crypto-node.obj
 0001:00057ce0       ?dtor$0@?0??deriveSecretKey@@YAXAEBV?$FunctionCallbackInfo@VValue@v8@@@Nan@@@Z@4HA 0000000180058ce0 f   turtlecoin-crypto-node.obj
 0001:00057ce0       ?dtor$0@?0??generateKeyDerivation@@YAXAEBV?$FunctionCallbackInfo@VValue@v8@@@Nan@@@Z@4HA 0000000180058ce0 f   turtlecoin-crypto-node.obj
 0001:00057ce0       ?dtor$0@?0??generateKeyImage@@YAXAEBV?$FunctionCallbackInfo@VValue@v8@@@Nan@@@Z@4HA 0000000180058ce0 f   turtlecoin-crypto-node.obj
 0001:00057ce0       ?dtor$0@?0??underivePublicKey@@YAXAEBV?$FunctionCallbackInfo@VValue@v8@@@Nan@@@Z@4HA 0000000180058ce0 f   turtlecoin-crypto-node.obj
 0001:00057cec       ?dtor$1@?0??derivePublicKey@@YAXAEBV?$FunctionCallbackInfo@VValue@v8@@@Nan@@@Z@4HA 0000000180058cec f   turtlecoin-crypto-node.obj
 0001:00057cec       ?dtor$1@?0??deriveSecretKey@@YAXAEBV?$FunctionCallbackInfo@VValue@v8@@@Nan@@@Z@4HA 0000000180058cec f   turtlecoin-crypto-node.obj
 0001:00057cec       ?dtor$1@?0??generateKeyDerivation@@YAXAEBV?$FunctionCallbackInfo@VValue@v8@@@Nan@@@Z@4HA 0000000180058cec f   turtlecoin-crypto-node.obj
 0001:00057cec       ?dtor$1@?0??generateKeyImage@@YAXAEBV?$FunctionCallbackInfo@VValue@v8@@@Nan@@@Z@4HA 0000000180058cec f   turtlecoin-crypto-node.obj
 0001:00057cec       ?dtor$1@?0??underivePublicKey@@YAXAEBV?$FunctionCallbackInfo@VValue@v8@@@Nan@@@Z@4HA 0000000180058cec f   turtlecoin-crypto-node.obj
 0001:00057cf8       ?dtor$2@?0??derivePublicKey@@YAXAEBV?$FunctionCallbackInfo@VValue@v8@@@Nan@@@Z@4HA 0000000180058cf8 f   turtlecoin-crypto-node.obj
 0001:00057cf8       ?dtor$2@?0??deriveSecretKey@@YAXAEBV?$FunctionCallbackInfo@VValue@v8@@@Nan@@@Z@4HA 0000000180058cf8 f   turtlecoin-crypto-node.obj
 0001:00057cf8       ?dtor$2@?0??generateKeyDerivation@@YAXAEBV?$FunctionCallbackInfo@VValue@v8@@@Nan@@@Z@4HA 0000000180058cf8 f   turtlecoin-crypto-node.obj
 0001:00057cf8       ?dtor$2@?0??generateKeyImage@@YAXAEBV?$FunctionCallbackInfo@VValue@v8@@@Nan@@@Z@4HA 0000000180058cf8 f   turtlecoin-crypto-node.obj
 0001:00057cf8       ?dtor$2@?0??underivePublicKey@@YAXAEBV?$FunctionCallbackInfo@VValue@v8@@@Nan@@@Z@4HA 0000000180058cf8 f   turtlecoin-crypto-node.obj
 0001:00057d04       ?dtor$3@?0??derivePublicKey@@YAXAEBV?$FunctionCallbackInfo@VValue@v8@@@Nan@@@Z@4HA 0000000180058d04 f   turtlecoin-crypto-node.obj
 0001:00057d04       ?dtor$3@?0??deriveSecretKey@@YAXAEBV?$FunctionCallbackInfo@VValue@v8@@@Nan@@@Z@4HA 0000000180058d04 f   turtlecoin-crypto-node.obj
 0001:00057d04       ?dtor$3@?0??generateKeyDerivation@@YAXAEBV?$FunctionCallbackInfo@VValue@v8@@@Nan@@@Z@4HA 0000000180058d04 f   turtlecoin-crypto-node.obj
 0001:00057d04       ?dtor$3@?0??generateKeyImage@@YAXAEBV?$FunctionCallbackInfo@VValue@v8@@@Nan@@@Z@4HA 0000000180058d04 f   turtlecoin-crypto-node.obj
 0001:00057d04       ?dtor$3@?0??underivePublicKey@@YAXAEBV?$FunctionCallbackInfo@VValue@v8@@@Nan@@@Z@4HA 0000000180058d04 f   turtlecoin-crypto-node.obj
 0001:00057d10       ?dtor$11@?0??deriveSecretKey@@YAXAEBV?$FunctionCallbackInfo@VValue@v8@@@Nan@@@Z@4HA 0000000180058d10 f   turtlecoin-crypto-node.obj
 0001:00057d10       ?dtor$11@?0??generateKeyImage@@YAXAEBV?$FunctionCallbackInfo@VValue@v8@@@Nan@@@Z@4HA 0000000180058d10 f   turtlecoin-crypto-node.obj
 0001:00057d10       ?dtor$9@?0??derivePublicKey@@YAXAEBV?$FunctionCallbackInfo@VValue@v8@@@Nan@@@Z@4HA 0000000180058d10 f   turtlecoin-crypto-node.obj
 0001:00057d10       ?dtor$9@?0??generateKeyDerivation@@YAXAEBV?$FunctionCallbackInfo@VValue@v8@@@Nan@@@Z@4HA 0000000180058d10 f   turtlecoin-crypto-node.obj
 0001:00057d10       ?dtor$9@?0??underivePublicKey@@YAXAEBV?$FunctionCallbackInfo@VValue@v8@@@Nan@@@Z@4HA 0000000180058d10 f   turtlecoin-crypto-node.obj
 0001:00057d1c       ?catch$14@?0??derivePublicKey@@YAXAEBV?$FunctionCallbackInfo@VValue@v8@@@Nan@@@Z@4HA 0000000180058d1c f   turtlecoin-crypto-node.obj
 0001:00057d1c       ?catch$14@?0??generateKeyDerivation@@YAXAEBV?$FunctionCallbackInfo@VValue@v8@@@Nan@@@Z@4HA 0000000180058d1c f   turtlecoin-crypto-node.obj
 0001:00057d1c       ?catch$14@?0??underivePublicKey@@YAXAEBV?$FunctionCallbackInfo@VValue@v8@@@Nan@@@Z@4HA 0000000180058d1c f   turtlecoin-crypto-node.obj
 0001:00057d1c       ?catch$16@?0??deriveSecretKey@@YAXAEBV?$FunctionCallbackInfo@VValue@v8@@@Nan@@@Z@4HA 0000000180058d1c f   turtlecoin-crypto-node.obj
 0001:00057d1c       ?catch$16@?0??generateKeyImage@@YAXAEBV?$FunctionCallbackInfo@VValue@v8@@@Nan@@@Z@4HA 0000000180058d1c f   turtlecoin-crypto-node.obj
 0001:00057d29       __catch$?derivePublicKey@@YAXAEBV?$FunctionCallbackInfo@VValue@v8@@@Nan@@@Z$0 0000000180058d29 f   turtlecoin-crypto-node.obj
 0001:00057d29       __catch$?deriveSecretKey@@YAXAEBV?$FunctionCallbackInfo@VValue@v8@@@Nan@@@Z$0 0000000180058d29 f   turtlecoin-crypto-node.obj
 0001:00057d29       __catch$?generateKeyDerivation@@YAXAEBV?$FunctionCallbackInfo@VValue@v8@@@Nan@@@Z$0 0000000180058d29 f   turtlecoin-crypto-node.obj
 0001:00057d29       __catch$?generateKeyImage@@YAXAEBV?$FunctionCallbackInfo@VValue@v8@@@Nan@@@Z$0 0000000180058d29 f   turtlecoin-crypto-node.obj
 0001:00057d29       __catch$?underivePublicKey@@YAXAEBV?$FunctionCallbackInfo@VValue@v8@@@Nan@@@Z$0 0000000180058d29 f   turtlecoin-crypto-node.obj
 0001:00057d40       ?dtor$0@?0??generateKeys@@YAXAEBV?$FunctionCallbackInfo@VValue@v8@@@Nan@@@Z@4HA 0000000180058d40 f   turtlecoin-crypto-node.obj
 0001:00057d4c       ?dtor$1@?0??generateKeys@@YAXAEBV?$FunctionCallbackInfo@VValue@v8@@@Nan@@@Z@4HA 0000000180058d4c f   turtlecoin-crypto-node.obj
 0001:00057d58       ?dtor$9@?0??generateKeys@@YAXAEBV?$FunctionCallbackInfo@VValue@v8@@@Nan@@@Z@4HA 0000000180058d58 f   turtlecoin-crypto-node.obj
 0001:00057d64       ?dtor$12@?0??generateKeys@@YAXAEBV?$FunctionCallbackInfo@VValue@v8@@@Nan@@@Z@4HA 0000000180058d64 f   turtlecoin-crypto-node.obj
 0001:00057d70       ?dtor$14@?0??generateKeys@@YAXAEBV?$FunctionCallbackInfo@VValue@v8@@@Nan@@@Z@4HA 0000000180058d70 f   turtlecoin-crypto-node.obj
 0001:00057d7e       ?dtor$15@?0??generateKeys@@YAXAEBV?$FunctionCallbackInfo@VValue@v8@@@Nan@@@Z@4HA 0000000180058d7e f   turtlecoin-crypto-node.obj
 0001:00057d8c       ?catch$18@?0??generateKeys@@YAXAEBV?$FunctionCallbackInfo@VValue@v8@@@Nan@@@Z@4HA 0000000180058d8c f   turtlecoin-crypto-node.obj
 0001:00057d99       __catch$?generateKeys@@YAXAEBV?$FunctionCallbackInfo@VValue@v8@@@Nan@@@Z$0 0000000180058d99 f   turtlecoin-crypto-node.obj
 0001:00057db0       ?dtor$0@?0??chukwa_slow_hash@@YAXAEBV?$FunctionCallbackInfo@VValue@v8@@@Nan@@@Z@4HA 0000000180058db0 f   turtlecoin-crypto-node.obj
 0001:00057db0       ?dtor$0@?0??cn_dark_lite_slow_hash_v0@@YAXAEBV?$FunctionCallbackInfo@VValue@v8@@@Nan@@@Z@4HA 0000000180058db0 f   turtlecoin-crypto-node.obj
 0001:00057db0       ?dtor$0@?0??cn_dark_lite_slow_hash_v1@@YAXAEBV?$FunctionCallbackInfo@VValue@v8@@@Nan@@@Z@4HA 0000000180058db0 f   turtlecoin-crypto-node.obj
 0001:00057db0       ?dtor$0@?0??cn_dark_lite_slow_hash_v2@@YAXAEBV?$FunctionCallbackInfo@VValue@v8@@@Nan@@@Z@4HA 0000000180058db0 f   turtlecoin-crypto-node.obj
 0001:00057db0       ?dtor$0@?0??cn_dark_slow_hash_v0@@YAXAEBV?$FunctionCallbackInfo@VValue@v8@@@Nan@@@Z@4HA 0000000180058db0 f   turtlecoin-crypto-node.obj
 0001:00057db0       ?dtor$0@?0??cn_dark_slow_hash_v1@@YAXAEBV?$FunctionCallbackInfo@VValue@v8@@@Nan@@@Z@4HA 0000000180058db0 f   turtlecoin-crypto-node.obj
 0001:00057db0       ?dtor$0@?0??cn_dark_slow_hash_v2@@YAXAEBV?$FunctionCallbackInfo@VValue@v8@@@Nan@@@Z@4HA 0000000180058db0 f   turtlecoin-crypto-node.obj
 0001:00057db0       ?dtor$0@?0??cn_fast_hash@@YAXAEBV?$FunctionCallbackInfo@VValue@v8@@@Nan@@@Z@4HA 0000000180058db0 f   turtlecoin-crypto-node.obj
 0001:00057db0       ?dtor$0@?0??cn_lite_slow_hash_v0@@YAXAEBV?$FunctionCallbackInfo@VValue@v8@@@Nan@@@Z@4HA 0000000180058db0 f   turtlecoin-crypto-node.obj
 0001:00057db0       ?dtor$0@?0??cn_lite_slow_hash_v1@@YAXAEBV?$FunctionCallbackInfo@VValue@v8@@@Nan@@@Z@4HA 0000000180058db0 f   turtlecoin-crypto-node.obj
 0001:00057db0       ?dtor$0@?0??cn_lite_slow_hash_v2@@YAXAEBV?$FunctionCallbackInfo@VValue@v8@@@Nan@@@Z@4HA 0000000180058db0 f   turtlecoin-crypto-node.obj
 0001:00057db0       ?dtor$0@?0??cn_slow_hash_v0@@YAXAEBV?$FunctionCallbackInfo@VValue@v8@@@Nan@@@Z@4HA 0000000180058db0 f   turtlecoin-crypto-node.obj
 0001:00057db0       ?dtor$0@?0??cn_slow_hash_v1@@YAXAEBV?$FunctionCallbackInfo@VValue@v8@@@Nan@@@Z@4HA 0000000180058db0 f   turtlecoin-crypto-node.obj
 0001:00057db0       ?dtor$0@?0??cn_slow_hash_v2@@YAXAEBV?$FunctionCallbackInfo@VValue@v8@@@Nan@@@Z@4HA 0000000180058db0 f   turtlecoin-crypto-node.obj
 0001:00057db0       ?dtor$0@?0??cn_turtle_lite_slow_hash_v0@@YAXAEBV?$FunctionCallbackInfo@VValue@v8@@@Nan@@@Z@4HA 0000000180058db0 f   turtlecoin-crypto-node.obj
 0001:00057db0       ?dtor$0@?0??cn_turtle_lite_slow_hash_v1@@YAXAEBV?$FunctionCallbackInfo@VValue@v8@@@Nan@@@Z@4HA 0000000180058db0 f   turtlecoin-crypto-node.obj
 0001:00057db0       ?dtor$0@?0??cn_turtle_lite_slow_hash_v2@@YAXAEBV?$FunctionCallbackInfo@VValue@v8@@@Nan@@@Z@4HA 0000000180058db0 f   turtlecoin-crypto-node.obj
 0001:00057db0       ?dtor$0@?0??cn_turtle_slow_hash_v0@@YAXAEBV?$FunctionCallbackInfo@VValue@v8@@@Nan@@@Z@4HA 0000000180058db0 f   turtlecoin-crypto-node.obj
 0001:00057db0       ?dtor$0@?0??cn_turtle_slow_hash_v1@@YAXAEBV?$FunctionCallbackInfo@VValue@v8@@@Nan@@@Z@4HA 0000000180058db0 f   turtlecoin-crypto-node.obj
 0001:00057db0       ?dtor$0@?0??cn_turtle_slow_hash_v2@@YAXAEBV?$FunctionCallbackInfo@VValue@v8@@@Nan@@@Z@4HA 0000000180058db0 f   turtlecoin-crypto-node.obj
 0001:00057db0       ?dtor$0@?0??generatePrivateViewKeyFromPrivateSpendKey@@YAXAEBV?$FunctionCallbackInfo@VValue@v8@@@Nan@@@Z@4HA 0000000180058db0 f   turtlecoin-crypto-node.obj
 0001:00057db0       ?dtor$0@?0??hashToEllipticCurve@@YAXAEBV?$FunctionCallbackInfo@VValue@v8@@@Nan@@@Z@4HA 0000000180058db0 f   turtlecoin-crypto-node.obj
 0001:00057db0       ?dtor$0@?0??hashToScalar@@YAXAEBV?$FunctionCallbackInfo@VValue@v8@@@Nan@@@Z@4HA 0000000180058db0 f   turtlecoin-crypto-node.obj
 0001:00057db0       ?dtor$0@?0??scReduce32@@YAXAEBV?$FunctionCallbackInfo@VValue@v8@@@Nan@@@Z@4HA 0000000180058db0 f   turtlecoin-crypto-node.obj
 0001:00057dbc       ?dtor$2@?0??chukwa_slow_hash@@YAXAEBV?$FunctionCallbackInfo@VValue@v8@@@Nan@@@Z@4HA 0000000180058dbc f   turtlecoin-crypto-node.obj
 0001:00057dbc       ?dtor$2@?0??cn_dark_lite_slow_hash_v0@@YAXAEBV?$FunctionCallbackInfo@VValue@v8@@@Nan@@@Z@4HA 0000000180058dbc f   turtlecoin-crypto-node.obj
 0001:00057dbc       ?dtor$2@?0??cn_dark_lite_slow_hash_v1@@YAXAEBV?$FunctionCallbackInfo@VValue@v8@@@Nan@@@Z@4HA 0000000180058dbc f   turtlecoin-crypto-node.obj
 0001:00057dbc       ?dtor$2@?0??cn_dark_lite_slow_hash_v2@@YAXAEBV?$FunctionCallbackInfo@VValue@v8@@@Nan@@@Z@4HA 0000000180058dbc f   turtlecoin-crypto-node.obj
 0001:00057dbc       ?dtor$2@?0??cn_dark_slow_hash_v0@@YAXAEBV?$FunctionCallbackInfo@VValue@v8@@@Nan@@@Z@4HA 0000000180058dbc f   turtlecoin-crypto-node.obj
 0001:00057dbc       ?dtor$2@?0??cn_dark_slow_hash_v1@@YAXAEBV?$FunctionCallbackInfo@VValue@v8@@@Nan@@@Z@4HA 0000000180058dbc f   turtlecoin-crypto-node.obj
 0001:00057dbc       ?dtor$2@?0??cn_dark_slow_hash_v2@@YAXAEBV?$FunctionCallbackInfo@VValue@v8@@@Nan@@@Z@4HA 0000000180058dbc f   turtlecoin-crypto-node.obj
 0001:00057dbc       ?dtor$2@?0??cn_fast_hash@@YAXAEBV?$FunctionCallbackInfo@VValue@v8@@@Nan@@@Z@4HA 0000000180058dbc f   turtlecoin-crypto-node.obj
 0001:00057dbc       ?dtor$2@?0??cn_lite_slow_hash_v0@@YAXAEBV?$FunctionCallbackInfo@VValue@v8@@@Nan@@@Z@4HA 0000000180058dbc f   turtlecoin-crypto-node.obj
 0001:00057dbc       ?dtor$2@?0??cn_lite_slow_hash_v1@@YAXAEBV?$FunctionCallbackInfo@VValue@v8@@@Nan@@@Z@4HA 0000000180058dbc f   turtlecoin-crypto-node.obj
 0001:00057dbc       ?dtor$2@?0??cn_lite_slow_hash_v2@@YAXAEBV?$FunctionCallbackInfo@VValue@v8@@@Nan@@@Z@4HA 0000000180058dbc f   turtlecoin-crypto-node.obj
 0001:00057dbc       ?dtor$2@?0??cn_slow_hash_v0@@YAXAEBV?$FunctionCallbackInfo@VValue@v8@@@Nan@@@Z@4HA 0000000180058dbc f   turtlecoin-crypto-node.obj
 0001:00057dbc       ?dtor$2@?0??cn_slow_hash_v1@@YAXAEBV?$FunctionCallbackInfo@VValue@v8@@@Nan@@@Z@4HA 0000000180058dbc f   turtlecoin-crypto-node.obj
 0001:00057dbc       ?dtor$2@?0??cn_slow_hash_v2@@YAXAEBV?$FunctionCallbackInfo@VValue@v8@@@Nan@@@Z@4HA 0000000180058dbc f   turtlecoin-crypto-node.obj
 0001:00057dbc       ?dtor$2@?0??cn_turtle_lite_slow_hash_v0@@YAXAEBV?$FunctionCallbackInfo@VValue@v8@@@Nan@@@Z@4HA 0000000180058dbc f   turtlecoin-crypto-node.obj
 0001:00057dbc       ?dtor$2@?0??cn_turtle_lite_slow_hash_v1@@YAXAEBV?$FunctionCallbackInfo@VValue@v8@@@Nan@@@Z@4HA 0000000180058dbc f   turtlecoin-crypto-node.obj
 0001:00057dbc       ?dtor$2@?0??cn_turtle_lite_slow_hash_v2@@YAXAEBV?$FunctionCallbackInfo@VValue@v8@@@Nan@@@Z@4HA 0000000180058dbc f   turtlecoin-crypto-node.obj
 0001:00057dbc       ?dtor$2@?0??cn_turtle_slow_hash_v0@@YAXAEBV?$FunctionCallbackInfo@VValue@v8@@@Nan@@@Z@4HA 0000000180058dbc f   turtlecoin-crypto-node.obj
 0001:00057dbc       ?dtor$2@?0??cn_turtle_slow_hash_v1@@YAXAEBV?$FunctionCallbackInfo@VValue@v8@@@Nan@@@Z@4HA 0000000180058dbc f   turtlecoin-crypto-node.obj
 0001:00057dbc       ?dtor$2@?0??cn_turtle_slow_hash_v2@@YAXAEBV?$FunctionCallbackInfo@VValue@v8@@@Nan@@@Z@4HA 0000000180058dbc f   turtlecoin-crypto-node.obj
 0001:00057dbc       ?dtor$2@?0??generatePrivateViewKeyFromPrivateSpendKey@@YAXAEBV?$FunctionCallbackInfo@VValue@v8@@@Nan@@@Z@4HA 0000000180058dbc f   turtlecoin-crypto-node.obj
 0001:00057dbc       ?dtor$2@?0??hashToEllipticCurve@@YAXAEBV?$FunctionCallbackInfo@VValue@v8@@@Nan@@@Z@4HA 0000000180058dbc f   turtlecoin-crypto-node.obj
 0001:00057dbc       ?dtor$2@?0??hashToScalar@@YAXAEBV?$FunctionCallbackInfo@VValue@v8@@@Nan@@@Z@4HA 0000000180058dbc f   turtlecoin-crypto-node.obj
 0001:00057dbc       ?dtor$2@?0??scReduce32@@YAXAEBV?$FunctionCallbackInfo@VValue@v8@@@Nan@@@Z@4HA 0000000180058dbc f   turtlecoin-crypto-node.obj
 0001:00057dc8       ?dtor$4@?0??chukwa_slow_hash@@YAXAEBV?$FunctionCallbackInfo@VValue@v8@@@Nan@@@Z@4HA 0000000180058dc8 f   turtlecoin-crypto-node.obj
 0001:00057dc8       ?dtor$4@?0??cn_dark_lite_slow_hash_v0@@YAXAEBV?$FunctionCallbackInfo@VValue@v8@@@Nan@@@Z@4HA 0000000180058dc8 f   turtlecoin-crypto-node.obj
 0001:00057dc8       ?dtor$4@?0??cn_dark_lite_slow_hash_v1@@YAXAEBV?$FunctionCallbackInfo@VValue@v8@@@Nan@@@Z@4HA 0000000180058dc8 f   turtlecoin-crypto-node.obj
 0001:00057dc8       ?dtor$4@?0??cn_dark_lite_slow_hash_v2@@YAXAEBV?$FunctionCallbackInfo@VValue@v8@@@Nan@@@Z@4HA 0000000180058dc8 f   turtlecoin-crypto-node.obj
 0001:00057dc8       ?dtor$4@?0??cn_dark_slow_hash_v0@@YAXAEBV?$FunctionCallbackInfo@VValue@v8@@@Nan@@@Z@4HA 0000000180058dc8 f   turtlecoin-crypto-node.obj
 0001:00057dc8       ?dtor$4@?0??cn_dark_slow_hash_v1@@YAXAEBV?$FunctionCallbackInfo@VValue@v8@@@Nan@@@Z@4HA 0000000180058dc8 f   turtlecoin-crypto-node.obj
 0001:00057dc8       ?dtor$4@?0??cn_dark_slow_hash_v2@@YAXAEBV?$FunctionCallbackInfo@VValue@v8@@@Nan@@@Z@4HA 0000000180058dc8 f   turtlecoin-crypto-node.obj
 0001:00057dc8       ?dtor$4@?0??cn_fast_hash@@YAXAEBV?$FunctionCallbackInfo@VValue@v8@@@Nan@@@Z@4HA 0000000180058dc8 f   turtlecoin-crypto-node.obj
 0001:00057dc8       ?dtor$4@?0??cn_lite_slow_hash_v0@@YAXAEBV?$FunctionCallbackInfo@VValue@v8@@@Nan@@@Z@4HA 0000000180058dc8 f   turtlecoin-crypto-node.obj
 0001:00057dc8       ?dtor$4@?0??cn_lite_slow_hash_v1@@YAXAEBV?$FunctionCallbackInfo@VValue@v8@@@Nan@@@Z@4HA 0000000180058dc8 f   turtlecoin-crypto-node.obj
 0001:00057dc8       ?dtor$4@?0??cn_lite_slow_hash_v2@@YAXAEBV?$FunctionCallbackInfo@VValue@v8@@@Nan@@@Z@4HA 0000000180058dc8 f   turtlecoin-crypto-node.obj
 0001:00057dc8       ?dtor$4@?0??cn_slow_hash_v0@@YAXAEBV?$FunctionCallbackInfo@VValue@v8@@@Nan@@@Z@4HA 0000000180058dc8 f   turtlecoin-crypto-node.obj
 0001:00057dc8       ?dtor$4@?0??cn_slow_hash_v1@@YAXAEBV?$FunctionCallbackInfo@VValue@v8@@@Nan@@@Z@4HA 0000000180058dc8 f   turtlecoin-crypto-node.obj
 0001:00057dc8       ?dtor$4@?0??cn_slow_hash_v2@@YAXAEBV?$FunctionCallbackInfo@VValue@v8@@@Nan@@@Z@4HA 0000000180058dc8 f   turtlecoin-crypto-node.obj
 0001:00057dc8       ?dtor$4@?0??cn_turtle_lite_slow_hash_v0@@YAXAEBV?$FunctionCallbackInfo@VValue@v8@@@Nan@@@Z@4HA 0000000180058dc8 f   turtlecoin-crypto-node.obj
 0001:00057dc8       ?dtor$4@?0??cn_turtle_lite_slow_hash_v1@@YAXAEBV?$FunctionCallbackInfo@VValue@v8@@@Nan@@@Z@4HA 0000000180058dc8 f   turtlecoin-crypto-node.obj
 0001:00057dc8       ?dtor$4@?0??cn_turtle_lite_slow_hash_v2@@YAXAEBV?$FunctionCallbackInfo@VValue@v8@@@Nan@@@Z@4HA 0000000180058dc8 f   turtlecoin-crypto-node.obj
 0001:00057dc8       ?dtor$4@?0??cn_turtle_slow_hash_v0@@YAXAEBV?$FunctionCallbackInfo@VValue@v8@@@Nan@@@Z@4HA 0000000180058dc8 f   turtlecoin-crypto-node.obj
 0001:00057dc8       ?dtor$4@?0??cn_turtle_slow_hash_v1@@YAXAEBV?$FunctionCallbackInfo@VValue@v8@@@Nan@@@Z@4HA 0000000180058dc8 f   turtlecoin-crypto-node.obj
 0001:00057dc8       ?dtor$4@?0??cn_turtle_slow_hash_v2@@YAXAEBV?$FunctionCallbackInfo@VValue@v8@@@Nan@@@Z@4HA 0000000180058dc8 f   turtlecoin-crypto-node.obj
 0001:00057dc8       ?dtor$4@?0??generatePrivateViewKeyFromPrivateSpendKey@@YAXAEBV?$FunctionCallbackInfo@VValue@v8@@@Nan@@@Z@4HA 0000000180058dc8 f   turtlecoin-crypto-node.obj
 0001:00057dc8       ?dtor$4@?0??hashToEllipticCurve@@YAXAEBV?$FunctionCallbackInfo@VValue@v8@@@Nan@@@Z@4HA 0000000180058dc8 f   turtlecoin-crypto-node.obj
 0001:00057dc8       ?dtor$4@?0??hashToScalar@@YAXAEBV?$FunctionCallbackInfo@VValue@v8@@@Nan@@@Z@4HA 0000000180058dc8 f   turtlecoin-crypto-node.obj
 0001:00057dc8       ?dtor$4@?0??scReduce32@@YAXAEBV?$FunctionCallbackInfo@VValue@v8@@@Nan@@@Z@4HA 0000000180058dc8 f   turtlecoin-crypto-node.obj
 0001:00057dd4       ?catch$8@?0??chukwa_slow_hash@@YAXAEBV?$FunctionCallbackInfo@VValue@v8@@@Nan@@@Z@4HA 0000000180058dd4 f   turtlecoin-crypto-node.obj
 0001:00057dd4       ?catch$8@?0??cn_dark_lite_slow_hash_v0@@YAXAEBV?$FunctionCallbackInfo@VValue@v8@@@Nan@@@Z@4HA 0000000180058dd4 f   turtlecoin-crypto-node.obj
 0001:00057dd4       ?catch$8@?0??cn_dark_lite_slow_hash_v1@@YAXAEBV?$FunctionCallbackInfo@VValue@v8@@@Nan@@@Z@4HA 0000000180058dd4 f   turtlecoin-crypto-node.obj
 0001:00057dd4       ?catch$8@?0??cn_dark_lite_slow_hash_v2@@YAXAEBV?$FunctionCallbackInfo@VValue@v8@@@Nan@@@Z@4HA 0000000180058dd4 f   turtlecoin-crypto-node.obj
 0001:00057dd4       ?catch$8@?0??cn_dark_slow_hash_v0@@YAXAEBV?$FunctionCallbackInfo@VValue@v8@@@Nan@@@Z@4HA 0000000180058dd4 f   turtlecoin-crypto-node.obj
 0001:00057dd4       ?catch$8@?0??cn_dark_slow_hash_v1@@YAXAEBV?$FunctionCallbackInfo@VValue@v8@@@Nan@@@Z@4HA 0000000180058dd4 f   turtlecoin-crypto-node.obj
 0001:00057dd4       ?catch$8@?0??cn_dark_slow_hash_v2@@YAXAEBV?$FunctionCallbackInfo@VValue@v8@@@Nan@@@Z@4HA 0000000180058dd4 f   turtlecoin-crypto-node.obj
 0001:00057dd4       ?catch$8@?0??cn_fast_hash@@YAXAEBV?$FunctionCallbackInfo@VValue@v8@@@Nan@@@Z@4HA 0000000180058dd4 f   turtlecoin-crypto-node.obj
 0001:00057dd4       ?catch$8@?0??cn_lite_slow_hash_v0@@YAXAEBV?$FunctionCallbackInfo@VValue@v8@@@Nan@@@Z@4HA 0000000180058dd4 f   turtlecoin-crypto-node.obj
 0001:00057dd4       ?catch$8@?0??cn_lite_slow_hash_v1@@YAXAEBV?$FunctionCallbackInfo@VValue@v8@@@Nan@@@Z@4HA 0000000180058dd4 f   turtlecoin-crypto-node.obj
 0001:00057dd4       ?catch$8@?0??cn_lite_slow_hash_v2@@YAXAEBV?$FunctionCallbackInfo@VValue@v8@@@Nan@@@Z@4HA 0000000180058dd4 f   turtlecoin-crypto-node.obj
 0001:00057dd4       ?catch$8@?0??cn_slow_hash_v0@@YAXAEBV?$FunctionCallbackInfo@VValue@v8@@@Nan@@@Z@4HA 0000000180058dd4 f   turtlecoin-crypto-node.obj
 0001:00057dd4       ?catch$8@?0??cn_slow_hash_v1@@YAXAEBV?$FunctionCallbackInfo@VValue@v8@@@Nan@@@Z@4HA 0000000180058dd4 f   turtlecoin-crypto-node.obj
 0001:00057dd4       ?catch$8@?0??cn_slow_hash_v2@@YAXAEBV?$FunctionCallbackInfo@VValue@v8@@@Nan@@@Z@4HA 0000000180058dd4 f   turtlecoin-crypto-node.obj
 0001:00057dd4       ?catch$8@?0??cn_turtle_lite_slow_hash_v0@@YAXAEBV?$FunctionCallbackInfo@VValue@v8@@@Nan@@@Z@4HA 0000000180058dd4 f   turtlecoin-crypto-node.obj
 0001:00057dd4       ?catch$8@?0??cn_turtle_lite_slow_hash_v1@@YAXAEBV?$FunctionCallbackInfo@VValue@v8@@@Nan@@@Z@4HA 0000000180058dd4 f   turtlecoin-crypto-node.obj
 0001:00057dd4       ?catch$8@?0??cn_turtle_lite_slow_hash_v2@@YAXAEBV?$FunctionCallbackInfo@VValue@v8@@@Nan@@@Z@4HA 0000000180058dd4 f   turtlecoin-crypto-node.obj
 0001:00057dd4       ?catch$8@?0??cn_turtle_slow_hash_v0@@YAXAEBV?$FunctionCallbackInfo@VValue@v8@@@Nan@@@Z@4HA 0000000180058dd4 f   turtlecoin-crypto-node.obj
 0001:00057dd4       ?catch$8@?0??cn_turtle_slow_hash_v1@@YAXAEBV?$FunctionCallbackInfo@VValue@v8@@@Nan@@@Z@4HA 0000000180058dd4 f   turtlecoin-crypto-node.obj
 0001:00057dd4       ?catch$8@?0??cn_turtle_slow_hash_v2@@YAXAEBV?$FunctionCallbackInfo@VValue@v8@@@Nan@@@Z@4HA 0000000180058dd4 f   turtlecoin-crypto-node.obj
 0001:00057dd4       ?catch$8@?0??generatePrivateViewKeyFromPrivateSpendKey@@YAXAEBV?$FunctionCallbackInfo@VValue@v8@@@Nan@@@Z@4HA 0000000180058dd4 f   turtlecoin-crypto-node.obj
 0001:00057dd4       ?catch$8@?0??hashToEllipticCurve@@YAXAEBV?$FunctionCallbackInfo@VValue@v8@@@Nan@@@Z@4HA 0000000180058dd4 f   turtlecoin-crypto-node.obj
 0001:00057dd4       ?catch$8@?0??hashToScalar@@YAXAEBV?$FunctionCallbackInfo@VValue@v8@@@Nan@@@Z@4HA 0000000180058dd4 f   turtlecoin-crypto-node.obj
 0001:00057dd4       ?catch$8@?0??scReduce32@@YAXAEBV?$FunctionCallbackInfo@VValue@v8@@@Nan@@@Z@4HA 0000000180058dd4 f   turtlecoin-crypto-node.obj
 0001:00057de1       __catch$?chukwa_slow_hash@@YAXAEBV?$FunctionCallbackInfo@VValue@v8@@@Nan@@@Z$0 0000000180058de1 f   turtlecoin-crypto-node.obj
 0001:00057de1       __catch$?cn_dark_lite_slow_hash_v0@@YAXAEBV?$FunctionCallbackInfo@VValue@v8@@@Nan@@@Z$0 0000000180058de1 f   turtlecoin-crypto-node.obj
 0001:00057de1       __catch$?cn_dark_lite_slow_hash_v1@@YAXAEBV?$FunctionCallbackInfo@VValue@v8@@@Nan@@@Z$0 0000000180058de1 f   turtlecoin-crypto-node.obj
 0001:00057de1       __catch$?cn_dark_lite_slow_hash_v2@@YAXAEBV?$FunctionCallbackInfo@VValue@v8@@@Nan@@@Z$0 0000000180058de1 f   turtlecoin-crypto-node.obj
 0001:00057de1       __catch$?cn_dark_slow_hash_v0@@YAXAEBV?$FunctionCallbackInfo@VValue@v8@@@Nan@@@Z$0 0000000180058de1 f   turtlecoin-crypto-node.obj
 0001:00057de1       __catch$?cn_dark_slow_hash_v1@@YAXAEBV?$FunctionCallbackInfo@VValue@v8@@@Nan@@@Z$0 0000000180058de1 f   turtlecoin-crypto-node.obj
 0001:00057de1       __catch$?cn_dark_slow_hash_v2@@YAXAEBV?$FunctionCallbackInfo@VValue@v8@@@Nan@@@Z$0 0000000180058de1 f   turtlecoin-crypto-node.obj
 0001:00057de1       __catch$?cn_fast_hash@@YAXAEBV?$FunctionCallbackInfo@VValue@v8@@@Nan@@@Z$0 0000000180058de1 f   turtlecoin-crypto-node.obj
 0001:00057de1       __catch$?cn_lite_slow_hash_v0@@YAXAEBV?$FunctionCallbackInfo@VValue@v8@@@Nan@@@Z$0 0000000180058de1 f   turtlecoin-crypto-node.obj
 0001:00057de1       __catch$?cn_lite_slow_hash_v1@@YAXAEBV?$FunctionCallbackInfo@VValue@v8@@@Nan@@@Z$0 0000000180058de1 f   turtlecoin-crypto-node.obj
 0001:00057de1       __catch$?cn_lite_slow_hash_v2@@YAXAEBV?$FunctionCallbackInfo@VValue@v8@@@Nan@@@Z$0 0000000180058de1 f   turtlecoin-crypto-node.obj
 0001:00057de1       __catch$?cn_slow_hash_v0@@YAXAEBV?$FunctionCallbackInfo@VValue@v8@@@Nan@@@Z$0 0000000180058de1 f   turtlecoin-crypto-node.obj
 0001:00057de1       __catch$?cn_slow_hash_v1@@YAXAEBV?$FunctionCallbackInfo@VValue@v8@@@Nan@@@Z$0 0000000180058de1 f   turtlecoin-crypto-node.obj
 0001:00057de1       __catch$?cn_slow_hash_v2@@YAXAEBV?$FunctionCallbackInfo@VValue@v8@@@Nan@@@Z$0 0000000180058de1 f   turtlecoin-crypto-node.obj
 0001:00057de1       __catch$?cn_turtle_lite_slow_hash_v0@@YAXAEBV?$FunctionCallbackInfo@VValue@v8@@@Nan@@@Z$0 0000000180058de1 f   turtlecoin-crypto-node.obj
 0001:00057de1       __catch$?cn_turtle_lite_slow_hash_v1@@YAXAEBV?$FunctionCallbackInfo@VValue@v8@@@Nan@@@Z$0 0000000180058de1 f   turtlecoin-crypto-node.obj
 0001:00057de1       __catch$?cn_turtle_lite_slow_hash_v2@@YAXAEBV?$FunctionCallbackInfo@VValue@v8@@@Nan@@@Z$0 0000000180058de1 f   turtlecoin-crypto-node.obj
 0001:00057de1       __catch$?cn_turtle_slow_hash_v0@@YAXAEBV?$FunctionCallbackInfo@VValue@v8@@@Nan@@@Z$0 0000000180058de1 f   turtlecoin-crypto-node.obj
 0001:00057de1       __catch$?cn_turtle_slow_hash_v1@@YAXAEBV?$FunctionCallbackInfo@VValue@v8@@@Nan@@@Z$0 0000000180058de1 f   turtlecoin-crypto-node.obj
 0001:00057de1       __catch$?cn_turtle_slow_hash_v2@@YAXAEBV?$FunctionCallbackInfo@VValue@v8@@@Nan@@@Z$0 0000000180058de1 f   turtlecoin-crypto-node.obj
 0001:00057de1       __catch$?generatePrivateViewKeyFromPrivateSpendKey@@YAXAEBV?$FunctionCallbackInfo@VValue@v8@@@Nan@@@Z$0 0000000180058de1 f   turtlecoin-crypto-node.obj
 0001:00057de1       __catch$?hashToEllipticCurve@@YAXAEBV?$FunctionCallbackInfo@VValue@v8@@@Nan@@@Z$0 0000000180058de1 f   turtlecoin-crypto-node.obj
 0001:00057de1       __catch$?hashToScalar@@YAXAEBV?$FunctionCallbackInfo@VValue@v8@@@Nan@@@Z$0 0000000180058de1 f   turtlecoin-crypto-node.obj
 0001:00057de1       __catch$?scReduce32@@YAXAEBV?$FunctionCallbackInfo@VValue@v8@@@Nan@@@Z$0 0000000180058de1 f   turtlecoin-crypto-node.obj
 0001:00057e00       ?dtor$0@?0??generateDeterministicSubwalletKeys@@YAXAEBV?$FunctionCallbackInfo@VValue@v8@@@Nan@@@Z@4HA 0000000180058e00 f   turtlecoin-crypto-node.obj
 0001:00057e0c       ?dtor$1@?0??generateDeterministicSubwalletKeys@@YAXAEBV?$FunctionCallbackInfo@VValue@v8@@@Nan@@@Z@4HA 0000000180058e0c f   turtlecoin-crypto-node.obj
 0001:00057e18       ?dtor$2@?0??generateDeterministicSubwalletKeys@@YAXAEBV?$FunctionCallbackInfo@VValue@v8@@@Nan@@@Z@4HA 0000000180058e18 f   turtlecoin-crypto-node.obj
 0001:00057e24       ?dtor$11@?0??generateDeterministicSubwalletKeys@@YAXAEBV?$FunctionCallbackInfo@VValue@v8@@@Nan@@@Z@4HA 0000000180058e24 f   turtlecoin-crypto-node.obj
 0001:00057e30       ?dtor$14@?0??generateDeterministicSubwalletKeys@@YAXAEBV?$FunctionCallbackInfo@VValue@v8@@@Nan@@@Z@4HA 0000000180058e30 f   turtlecoin-crypto-node.obj
 0001:00057e3c       ?dtor$16@?0??generateDeterministicSubwalletKeys@@YAXAEBV?$FunctionCallbackInfo@VValue@v8@@@Nan@@@Z@4HA 0000000180058e3c f   turtlecoin-crypto-node.obj
 0001:00057e4a       ?dtor$17@?0??generateDeterministicSubwalletKeys@@YAXAEBV?$FunctionCallbackInfo@VValue@v8@@@Nan@@@Z@4HA 0000000180058e4a f   turtlecoin-crypto-node.obj
 0001:00057e58       ?catch$21@?0??generateDeterministicSubwalletKeys@@YAXAEBV?$FunctionCallbackInfo@VValue@v8@@@Nan@@@Z@4HA 0000000180058e58 f   turtlecoin-crypto-node.obj
 0001:00057e65       __catch$?generateDeterministicSubwalletKeys@@YAXAEBV?$FunctionCallbackInfo@VValue@v8@@@Nan@@@Z$0 0000000180058e65 f   turtlecoin-crypto-node.obj
 0001:00057e80       ?dtor$0@?0??generateViewKeysFromPrivateSpendKey@@YAXAEBV?$FunctionCallbackInfo@VValue@v8@@@Nan@@@Z@4HA 0000000180058e80 f   turtlecoin-crypto-node.obj
 0001:00057e8c       ?dtor$1@?0??generateViewKeysFromPrivateSpendKey@@YAXAEBV?$FunctionCallbackInfo@VValue@v8@@@Nan@@@Z@4HA 0000000180058e8c f   turtlecoin-crypto-node.obj
 0001:00057e98       ?dtor$2@?0??generateViewKeysFromPrivateSpendKey@@YAXAEBV?$FunctionCallbackInfo@VValue@v8@@@Nan@@@Z@4HA 0000000180058e98 f   turtlecoin-crypto-node.obj
 0001:00057ea4       ?dtor$11@?0??generateViewKeysFromPrivateSpendKey@@YAXAEBV?$FunctionCallbackInfo@VValue@v8@@@Nan@@@Z@4HA 0000000180058ea4 f   turtlecoin-crypto-node.obj
 0001:00057eb0       ?dtor$14@?0??generateViewKeysFromPrivateSpendKey@@YAXAEBV?$FunctionCallbackInfo@VValue@v8@@@Nan@@@Z@4HA 0000000180058eb0 f   turtlecoin-crypto-node.obj
 0001:00057ebc       ?dtor$16@?0??generateViewKeysFromPrivateSpendKey@@YAXAEBV?$FunctionCallbackInfo@VValue@v8@@@Nan@@@Z@4HA 0000000180058ebc f   turtlecoin-crypto-node.obj
 0001:00057eca       ?dtor$17@?0??generateViewKeysFromPrivateSpendKey@@YAXAEBV?$FunctionCallbackInfo@VValue@v8@@@Nan@@@Z@4HA 0000000180058eca f   turtlecoin-crypto-node.obj
 0001:00057ed8       ?catch$21@?0??generateViewKeysFromPrivateSpendKey@@YAXAEBV?$FunctionCallbackInfo@VValue@v8@@@Nan@@@Z@4HA 0000000180058ed8 f   turtlecoin-crypto-node.obj
 0001:00057ee5       __catch$?generateViewKeysFromPrivateSpendKey@@YAXAEBV?$FunctionCallbackInfo@VValue@v8@@@Nan@@@Z$0 0000000180058ee5 f   turtlecoin-crypto-node.obj
 0001:00057f00       ?dtor$0@?0??generateRingSignatures@@YAXAEBV?$FunctionCallbackInfo@VValue@v8@@@Nan@@@Z@4HA 0000000180058f00 f   turtlecoin-crypto-node.obj
 0001:00057f0c       ?dtor$1@?0??generateRingSignatures@@YAXAEBV?$FunctionCallbackInfo@VValue@v8@@@Nan@@@Z@4HA 0000000180058f0c f   turtlecoin-crypto-node.obj
 0001:00057f18       ?dtor$2@?0??generateRingSignatures@@YAXAEBV?$FunctionCallbackInfo@VValue@v8@@@Nan@@@Z@4HA 0000000180058f18 f   turtlecoin-crypto-node.obj
 0001:00057f24       ?dtor$3@?0??generateRingSignatures@@YAXAEBV?$FunctionCallbackInfo@VValue@v8@@@Nan@@@Z@4HA 0000000180058f24 f   turtlecoin-crypto-node.obj
 0001:00057f30       ?dtor$4@?0??generateRingSignatures@@YAXAEBV?$FunctionCallbackInfo@VValue@v8@@@Nan@@@Z@4HA 0000000180058f30 f   turtlecoin-crypto-node.obj
 0001:00057f3c       ?dtor$5@?0??generateRingSignatures@@YAXAEBV?$FunctionCallbackInfo@VValue@v8@@@Nan@@@Z@4HA 0000000180058f3c f   turtlecoin-crypto-node.obj
 0001:00057f48       ?dtor$6@?0??generateRingSignatures@@YAXAEBV?$FunctionCallbackInfo@VValue@v8@@@Nan@@@Z@4HA 0000000180058f48 f   turtlecoin-crypto-node.obj
 0001:00057f54       ?dtor$7@?0??generateRingSignatures@@YAXAEBV?$FunctionCallbackInfo@VValue@v8@@@Nan@@@Z@4HA 0000000180058f54 f   turtlecoin-crypto-node.obj
 0001:00057f60       ?catch$12@?0??generateRingSignatures@@YAXAEBV?$FunctionCallbackInfo@VValue@v8@@@Nan@@@Z@4HA 0000000180058f60 f   turtlecoin-crypto-node.obj
 0001:00057f6d       __catch$?generateRingSignatures@@YAXAEBV?$FunctionCallbackInfo@VValue@v8@@@Nan@@@Z$0 0000000180058f6d f   turtlecoin-crypto-node.obj
 0001:00057f90       ?dtor$0@?0??generateSignature@@YAXAEBV?$FunctionCallbackInfo@VValue@v8@@@Nan@@@Z@4HA 0000000180058f90 f   turtlecoin-crypto-node.obj
 0001:00057f9c       ?dtor$1@?0??generateSignature@@YAXAEBV?$FunctionCallbackInfo@VValue@v8@@@Nan@@@Z@4HA 0000000180058f9c f   turtlecoin-crypto-node.obj
 0001:00057fa8       ?dtor$2@?0??generateSignature@@YAXAEBV?$FunctionCallbackInfo@VValue@v8@@@Nan@@@Z@4HA 0000000180058fa8 f   turtlecoin-crypto-node.obj
 0001:00057fb4       ?dtor$3@?0??generateSignature@@YAXAEBV?$FunctionCallbackInfo@VValue@v8@@@Nan@@@Z@4HA 0000000180058fb4 f   turtlecoin-crypto-node.obj
 0001:00057fc0       ?dtor$4@?0??generateSignature@@YAXAEBV?$FunctionCallbackInfo@VValue@v8@@@Nan@@@Z@4HA 0000000180058fc0 f   turtlecoin-crypto-node.obj
 0001:00057fcc       ?dtor$5@?0??generateSignature@@YAXAEBV?$FunctionCallbackInfo@VValue@v8@@@Nan@@@Z@4HA 0000000180058fcc f   turtlecoin-crypto-node.obj
 0001:00057fd8       ?dtor$13@?0??generateSignature@@YAXAEBV?$FunctionCallbackInfo@VValue@v8@@@Nan@@@Z@4HA 0000000180058fd8 f   turtlecoin-crypto-node.obj
 0001:00057fe4       ?catch$19@?0??generateSignature@@YAXAEBV?$FunctionCallbackInfo@VValue@v8@@@Nan@@@Z@4HA 0000000180058fe4 f   turtlecoin-crypto-node.obj
 0001:00057ff1       __catch$?generateSignature@@YAXAEBV?$FunctionCallbackInfo@VValue@v8@@@Nan@@@Z$0 0000000180058ff1 f   turtlecoin-crypto-node.obj
 0001:00058010       ?dtor$0@?0??scalarmultKey@@YAXAEBV?$FunctionCallbackInfo@VValue@v8@@@Nan@@@Z@4HA 0000000180059010 f   turtlecoin-crypto-node.obj
 0001:0005801c       ?dtor$1@?0??scalarmultKey@@YAXAEBV?$FunctionCallbackInfo@VValue@v8@@@Nan@@@Z@4HA 000000018005901c f   turtlecoin-crypto-node.obj
 0001:00058028       ?dtor$2@?0??scalarmultKey@@YAXAEBV?$FunctionCallbackInfo@VValue@v8@@@Nan@@@Z@4HA 0000000180059028 f   turtlecoin-crypto-node.obj
 0001:00058034       ?dtor$4@?0??scalarmultKey@@YAXAEBV?$FunctionCallbackInfo@VValue@v8@@@Nan@@@Z@4HA 0000000180059034 f   turtlecoin-crypto-node.obj
 0001:00058040       ?dtor$6@?0??scalarmultKey@@YAXAEBV?$FunctionCallbackInfo@VValue@v8@@@Nan@@@Z@4HA 0000000180059040 f   turtlecoin-crypto-node.obj
 0001:0005804c       ?catch$11@?0??scalarmultKey@@YAXAEBV?$FunctionCallbackInfo@VValue@v8@@@Nan@@@Z@4HA 000000018005904c f   turtlecoin-crypto-node.obj
 0001:00058059       __catch$?scalarmultKey@@YAXAEBV?$FunctionCallbackInfo@VValue@v8@@@Nan@@@Z$0 0000000180059059 f   turtlecoin-crypto-node.obj
 0001:00058070       ?dtor$0@?0??secretKeyToPublicKey@@YAXAEBV?$FunctionCallbackInfo@VValue@v8@@@Nan@@@Z@4HA 0000000180059070 f   turtlecoin-crypto-node.obj
 0001:0005807c       ?dtor$1@?0??secretKeyToPublicKey@@YAXAEBV?$FunctionCallbackInfo@VValue@v8@@@Nan@@@Z@4HA 000000018005907c f   turtlecoin-crypto-node.obj
 0001:00058088       ?dtor$7@?0??secretKeyToPublicKey@@YAXAEBV?$FunctionCallbackInfo@VValue@v8@@@Nan@@@Z@4HA 0000000180059088 f   turtlecoin-crypto-node.obj
 0001:00058094       ?catch$11@?0??secretKeyToPublicKey@@YAXAEBV?$FunctionCallbackInfo@VValue@v8@@@Nan@@@Z@4HA 0000000180059094 f   turtlecoin-crypto-node.obj
 0001:000580a1       __catch$?secretKeyToPublicKey@@YAXAEBV?$FunctionCallbackInfo@VValue@v8@@@Nan@@@Z$0 00000001800590a1 f   turtlecoin-crypto-node.obj
 0001:000580c0       ?dtor$0@?0??tree_depth@@YAXAEBV?$FunctionCallbackInfo@VValue@v8@@@Nan@@@Z@4HA 00000001800590c0 f   turtlecoin-crypto-node.obj
 0001:000580ce       ?catch$2@?0??tree_depth@@YAXAEBV?$FunctionCallbackInfo@VValue@v8@@@Nan@@@Z@4HA 00000001800590ce f   turtlecoin-crypto-node.obj
 0001:000580db       __catch$?tree_depth@@YAXAEBV?$FunctionCallbackInfo@VValue@v8@@@Nan@@@Z$0 00000001800590db f   turtlecoin-crypto-node.obj
 0001:00058100       ?dtor$0@?0??tree_hash@@YAXAEBV?$FunctionCallbackInfo@VValue@v8@@@Nan@@@Z@4HA 0000000180059100 f   turtlecoin-crypto-node.obj
 0001:0005810c       ?dtor$2@?0??tree_hash@@YAXAEBV?$FunctionCallbackInfo@VValue@v8@@@Nan@@@Z@4HA 000000018005910c f   turtlecoin-crypto-node.obj
 0001:00058118       ?dtor$4@?0??tree_hash@@YAXAEBV?$FunctionCallbackInfo@VValue@v8@@@Nan@@@Z@4HA 0000000180059118 f   turtlecoin-crypto-node.obj
 0001:00058124       ?catch$7@?0??tree_hash@@YAXAEBV?$FunctionCallbackInfo@VValue@v8@@@Nan@@@Z@4HA 0000000180059124 f   turtlecoin-crypto-node.obj
 0001:00058131       __catch$?tree_hash@@YAXAEBV?$FunctionCallbackInfo@VValue@v8@@@Nan@@@Z$0 0000000180059131 f   turtlecoin-crypto-node.obj
 0001:00058150       ?dtor$0@?0??tree_branch@@YAXAEBV?$FunctionCallbackInfo@VValue@v8@@@Nan@@@Z@4HA 0000000180059150 f   turtlecoin-crypto-node.obj
 0001:0005815c       ?dtor$2@?0??tree_branch@@YAXAEBV?$FunctionCallbackInfo@VValue@v8@@@Nan@@@Z@4HA 000000018005915c f   turtlecoin-crypto-node.obj
 0001:00058168       ?dtor$4@?0??tree_branch@@YAXAEBV?$FunctionCallbackInfo@VValue@v8@@@Nan@@@Z@4HA 0000000180059168 f   turtlecoin-crypto-node.obj
 0001:00058174       ?dtor$6@?0??tree_branch@@YAXAEBV?$FunctionCallbackInfo@VValue@v8@@@Nan@@@Z@4HA 0000000180059174 f   turtlecoin-crypto-node.obj
 0001:00058182       ?catch$7@?0??tree_branch@@YAXAEBV?$FunctionCallbackInfo@VValue@v8@@@Nan@@@Z@4HA 0000000180059182 f   turtlecoin-crypto-node.obj
 0001:0005818f       __catch$?tree_branch@@YAXAEBV?$FunctionCallbackInfo@VValue@v8@@@Nan@@@Z$0 000000018005918f f   turtlecoin-crypto-node.obj
 0001:000581b0       ?dtor$0@?0??tree_hash_from_branch@@YAXAEBV?$FunctionCallbackInfo@VValue@v8@@@Nan@@@Z@4HA 00000001800591b0 f   turtlecoin-crypto-node.obj
 0001:000581bc       ?dtor$1@?0??tree_hash_from_branch@@YAXAEBV?$FunctionCallbackInfo@VValue@v8@@@Nan@@@Z@4HA 00000001800591bc f   turtlecoin-crypto-node.obj
 0001:000581c8       ?dtor$2@?0??tree_hash_from_branch@@YAXAEBV?$FunctionCallbackInfo@VValue@v8@@@Nan@@@Z@4HA 00000001800591c8 f   turtlecoin-crypto-node.obj
 0001:000581d4       ?dtor$4@?0??tree_hash_from_branch@@YAXAEBV?$FunctionCallbackInfo@VValue@v8@@@Nan@@@Z@4HA 00000001800591d4 f   turtlecoin-crypto-node.obj
 0001:000581e0       ?dtor$5@?0??tree_hash_from_branch@@YAXAEBV?$FunctionCallbackInfo@VValue@v8@@@Nan@@@Z@4HA 00000001800591e0 f   turtlecoin-crypto-node.obj
 0001:000581ec       ?dtor$7@?0??tree_hash_from_branch@@YAXAEBV?$FunctionCallbackInfo@VValue@v8@@@Nan@@@Z@4HA 00000001800591ec f   turtlecoin-crypto-node.obj
 0001:000581f8       ?dtor$14@?0??tree_hash_from_branch@@YAXAEBV?$FunctionCallbackInfo@VValue@v8@@@Nan@@@Z@4HA 00000001800591f8 f   turtlecoin-crypto-node.obj
 0001:00058204       ?catch$19@?0??tree_hash_from_branch@@YAXAEBV?$FunctionCallbackInfo@VValue@v8@@@Nan@@@Z@4HA 0000000180059204 f   turtlecoin-crypto-node.obj
 0001:00058211       __catch$?tree_hash_from_branch@@YAXAEBV?$FunctionCallbackInfo@VValue@v8@@@Nan@@@Z$0 0000000180059211 f   turtlecoin-crypto-node.obj
 0001:00058230       ?dtor$0@?0??InitModule@@YAXV?$Local@VObject@v8@@@v8@@@Z@4HA 0000000180059230 f   turtlecoin-crypto-node.obj
 0001:0005823e       ?dtor$2@?0??InitModule@@YAXV?$Local@VObject@v8@@@v8@@@Z@4HA 000000018005923e f   turtlecoin-crypto-node.obj
 0001:0005824c       ?dtor$3@?0??InitModule@@YAXV?$Local@VObject@v8@@@v8@@@Z@4HA 000000018005924c f   turtlecoin-crypto-node.obj
 0001:0005825a       ?dtor$5@?0??InitModule@@YAXV?$Local@VObject@v8@@@v8@@@Z@4HA 000000018005925a f   turtlecoin-crypto-node.obj
 0001:00058268       ?dtor$6@?0??InitModule@@YAXV?$Local@VObject@v8@@@v8@@@Z@4HA 0000000180059268 f   turtlecoin-crypto-node.obj
 0001:00058276       ?dtor$8@?0??InitModule@@YAXV?$Local@VObject@v8@@@v8@@@Z@4HA 0000000180059276 f   turtlecoin-crypto-node.obj
 0001:00058284       ?dtor$9@?0??InitModule@@YAXV?$Local@VObject@v8@@@v8@@@Z@4HA 0000000180059284 f   turtlecoin-crypto-node.obj
 0001:00058292       ?dtor$11@?0??InitModule@@YAXV?$Local@VObject@v8@@@v8@@@Z@4HA 0000000180059292 f   turtlecoin-crypto-node.obj
 0001:000582a0       ?dtor$12@?0??InitModule@@YAXV?$Local@VObject@v8@@@v8@@@Z@4HA 00000001800592a0 f   turtlecoin-crypto-node.obj
 0001:000582ae       ?dtor$14@?0??InitModule@@YAXV?$Local@VObject@v8@@@v8@@@Z@4HA 00000001800592ae f   turtlecoin-crypto-node.obj
 0001:000582bc       ?dtor$15@?0??InitModule@@YAXV?$Local@VObject@v8@@@v8@@@Z@4HA 00000001800592bc f   turtlecoin-crypto-node.obj
 0001:000582ca       ?dtor$17@?0??InitModule@@YAXV?$Local@VObject@v8@@@v8@@@Z@4HA 00000001800592ca f   turtlecoin-crypto-node.obj
 0001:000582d8       ?dtor$18@?0??InitModule@@YAXV?$Local@VObject@v8@@@v8@@@Z@4HA 00000001800592d8 f   turtlecoin-crypto-node.obj
 0001:000582e6       ?dtor$20@?0??InitModule@@YAXV?$Local@VObject@v8@@@v8@@@Z@4HA 00000001800592e6 f   turtlecoin-crypto-node.obj
 0001:000582f4       ?dtor$21@?0??InitModule@@YAXV?$Local@VObject@v8@@@v8@@@Z@4HA 00000001800592f4 f   turtlecoin-crypto-node.obj
 0001:00058302       ?dtor$23@?0??InitModule@@YAXV?$Local@VObject@v8@@@v8@@@Z@4HA 0000000180059302 f   turtlecoin-crypto-node.obj
 0001:00058310       ?dtor$24@?0??InitModule@@YAXV?$Local@VObject@v8@@@v8@@@Z@4HA 0000000180059310 f   turtlecoin-crypto-node.obj
 0001:0005831e       ?dtor$26@?0??InitModule@@YAXV?$Local@VObject@v8@@@v8@@@Z@4HA 000000018005931e f   turtlecoin-crypto-node.obj
 0001:0005832c       ?dtor$27@?0??InitModule@@YAXV?$Local@VObject@v8@@@v8@@@Z@4HA 000000018005932c f   turtlecoin-crypto-node.obj
 0001:0005833a       ?dtor$29@?0??InitModule@@YAXV?$Local@VObject@v8@@@v8@@@Z@4HA 000000018005933a f   turtlecoin-crypto-node.obj
 0001:00058348       ?dtor$30@?0??InitModule@@YAXV?$Local@VObject@v8@@@v8@@@Z@4HA 0000000180059348 f   turtlecoin-crypto-node.obj
 0001:00058356       ?dtor$32@?0??InitModule@@YAXV?$Local@VObject@v8@@@v8@@@Z@4HA 0000000180059356 f   turtlecoin-crypto-node.obj
 0001:00058364       ?dtor$33@?0??InitModule@@YAXV?$Local@VObject@v8@@@v8@@@Z@4HA 0000000180059364 f   turtlecoin-crypto-node.obj
 0001:00058372       ?dtor$35@?0??InitModule@@YAXV?$Local@VObject@v8@@@v8@@@Z@4HA 0000000180059372 f   turtlecoin-crypto-node.obj
 0001:00058380       ?dtor$36@?0??InitModule@@YAXV?$Local@VObject@v8@@@v8@@@Z@4HA 0000000180059380 f   turtlecoin-crypto-node.obj
 0001:0005838e       ?dtor$38@?0??InitModule@@YAXV?$Local@VObject@v8@@@v8@@@Z@4HA 000000018005938e f   turtlecoin-crypto-node.obj
 0001:0005839c       ?dtor$39@?0??InitModule@@YAXV?$Local@VObject@v8@@@v8@@@Z@4HA 000000018005939c f   turtlecoin-crypto-node.obj
 0001:000583aa       ?dtor$41@?0??InitModule@@YAXV?$Local@VObject@v8@@@v8@@@Z@4HA 00000001800593aa f   turtlecoin-crypto-node.obj
 0001:000583b8       ?dtor$42@?0??InitModule@@YAXV?$Local@VObject@v8@@@v8@@@Z@4HA 00000001800593b8 f   turtlecoin-crypto-node.obj
 0001:000583c6       ?dtor$44@?0??InitModule@@YAXV?$Local@VObject@v8@@@v8@@@Z@4HA 00000001800593c6 f   turtlecoin-crypto-node.obj
 0001:000583d4       ?dtor$45@?0??InitModule@@YAXV?$Local@VObject@v8@@@v8@@@Z@4HA 00000001800593d4 f   turtlecoin-crypto-node.obj
 0001:000583e2       ?dtor$47@?0??InitModule@@YAXV?$Local@VObject@v8@@@v8@@@Z@4HA 00000001800593e2 f   turtlecoin-crypto-node.obj
 0001:000583f0       ?dtor$48@?0??InitModule@@YAXV?$Local@VObject@v8@@@v8@@@Z@4HA 00000001800593f0 f   turtlecoin-crypto-node.obj
 0001:000583fe       ?dtor$50@?0??InitModule@@YAXV?$Local@VObject@v8@@@v8@@@Z@4HA 00000001800593fe f   turtlecoin-crypto-node.obj
 0001:0005840c       ?dtor$51@?0??InitModule@@YAXV?$Local@VObject@v8@@@v8@@@Z@4HA 000000018005940c f   turtlecoin-crypto-node.obj
 0001:0005841a       ?dtor$53@?0??InitModule@@YAXV?$Local@VObject@v8@@@v8@@@Z@4HA 000000018005941a f   turtlecoin-crypto-node.obj
 0001:00058428       ?dtor$54@?0??InitModule@@YAXV?$Local@VObject@v8@@@v8@@@Z@4HA 0000000180059428 f   turtlecoin-crypto-node.obj
 0001:00058436       ?dtor$56@?0??InitModule@@YAXV?$Local@VObject@v8@@@v8@@@Z@4HA 0000000180059436 f   turtlecoin-crypto-node.obj
 0001:00058444       ?dtor$57@?0??InitModule@@YAXV?$Local@VObject@v8@@@v8@@@Z@4HA 0000000180059444 f   turtlecoin-crypto-node.obj
 0001:00058452       ?dtor$59@?0??InitModule@@YAXV?$Local@VObject@v8@@@v8@@@Z@4HA 0000000180059452 f   turtlecoin-crypto-node.obj
 0001:00058460       ?dtor$60@?0??InitModule@@YAXV?$Local@VObject@v8@@@v8@@@Z@4HA 0000000180059460 f   turtlecoin-crypto-node.obj
 0001:0005846e       ?dtor$62@?0??InitModule@@YAXV?$Local@VObject@v8@@@v8@@@Z@4HA 000000018005946e f   turtlecoin-crypto-node.obj
 0001:0005847c       ?dtor$63@?0??InitModule@@YAXV?$Local@VObject@v8@@@v8@@@Z@4HA 000000018005947c f   turtlecoin-crypto-node.obj
 0001:0005848a       ?dtor$65@?0??InitModule@@YAXV?$Local@VObject@v8@@@v8@@@Z@4HA 000000018005948a f   turtlecoin-crypto-node.obj
 0001:00058498       ?dtor$66@?0??InitModule@@YAXV?$Local@VObject@v8@@@v8@@@Z@4HA 0000000180059498 f   turtlecoin-crypto-node.obj
 0001:000584a6       ?dtor$68@?0??InitModule@@YAXV?$Local@VObject@v8@@@v8@@@Z@4HA 00000001800594a6 f   turtlecoin-crypto-node.obj
 0001:000584b4       ?dtor$69@?0??InitModule@@YAXV?$Local@VObject@v8@@@v8@@@Z@4HA 00000001800594b4 f   turtlecoin-crypto-node.obj
 0001:000584c2       ?dtor$71@?0??InitModule@@YAXV?$Local@VObject@v8@@@v8@@@Z@4HA 00000001800594c2 f   turtlecoin-crypto-node.obj
 0001:000584d0       ?dtor$72@?0??InitModule@@YAXV?$Local@VObject@v8@@@v8@@@Z@4HA 00000001800594d0 f   turtlecoin-crypto-node.obj
 0001:000584de       ?dtor$74@?0??InitModule@@YAXV?$Local@VObject@v8@@@v8@@@Z@4HA 00000001800594de f   turtlecoin-crypto-node.obj
 0001:000584ec       ?dtor$75@?0??InitModule@@YAXV?$Local@VObject@v8@@@v8@@@Z@4HA 00000001800594ec f   turtlecoin-crypto-node.obj
 0001:000584fa       ?dtor$77@?0??InitModule@@YAXV?$Local@VObject@v8@@@v8@@@Z@4HA 00000001800594fa f   turtlecoin-crypto-node.obj
 0001:00058508       ?dtor$78@?0??InitModule@@YAXV?$Local@VObject@v8@@@v8@@@Z@4HA 0000000180059508 f   turtlecoin-crypto-node.obj
 0001:00058516       ?dtor$80@?0??InitModule@@YAXV?$Local@VObject@v8@@@v8@@@Z@4HA 0000000180059516 f   turtlecoin-crypto-node.obj
 0001:00058524       ?dtor$81@?0??InitModule@@YAXV?$Local@VObject@v8@@@v8@@@Z@4HA 0000000180059524 f   turtlecoin-crypto-node.obj
 0001:00058532       ?dtor$83@?0??InitModule@@YAXV?$Local@VObject@v8@@@v8@@@Z@4HA 0000000180059532 f   turtlecoin-crypto-node.obj
 0001:00058540       ?dtor$84@?0??InitModule@@YAXV?$Local@VObject@v8@@@v8@@@Z@4HA 0000000180059540 f   turtlecoin-crypto-node.obj
 0001:0005854e       ?dtor$86@?0??InitModule@@YAXV?$Local@VObject@v8@@@v8@@@Z@4HA 000000018005954e f   turtlecoin-crypto-node.obj
 0001:0005855c       ?dtor$87@?0??InitModule@@YAXV?$Local@VObject@v8@@@v8@@@Z@4HA 000000018005955c f   turtlecoin-crypto-node.obj
 0001:0005856a       ?dtor$89@?0??InitModule@@YAXV?$Local@VObject@v8@@@v8@@@Z@4HA 000000018005956a f   turtlecoin-crypto-node.obj
 0001:00058578       ?dtor$90@?0??InitModule@@YAXV?$Local@VObject@v8@@@v8@@@Z@4HA 0000000180059578 f   turtlecoin-crypto-node.obj
 0001:00058586       ?dtor$92@?0??InitModule@@YAXV?$Local@VObject@v8@@@v8@@@Z@4HA 0000000180059586 f   turtlecoin-crypto-node.obj
 0001:00058594       ?dtor$93@?0??InitModule@@YAXV?$Local@VObject@v8@@@v8@@@Z@4HA 0000000180059594 f   turtlecoin-crypto-node.obj
 0001:000585a2       ?dtor$95@?0??InitModule@@YAXV?$Local@VObject@v8@@@v8@@@Z@4HA 00000001800595a2 f   turtlecoin-crypto-node.obj
 0001:000585b0       ?dtor$96@?0??InitModule@@YAXV?$Local@VObject@v8@@@v8@@@Z@4HA 00000001800595b0 f   turtlecoin-crypto-node.obj
 0001:000585be       ?dtor$98@?0??InitModule@@YAXV?$Local@VObject@v8@@@v8@@@Z@4HA 00000001800595be f   turtlecoin-crypto-node.obj
 0001:000585cc       ?dtor$99@?0??InitModule@@YAXV?$Local@VObject@v8@@@v8@@@Z@4HA 00000001800595cc f   turtlecoin-crypto-node.obj
 0001:000585da       ?dtor$101@?0??InitModule@@YAXV?$Local@VObject@v8@@@v8@@@Z@4HA 00000001800595da f   turtlecoin-crypto-node.obj
 0001:000585e8       ?dtor$102@?0??InitModule@@YAXV?$Local@VObject@v8@@@v8@@@Z@4HA 00000001800595e8 f   turtlecoin-crypto-node.obj
 0001:000585f6       ?dtor$104@?0??InitModule@@YAXV?$Local@VObject@v8@@@v8@@@Z@4HA 00000001800595f6 f   turtlecoin-crypto-node.obj
 0001:00058604       ?dtor$105@?0??InitModule@@YAXV?$Local@VObject@v8@@@v8@@@Z@4HA 0000000180059604 f   turtlecoin-crypto-node.obj
 0001:00058612       ?dtor$107@?0??InitModule@@YAXV?$Local@VObject@v8@@@v8@@@Z@4HA 0000000180059612 f   turtlecoin-crypto-node.obj
 0001:00058620       ?dtor$108@?0??InitModule@@YAXV?$Local@VObject@v8@@@v8@@@Z@4HA 0000000180059620 f   turtlecoin-crypto-node.obj
 0001:0005862e       ?dtor$110@?0??InitModule@@YAXV?$Local@VObject@v8@@@v8@@@Z@4HA 000000018005962e f   turtlecoin-crypto-node.obj
 0001:0005863c       ?dtor$111@?0??InitModule@@YAXV?$Local@VObject@v8@@@v8@@@Z@4HA 000000018005963c f   turtlecoin-crypto-node.obj
 0001:0005864a       ?dtor$113@?0??InitModule@@YAXV?$Local@VObject@v8@@@v8@@@Z@4HA 000000018005964a f   turtlecoin-crypto-node.obj
 0001:00058658       ?dtor$114@?0??InitModule@@YAXV?$Local@VObject@v8@@@v8@@@Z@4HA 0000000180059658 f   turtlecoin-crypto-node.obj
 0001:00058666       ?dtor$116@?0??InitModule@@YAXV?$Local@VObject@v8@@@v8@@@Z@4HA 0000000180059666 f   turtlecoin-crypto-node.obj
 0001:00058674       ?dtor$117@?0??InitModule@@YAXV?$Local@VObject@v8@@@v8@@@Z@4HA 0000000180059674 f   turtlecoin-crypto-node.obj
 0001:00058682       ?dtor$119@?0??InitModule@@YAXV?$Local@VObject@v8@@@v8@@@Z@4HA 0000000180059682 f   turtlecoin-crypto-node.obj
 0001:00058690       ?dtor$120@?0??InitModule@@YAXV?$Local@VObject@v8@@@v8@@@Z@4HA 0000000180059690 f   turtlecoin-crypto-node.obj
 0001:0005869e       ?dtor$122@?0??InitModule@@YAXV?$Local@VObject@v8@@@v8@@@Z@4HA 000000018005969e f   turtlecoin-crypto-node.obj
 0001:000586ac       ?dtor$123@?0??InitModule@@YAXV?$Local@VObject@v8@@@v8@@@Z@4HA 00000001800596ac f   turtlecoin-crypto-node.obj
 0001:000586ba       ?dtor$125@?0??InitModule@@YAXV?$Local@VObject@v8@@@v8@@@Z@4HA 00000001800596ba f   turtlecoin-crypto-node.obj
 0001:000586c8       ?dtor$126@?0??InitModule@@YAXV?$Local@VObject@v8@@@v8@@@Z@4HA 00000001800596c8 f   turtlecoin-crypto-node.obj
 0001:000586d6       ?dtor$128@?0??InitModule@@YAXV?$Local@VObject@v8@@@v8@@@Z@4HA 00000001800596d6 f   turtlecoin-crypto-node.obj
 0001:000586e4       ?dtor$129@?0??InitModule@@YAXV?$Local@VObject@v8@@@v8@@@Z@4HA 00000001800596e4 f   turtlecoin-crypto-node.obj
 0001:000586f2       ?dtor$131@?0??InitModule@@YAXV?$Local@VObject@v8@@@v8@@@Z@4HA 00000001800596f2 f   turtlecoin-crypto-node.obj
 0001:00058700       ?dtor$132@?0??InitModule@@YAXV?$Local@VObject@v8@@@v8@@@Z@4HA 0000000180059700 f   turtlecoin-crypto-node.obj
 0001:0005870e       ?dtor$134@?0??InitModule@@YAXV?$Local@VObject@v8@@@v8@@@Z@4HA 000000018005970e f   turtlecoin-crypto-node.obj
 0001:0005871c       ?dtor$135@?0??InitModule@@YAXV?$Local@VObject@v8@@@v8@@@Z@4HA 000000018005971c f   turtlecoin-crypto-node.obj
 0001:0005872a       ?dtor$137@?0??InitModule@@YAXV?$Local@VObject@v8@@@v8@@@Z@4HA 000000018005972a f   turtlecoin-crypto-node.obj
 0001:00058738       ?dtor$138@?0??InitModule@@YAXV?$Local@VObject@v8@@@v8@@@Z@4HA 0000000180059738 f   turtlecoin-crypto-node.obj
 0001:00058746       ?dtor$140@?0??InitModule@@YAXV?$Local@VObject@v8@@@v8@@@Z@4HA 0000000180059746 f   turtlecoin-crypto-node.obj
 0001:00058754       ?dtor$141@?0??InitModule@@YAXV?$Local@VObject@v8@@@v8@@@Z@4HA 0000000180059754 f   turtlecoin-crypto-node.obj
 0001:00058762       ?dtor$143@?0??InitModule@@YAXV?$Local@VObject@v8@@@v8@@@Z@4HA 0000000180059762 f   turtlecoin-crypto-node.obj
 0001:00058770       ?dtor$144@?0??InitModule@@YAXV?$Local@VObject@v8@@@v8@@@Z@4HA 0000000180059770 f   turtlecoin-crypto-node.obj
 0001:0005877e       ?dtor$146@?0??InitModule@@YAXV?$Local@VObject@v8@@@v8@@@Z@4HA 000000018005977e f   turtlecoin-crypto-node.obj
 0001:0005878c       ?dtor$147@?0??InitModule@@YAXV?$Local@VObject@v8@@@v8@@@Z@4HA 000000018005978c f   turtlecoin-crypto-node.obj
 0001:0005879a       ?dtor$149@?0??InitModule@@YAXV?$Local@VObject@v8@@@v8@@@Z@4HA 000000018005979a f   turtlecoin-crypto-node.obj
 0001:000587a8       ?dtor$150@?0??InitModule@@YAXV?$Local@VObject@v8@@@v8@@@Z@4HA 00000001800597a8 f   turtlecoin-crypto-node.obj
 0001:000587b6       ?dtor$152@?0??InitModule@@YAXV?$Local@VObject@v8@@@v8@@@Z@4HA 00000001800597b6 f   turtlecoin-crypto-node.obj
 0001:000587c4       ?dtor$153@?0??InitModule@@YAXV?$Local@VObject@v8@@@v8@@@Z@4HA 00000001800597c4 f   turtlecoin-crypto-node.obj
 0001:000587d2       ?dtor$155@?0??InitModule@@YAXV?$Local@VObject@v8@@@v8@@@Z@4HA 00000001800597d2 f   turtlecoin-crypto-node.obj
 0001:000587e0       ?dtor$0@?0???$New@VFunctionTemplate@v8@@@Nan@@YA?AV?$Local@VFunctionTemplate@v8@@@v8@@P6AXAEBV?$FunctionCallbackInfo@VValue@v8@@@0@@ZV?$Local@VValue@v8@@@2@@Z@4HA 00000001800597e0 f   turtlecoin-crypto-node.obj
 0001:000587ee       ?dtor$1@?0???$New@VFunctionTemplate@v8@@@Nan@@YA?AV?$Local@VFunctionTemplate@v8@@@v8@@P6AXAEBV?$FunctionCallbackInfo@VValue@v8@@@0@@ZV?$Local@VValue@v8@@@2@@Z@4HA 00000001800597ee f   turtlecoin-crypto-node.obj
 0001:000587fc       ?fin$0@?0??dllmain_crt_process_attach@@YAHQEAUHINSTANCE__@@QEAX@Z@4HA 00000001800597fc f   LIBCMT:dll_dllmain.obj
 0001:00058813       ?fin$0@?0??dllmain_crt_process_detach@@YAH_N@Z@4HA 0000000180059813 f   LIBCMT:dll_dllmain.obj
 0001:0005882c       ?fin$1@?0??dllmain_crt_process_detach@@YAH_N@Z@4HA 000000018005982c f   LIBCMT:dll_dllmain.obj
 0001:00058840       ?filt$0@?0??dllmain_dispatch@@YAHQEAUHINSTANCE__@@KQEAX@Z@4HA 0000000180059840 f   LIBCMT:dll_dllmain.obj
 0001:00058876       __scrt_is_nonwritable_in_current_image$filt$0 0000000180059876 f   LIBCMT:utility.obj
 0001:0005888e       ?filt$0@?0???$_CallSETranslator@V__FrameHandler4@@@@YAHPEAUEHExceptionRecord@@PEA_KPEAU_CONTEXT@@PEAU_xDISPATCHER_CONTEXT@@PEAUFuncInfo4@FH4@@K1H@Z@4HA 000000018005988e f   libvcruntime:risctrnsctrl.obj
 0001:0005892d       __DestructExceptionObject$filt$0 000000018005992d f   libvcruntime:ehhelpers.obj
 0001:000589c3       ?filt$0@?0??CxxCallCatchBlock@__FrameHandler4@@SAPEAXPEAU_EXCEPTION_RECORD@@@Z@4HA 00000001800599c3 f   libvcruntime:frame.obj
 0001:000589f2       ?fin$1@?0??CxxCallCatchBlock@__FrameHandler4@@SAPEAXPEAU_EXCEPTION_RECORD@@@Z@4HA 00000001800599f2 f   libvcruntime:frame.obj
 0001:00058a75       ?filt$0@?0??FrameUnwindToState@__FrameHandler4@@SAXPEA_KPEAU_xDISPATCHER_CONTEXT@@PEAUFuncInfo4@FH4@@H@Z@4HA 0000000180059a75 f   libvcruntime:frame.obj
 0001:00058a8b       ?fin$1@?0??FrameUnwindToState@__FrameHandler4@@SAXPEA_KPEAU_xDISPATCHER_CONTEXT@@PEAUFuncInfo4@FH4@@H@Z@4HA 0000000180059a8b f   libvcruntime:frame.obj
 0001:00058aae       ?fin$0@?0???$?RV<lambda_842d9ff0dc9ef11c61343bbaebe7f885>@@AEAV<lambda_c5860995281e5c4ce005b3de8f5874ee>@@V<lambda_d90129c13df834fdcbf8d2b88dafcf2d>@@@?$__crt_seh_guarded_call@X@@QEAAX$$QEAV<lambda_842d9ff0dc9ef11c61343bbaebe7f885>@@AEAV<lambda_c5860995281e5c4ce005b3de8f5874ee>@@$$QEAV<lambda_d90129c13df834fdcbf8d2b88dafcf2d>@@@Z@4HA 0000000180059aae f   libucrt:fflush.obj
 0001:00058aae       ?fin$0@?0???$?RV<lambda_fe5404e9642edbb7c8ae71e1dcfa4018>@@AEAV<lambda_36eeb330e99a4f0bf8a7da86d0894cb9>@@V<lambda_2fa474834de80dc12f7a3c6eddd7a366>@@@?$__crt_seh_guarded_call@H@@QEAAH$$QEAV<lambda_fe5404e9642edbb7c8ae71e1dcfa4018>@@AEAV<lambda_36eeb330e99a4f0bf8a7da86d0894cb9>@@$$QEAV<lambda_2fa474834de80dc12f7a3c6eddd7a366>@@@Z@4HA 0000000180059aae f   libucrt:output.obj
 0001:00058ac9       ?filt$0@?0???$thread_start@P6AIPEAX@Z$00@@YAKQEAX@Z@4HA 0000000180059ac9 f   libucrt:thread.obj
 0001:00058ae7       _query_new_handler$fin$0   0000000180059ae7 f   libucrt:new_handler.obj
 0001:00058afd       ?fin$0@?0???$?RV<lambda_0ae27a3a962d80f24befdcbee591983d>@@AEAV<lambda_8d0ee55de4b1038c4002e0adecdf1839>@@V<lambda_dc504788e8f1664fe9b84e20bfb512f2>@@@?$__crt_seh_guarded_call@X@@QEAAX$$QEAV<lambda_0ae27a3a962d80f24befdcbee591983d>@@AEAV<lambda_8d0ee55de4b1038c4002e0adecdf1839>@@$$QEAV<lambda_dc504788e8f1664fe9b84e20bfb512f2>@@@Z@4HA 0000000180059afd f   libucrt:per_thread_data.obj
 0001:00058afd       ?fin$0@?0???$?RV<lambda_2d41944a1d46af3157314b8a01080d33>@@AEAV<lambda_8f455de75cd7d7f24b4096f044d8b9e6>@@V<lambda_aa500f224e6afead328df44964fe2772>@@@?$__crt_seh_guarded_call@X@@QEAAX$$QEAV<lambda_2d41944a1d46af3157314b8a01080d33>@@AEAV<lambda_8f455de75cd7d7f24b4096f044d8b9e6>@@$$QEAV<lambda_aa500f224e6afead328df44964fe2772>@@@Z@4HA 0000000180059afd f   libucrt:per_thread_data.obj
 0001:00058afd       ?fin$0@?0???$?RV<lambda_aa87e3671a710a21b5dc78c0bdf72e11>@@AEAV<lambda_92619d2358a28f41a33ba319515a20b9>@@V<lambda_6992ecaafeb10aed2b74cb1fae11a551>@@@?$__crt_seh_guarded_call@X@@QEAAX$$QEAV<lambda_aa87e3671a710a21b5dc78c0bdf72e11>@@AEAV<lambda_92619d2358a28f41a33ba319515a20b9>@@$$QEAV<lambda_6992ecaafeb10aed2b74cb1fae11a551>@@@Z@4HA 0000000180059afd f   libucrt:per_thread_data.obj
 0001:00058afd       ?fin$0@?0???$?RV<lambda_f2e299630e499de9f9a165e60fcd3db5>@@AEAV<lambda_2ae9d31cdba2644fcbeaf08da7c24588>@@V<lambda_40d01ff24d0e7b3814fdbdcee8eab3c7>@@@?$__crt_seh_guarded_call@X@@QEAAX$$QEAV<lambda_f2e299630e499de9f9a165e60fcd3db5>@@AEAV<lambda_2ae9d31cdba2644fcbeaf08da7c24588>@@$$QEAV<lambda_40d01ff24d0e7b3814fdbdcee8eab3c7>@@@Z@4HA 0000000180059afd f   libucrt:per_thread_data.obj
 0001:00058afd       ?fin$0@?0???$?RV<lambda_efdfa57d1f175319df784efa44bb7b81>@@AEAV<lambda_5f0a4c1567f8adc6734073e5d1e1b35c>@@V<lambda_2e8a7d3640ea6ccb4c2413664c2db6fd>@@@?$__crt_seh_guarded_call@X@@QEAAX$$QEAV<lambda_efdfa57d1f175319df784efa44bb7b81>@@AEAV<lambda_5f0a4c1567f8adc6734073e5d1e1b35c>@@$$QEAV<lambda_2e8a7d3640ea6ccb4c2413664c2db6fd>@@@Z@4HA 0000000180059afd f   libucrt:mbctype.obj
 0001:00058afd       ?fin$0@?0???$?RV<lambda_450d765d439847d4c735a33c368b5fc0>@@AEAV<lambda_44731a7d0e6d81c3e6aa82d741081786>@@V<lambda_601a2a7da3b7a96e9554ac7215c4b07c>@@@?$__crt_seh_guarded_call@P6AXH@Z@@QEAAP6AXH@Z$$QEAV<lambda_450d765d439847d4c735a33c368b5fc0>@@AEAV<lambda_44731a7d0e6d81c3e6aa82d741081786>@@$$QEAV<lambda_601a2a7da3b7a96e9554ac7215c4b07c>@@@Z@4HA 0000000180059afd f   libucrt:signal.obj
 0001:00058afd       ?fin$0@?0???$?RV<lambda_d80eeec6fff315bfe5c115232f3240e3>@@AEAV<lambda_6e4b09c48022b2350581041d5f6b0c4c>@@V<lambda_2358e3775559c9db80273638284d5e45>@@@?$__crt_seh_guarded_call@X@@QEAAX$$QEAV<lambda_d80eeec6fff315bfe5c115232f3240e3>@@AEAV<lambda_6e4b09c48022b2350581041d5f6b0c4c>@@$$QEAV<lambda_2358e3775559c9db80273638284d5e45>@@@Z@4HA 0000000180059afd f   libucrt:exit.obj
 0001:00058afd       ?fin$0@?0???$?RV<lambda_638799b9deba96c50f710eeac98168cd>@@AEAV<lambda_22ebabd17bc4fa466a2aca6d8deb888d>@@V<lambda_a6f7d7db0129f75315ebf26d50c089f1>@@@?$__crt_seh_guarded_call@H@@QEAAH$$QEAV<lambda_638799b9deba96c50f710eeac98168cd>@@AEAV<lambda_22ebabd17bc4fa466a2aca6d8deb888d>@@$$QEAV<lambda_a6f7d7db0129f75315ebf26d50c089f1>@@@Z@4HA 0000000180059afd f   libucrt:onexit.obj
 0001:00058afd       ?fin$0@?0???$?RV<lambda_7777bce6b2f8c936911f934f8298dc43>@@AEAV<lambda_f03950bc5685219e0bcd2087efbe011e>@@V<lambda_3883c3dff614d5e0c5f61bb1ac94921c>@@@?$__crt_seh_guarded_call@H@@QEAAH$$QEAV<lambda_7777bce6b2f8c936911f934f8298dc43>@@AEAV<lambda_f03950bc5685219e0bcd2087efbe011e>@@$$QEAV<lambda_3883c3dff614d5e0c5f61bb1ac94921c>@@@Z@4HA 0000000180059afd f   libucrt:onexit.obj
 0001:00058b17       ?filt$0@?0???R<lambda_6e4b09c48022b2350581041d5f6b0c4c>@@QEBA@XZ@4HA 0000000180059b17 f   libucrt:exit.obj
 0001:00058b32       __tzset$fin$0              0000000180059b32 f   libucrt:tzset.obj
 0001:00058b4b       ?fin$0@?0???$?RV<lambda_410d79af7f07d98d83a3f525b3859a53>@@AEAV<lambda_3e16ef9562a7dcce91392c22ab16ea36>@@V<lambda_38119f0e861e05405d8a144b9b982f0a>@@@?$__crt_seh_guarded_call@X@@QEAAX$$QEAV<lambda_410d79af7f07d98d83a3f525b3859a53>@@AEAV<lambda_3e16ef9562a7dcce91392c22ab16ea36>@@$$QEAV<lambda_38119f0e861e05405d8a144b9b982f0a>@@@Z@4HA 0000000180059b4b f   libucrt:wsetlocale.obj
 0001:00058b65       __acrt_initialize_lowio$fin$0 0000000180059b65 f   libucrt:ioinit.obj
 0001:00058b65       __acrt_lowio_ensure_fh_exists$fin$0 0000000180059b65 f   libucrt:osfinfo.obj
 0001:00058b7e       raise$fin$0                0000000180059b7e f   libucrt:signal.obj
 0001:00058b9f       _fcloseall$fin$0           0000000180059b9f f   libucrt:closeall.obj
 0001:00058bb8       ?fin$0@?0???$?RV<lambda_886d6c58226a84441f68b9f2b8217b83>@@AEAV<lambda_ab61a845afdef5b7c387490eaf3616ee>@@V<lambda_f7f22ab5edc0698d5f6905b0d3f44752>@@@?$__crt_seh_guarded_call@X@@QEAAX$$QEAV<lambda_886d6c58226a84441f68b9f2b8217b83>@@AEAV<lambda_ab61a845afdef5b7c387490eaf3616ee>@@$$QEAV<lambda_f7f22ab5edc0698d5f6905b0d3f44752>@@@Z@4HA 0000000180059bb8 f   libucrt:fflush.obj
 0001:00058bd5       _ctrlfp$filt$0             0000000180059bd5 f   libucrt:fpctrl.obj
 0001:00058bd5       common_control87$filt$0    0000000180059bd5 f   libucrt:ieee.obj
 0001:00058c01       ?fin$0@?0??update_thread_multibyte_data_internal@@YAPEAU__crt_multibyte_data@@QEAU__acrt_ptd@@QEAPEAU1@@Z@4HA 0000000180059c01 f   libucrt:mbctype.obj
 0001:00058c1a       __acrt_update_thread_locale_data$fin$0 0000000180059c1a f   libucrt:locale_refcounting.obj
 0001:00058c33       ?fin$0@?0???$common_getenv_s@_W@@YAHQEA_KQEA_W_KQEB_W@Z@4HA 0000000180059c33 f   libucrt:getenv.obj
 0001:00058c4c       fclose$fin$0               0000000180059c4c f   libucrt:fclose.obj
 0001:00058c64       ?fin$0@?0???$?RV<lambda_751a882b2c74d4b022dec766aa51a29a>@@AEAV<lambda_628dfdc04ba53c8bfc02c9951375f3f5>@@V<lambda_f6c7be5f7998530c34de24c7437d6b54>@@@?$__crt_seh_guarded_call@H@@QEAAH$$QEAV<lambda_751a882b2c74d4b022dec766aa51a29a>@@AEAV<lambda_628dfdc04ba53c8bfc02c9951375f3f5>@@$$QEAV<lambda_f6c7be5f7998530c34de24c7437d6b54>@@@Z@4HA 0000000180059c64 f   libucrt:close.obj
 0001:00058c64       ?fin$0@?0???$?RV<lambda_a37b2b86f63e897a80ea819b0eb08c01>@@AEAV<lambda_38ce7e780aa69e748d6df282ebc68efe>@@V<lambda_99fb1378e971ab6e7edea83e3a7a83a2>@@@?$__crt_seh_guarded_call@H@@QEAAH$$QEAV<lambda_a37b2b86f63e897a80ea819b0eb08c01>@@AEAV<lambda_38ce7e780aa69e748d6df282ebc68efe>@@$$QEAV<lambda_99fb1378e971ab6e7edea83e3a7a83a2>@@@Z@4HA 0000000180059c64 f   libucrt:commit.obj
 0001:00058c7e       ?fin$0@?0???$common_lseek@_J@@YA_JH_JH@Z@4HA 0000000180059c7e f   libucrt:lseek.obj
 0001:00058c7e       _write$fin$0               0000000180059c7e f   libucrt:write.obj
 0001:00058ca0       _IsNonwritableInCurrentImage$filt$0 0000000180059ca0 f   LIBCMT:pesect.obj
 0001:00058cc0       ??__Finitlocks@std@@YAXXZ  0000000180059cc0 f   libcpmt:xlock.obj
 0001:00058ccc       ??__F_Fac_tidy_reg@std@@YAXXZ 0000000180059ccc f   libcpmt:locale0.obj
 0001:00058d28       ??__Fclassic_locale@std@@YAXXZ 0000000180059d28 f   libcpmt:locale0.obj
 0001:00058d68       ??__Finit_atexit@@YAXXZ    0000000180059d68 f   libcpmt:iosptrs.obj
 0001:00058da8       ??__Finitlocks@std@@YAXXZ  0000000180059da8 f   libcpmt:iosptrs.obj
 0002:000002d8       ?initlocks$initializer$@std@@3P6AXXZEA 000000018005a2d8     libcpmt:xlock.obj
 0002:000002e0       ?initlocks$initializer$@std@@3P6AXXZEA 000000018005a2e0     libcpmt:iosptrs.obj
 0002:000002e8       ?init_atexit$initializer$@@3P6AXXZEA 000000018005a2e8     libcpmt:iosptrs.obj
 0002:000002f0       ?_Fac_tidy_reg$initializer$@std@@3P6AXXZEA 000000018005a2f0     libcpmt:locale0.obj
 0002:000002f8       ?classic_locale$initializer$@std@@3P6AXXZEA 000000018005a2f8     libcpmt:locale0.obj
 0002:00000308       ?gen$initializer$@@3P6AXXZEA 000000018005a308     random.obj
 0002:00000318       __xd_a                     000000018005a318     LIBCMT:tlsdyn.obj
 0002:00000320       ?gen$initializer$@Random@@3P6AXXZEA 000000018005a320     chacha8.obj
 0002:00000328       ?gen$initializer$@Random@@3P6AXXZEA 000000018005a328     crypto.obj
 0002:00000330       ?gen$initializer$@Random@@3P6AXXZEA 000000018005a330     random.obj
 0002:00000338       __xd_z                     000000018005a338     LIBCMT:tlsdyn.obj
 0002:00000380       __xl_c                     000000018005a380     LIBCMT:tlsdyn.obj
 0002:00000410       GS_ExceptionPointers       000000018005a410     LIBCMT:gs_report.obj
 0002:00000530       ?_Win_errtab@?A0xd6bbc2a6@@3QBU_Win_errtab_t@1@B 000000018005a530     libcpmt:syserror.obj
 0002:000007b0       ?_Sys_errtab@?A0xd6bbc2a6@@3QBU_Sys_errtab_t@1@B 000000018005a7b0     libcpmt:syserror.obj
 0002:00001340       ?_Whitespace_bitmap@?A0xf6b3e556@@3U_Whitespace_bitmap_t@1@B 000000018005b340     libcpmt:syserror_import_lib.obj
 0002:00001448       digits                     000000018005b448     libcpmt:xstoul.obj
 0002:00001470       ndigs                      000000018005b470     libcpmt:xstoul.obj
 0002:00001498       digits                     000000018005b498     libcpmt:xstoull.obj
 0002:000014c0       ndigs                      000000018005b4c0     libcpmt:xstoull.obj
 0002:00001510       ?ExceptionTemplate@?1??UnwindNestedFrames@__FrameHandler4@@SAXPEA_KPEAUEHExceptionRecord@@PEAU_CONTEXT@@0PEAXPEAUFuncInfo4@FH4@@HHPEAUHandlerType4@6@PEAU_xDISPATCHER_CONTEXT@@E@Z@4U_EXCEPTION_RECORD@@B 000000018005b510     libvcruntime:risctrnsctrl.obj
 0002:000015e0       ?tokenTable@@3QBUStringLiteral@@B 000000018005b5e0     libvcruntime:undname.obj
 0002:000016e0       ?nameTable@@3QBUStringLiteral@@B 000000018005b6e0     libvcruntime:undname.obj
 0002:00001c10       ?rttiTable@@3QBUStringLiteral@@B 000000018005bc10     libvcruntime:undname.obj
 0002:00001c60       ?IndirectionName@@3QBUStringLiteral@@B 000000018005bc60     libvcruntime:undname.obj
 0002:00001cc0       ?PrefixName@@3QBUStringLiteral@@B 000000018005bcc0     libvcruntime:undname.obj
 0002:00002390       ?module_names@?A0xf6f43728@@3QBQEB_WB 000000018005c390     libvcruntime:winapi_downlevel.obj
 0002:00002450       ?candidate_modules@?1??try_get_FlsAlloc@@YAP6AKP6AXPEAX@Z@ZXZ@4QBW4module_id@?A0xf6f43728@@B 000000018005c450     libvcruntime:winapi_downlevel.obj
 0002:00002468       ?candidate_modules@?1??try_get_FlsFree@@YAP6AHK@ZXZ@4QBW4module_id@?A0xf6f43728@@B 000000018005c468     libvcruntime:winapi_downlevel.obj
 0002:00002478       ?candidate_modules@?1??try_get_FlsGetValue@@YAP6APEAXK@ZXZ@4QBW4module_id@?A0xf6f43728@@B 000000018005c478     libvcruntime:winapi_downlevel.obj
 0002:00002490       ?candidate_modules@?1??try_get_FlsSetValue@@YAP6AHKPEAX@ZXZ@4QBW4module_id@?A0xf6f43728@@B 000000018005c490     libvcruntime:winapi_downlevel.obj
 0002:000024a8       ?candidate_modules@?1??try_get_InitializeCriticalSectionEx@@YAP6AHPEAU_RTL_CRITICAL_SECTION@@KK@ZXZ@4QBW4module_id@?A0xf6f43728@@B 000000018005c4a8     libvcruntime:winapi_downlevel.obj
 0002:000033c0       __acrt_initializers        000000018005d3c0     libucrt:initialization.obj
 0002:00003cd0       ?errtable@@3QBUerrentry@?A0x31fdb9ec@@B 000000018005dcd0     libucrt:errno.obj
 0002:00003e40       __flag_x_one_y_snan        000000018005de40     libucrt:pow.obj
 0002:00003e44       __flag_x_zero_z_inf        000000018005de44     libucrt:pow.obj
 0002:00003e48       __flag_x_nan               000000018005de48     libucrt:pow.obj
 0002:00003e4c       __flag_y_nan               000000018005de4c     libucrt:pow.obj
 0002:00003e50       __flag_x_nan_y_nan         000000018005de50     libucrt:pow.obj
 0002:00003e54       __flag_x_neg_y_notint      000000018005de54     libucrt:pow.obj
 0002:00003e58       __flag_z_zero              000000018005de58     libucrt:pow.obj
 0002:00003e5c       __flag_z_denormal          000000018005de5c     libucrt:pow.obj
 0002:00003e60       __flag_z_inf               000000018005de60     libucrt:pow.obj
 0002:00003e70       __ay_max_bound             000000018005de70     libucrt:pow.obj
 0002:00003e78       __ay_min_bound             000000018005de78     libucrt:pow.obj
 0002:00003e80       __sign_mask                000000018005de80     libucrt:pow.obj
 0002:00003e88       __sign_and_exp_mask        000000018005de88     libucrt:pow.obj
 0002:00003e90       __exp_mask                 000000018005de90     libucrt:pow.obj
 0002:00003e98       __neg_inf                  000000018005de98     libucrt:pow.obj
 0002:00003ea0       __pos_inf                  000000018005dea0     libucrt:pow.obj
 0002:00003ea8       __pos_one                  000000018005dea8     libucrt:pow.obj
 0002:00003eb0       __pos_zero                 000000018005deb0     libucrt:pow.obj
 0002:00003eb8       __exp_mant_mask            000000018005deb8     libucrt:pow.obj
 0002:00003ec0       __mant_mask                000000018005dec0     libucrt:pow.obj
 0002:00003ec8       __ind_pattern              000000018005dec8     libucrt:pow.obj
 0002:00003ed0       __neg_qnan                 000000018005ded0     libucrt:pow.obj
 0002:00003ed8       __qnan                     000000018005ded8     libucrt:pow.obj
 0002:00003ee0       __qnan_set                 000000018005dee0     libucrt:pow.obj
 0002:00003ee8       __neg_one                  000000018005dee8     libucrt:pow.obj
 0002:00003ef0       __neg_zero                 000000018005def0     libucrt:pow.obj
 0002:00003ef8       __exp_shift                000000018005def8     libucrt:pow.obj
 0002:00003f00       __exp_bias                 000000018005df00     libucrt:pow.obj
 0002:00003f08       __exp_bias_m1              000000018005df08     libucrt:pow.obj
 0002:00003f10       __yexp_53                  000000018005df10     libucrt:pow.obj
 0002:00003f18       __mant_full                000000018005df18     libucrt:pow.obj
 0002:00003f20       __1_before_mant            000000018005df20     libucrt:pow.obj
 0002:00003f28       __mask_mant_all8           000000018005df28     libucrt:pow.obj
 0002:00003f30       __mask_mant9               000000018005df30     libucrt:pow.obj
 0002:00003f40       __real_fffffffff8000000    000000018005df40     libucrt:pow.obj
 0002:00003f50       __mask_8000000000000000    000000018005df50     libucrt:pow.obj
 0002:00003f60       __real_4090040000000000    000000018005df60     libucrt:pow.obj
 0002:00003f70       __real_C090C80000000000    000000018005df70     libucrt:pow.obj
 0002:00003f80       __real_ninf                000000018005df80     libucrt:pow.obj
 0002:00003f90       __real_inf                 000000018005df90     libucrt:pow.obj
 0002:00003fa0       __real_nan                 000000018005dfa0     libucrt:pow.obj
 0002:00003fb0       __real_mant                000000018005dfb0     libucrt:pow.obj
 0002:00003fc0       __mask_1023                000000018005dfc0     libucrt:pow.obj
 0002:00003fd0       __mask_001                 000000018005dfd0     libucrt:pow.obj
 0002:00003fe0       __real_log2_lead           000000018005dfe0     libucrt:pow.obj
 0002:00003ff0       __real_log2_tail           000000018005dff0     libucrt:pow.obj
 0002:00004000       __real_two                 000000018005e000     libucrt:pow.obj
 0002:00004010       __real_one                 000000018005e010     libucrt:pow.obj
 0002:00004020       __real_half                000000018005e020     libucrt:pow.obj
 0002:00004030       __mask_100                 000000018005e030     libucrt:pow.obj
 0002:00004040       __real_1_over_2            000000018005e040     libucrt:pow.obj
 0002:00004050       __real_1_over_3            000000018005e050     libucrt:pow.obj
 0002:00004060       __real_1_over_4            000000018005e060     libucrt:pow.obj
 0002:00004070       __real_1_over_5            000000018005e070     libucrt:pow.obj
 0002:00004080       __real_1_over_6            000000018005e080     libucrt:pow.obj
 0002:00004090       __real_1_over_7            000000018005e090     libucrt:pow.obj
 0002:000040a0       __mask_1023_f              000000018005e0a0     libucrt:pow.obj
 0002:000040b0       __mask_2045                000000018005e0b0     libucrt:pow.obj
 0002:000040c0       __real_threshold           000000018005e0c0     libucrt:pow.obj
 0002:000040d0       __real_notsign             000000018005e0d0     libucrt:pow.obj
 0002:000040e0       __log_F_inv_head           000000018005e0e0     libucrt:pow.obj
 0002:000048f0       __log_F_inv_tail           000000018005e8f0     libucrt:pow.obj
 0002:00005100       __denormal_threshold       000000018005f100     libucrt:pow.obj
 0002:00005110       __enable_almost_inf        000000018005f110     libucrt:pow.obj
 0002:00005120       __real_zero                000000018005f120     libucrt:pow.obj
 0002:00005130       __real_smallest_denormal   000000018005f130     libucrt:pow.obj
 0002:00005140       __denormal_tiny_threshold  000000018005f140     libucrt:pow.obj
 0002:00005150       __real_p65536              000000018005f150     libucrt:pow.obj
 0002:00005160       __real_m68800              000000018005f160     libucrt:pow.obj
 0002:00005170       __real_64_by_log2          000000018005f170     libucrt:pow.obj
 0002:00005180       __real_log2_by_64_head     000000018005f180     libucrt:pow.obj
 0002:00005190       __real_log2_by_64_tail     000000018005f190     libucrt:pow.obj
 0002:000051a0       __real_1_by_720            000000018005f1a0     libucrt:pow.obj
 0002:000051b0       __real_1_by_120            000000018005f1b0     libucrt:pow.obj
 0002:000051c0       __real_1_by_24             000000018005f1c0     libucrt:pow.obj
 0002:000051d0       __real_1_by_6              000000018005f1d0     libucrt:pow.obj
 0002:000051e0       __real_1_by_2              000000018005f1e0     libucrt:pow.obj
 0002:000051f0       __flag_x_one_y_snan        000000018005f1f0     libucrt:powf.obj
 0002:000051f4       __flag_x_zero_z_inf        000000018005f1f4     libucrt:powf.obj
 0002:000051f8       __flag_x_nan               000000018005f1f8     libucrt:powf.obj
 0002:000051fc       __flag_y_nan               000000018005f1fc     libucrt:powf.obj
 0002:00005200       __flag_x_nan_y_nan         000000018005f200     libucrt:powf.obj
 0002:00005204       __flag_x_neg_y_notint      000000018005f204     libucrt:powf.obj
 0002:00005208       __flag_z_zero              000000018005f208     libucrt:powf.obj
 0002:0000520c       __flag_z_denormal          000000018005f20c     libucrt:powf.obj
 0002:00005210       __flag_z_inf               000000018005f210     libucrt:powf.obj
 0002:00005214       L__1_by_3                  000000018005f214     libucrt:powf.obj
 0002:0000521c       L__log2                    000000018005f21c     libucrt:powf.obj
 0002:00005224       L__max_exp_arg             000000018005f224     libucrt:powf.obj
 0002:0000522c       L__min_exp_arg             000000018005f22c     libucrt:powf.obj
 0002:00005234       L__real_log2_by_64         000000018005f234     libucrt:powf.obj
 0002:0000523c       L__1_by_6                  000000018005f23c     libucrt:powf.obj
 0002:00005244       L__real_threshold          000000018005f244     libucrt:powf.obj
 0002:0000524c       L__real_one                000000018005f24c     libucrt:powf.obj
 0002:00005254       L__real_two                000000018005f254     libucrt:powf.obj
 0002:0000525c       L__neg_zero                000000018005f25c     libucrt:powf.obj
 0002:00005270       L__real_ca42               000000018005f270     libucrt:powf.obj
 0002:00005278       L__real_ca4                000000018005f278     libucrt:powf.obj
 0002:00005280       L__real_ca31               000000018005f280     libucrt:powf.obj
 0002:00005288       L__real_ca3                000000018005f288     libucrt:powf.obj
 0002:00005290       L__clear_sign              000000018005f290     libucrt:powf.obj
 0002:000052a0       L__real_64_by_log2         000000018005f2a0     libucrt:powf.obj
 0002:000052b0       L__1_by_2                  000000018005f2b0     libucrt:powf.obj
 0002:000052c0       L__1023                    000000018005f2c0     libucrt:powf.obj
 0002:000052d0       L__xexp_bits_xmantissa_bits 000000018005f2d0     libucrt:powf.obj
 0002:00005af0       ?module_names@?A0x391cf84c@@3QBQEB_WB 000000018005faf0     libucrt:winapi_thunks.obj
 0002:00005ff8       ?candidate_modules@?1??try_get_AreFileApisANSI@@YAP6AHXZXZ@4QBW4module_id@?A0x391cf84c@@B 000000018005fff8     libucrt:winapi_thunks.obj
 0002:00006010       ?candidate_modules@?1??try_get_CompareStringEx@@YAP6AHPEB_WK0H0HPEAU_nlsversioninfo@@PEAX_J@ZXZ@4QBW4module_id@?A0x391cf84c@@B 0000000180060010     libucrt:winapi_thunks.obj
 0002:00006028       ?candidate_modules@?1??try_get_FlsAlloc@@YAP6AKP6AXPEAX@Z@ZXZ@4QBW4module_id@?A0x391cf84c@@B 0000000180060028     libucrt:winapi_thunks.obj
 0002:00006030       ?candidate_modules@?1??try_get_FlsFree@@YAP6AHK@ZXZ@4QBW4module_id@?A0x391cf84c@@B 0000000180060030     libucrt:winapi_thunks.obj
 0002:00006038       ?candidate_modules@?1??try_get_FlsGetValue@@YAP6APEAXK@ZXZ@4QBW4module_id@?A0x391cf84c@@B 0000000180060038     libucrt:winapi_thunks.obj
 0002:00006040       ?candidate_modules@?1??try_get_FlsSetValue@@YAP6AHKPEAX@ZXZ@4QBW4module_id@?A0x391cf84c@@B 0000000180060040     libucrt:winapi_thunks.obj
 0002:00006048       ?candidate_modules@?1??try_get_GetSystemTimePreciseAsFileTime@@YAP6AXPEAU_FILETIME@@@ZXZ@4QBW4module_id@?A0x391cf84c@@B 0000000180060048     libucrt:winapi_thunks.obj
 0002:00006070       ?candidate_modules@?1??try_get_InitializeCriticalSectionEx@@YAP6AHPEAU_RTL_CRITICAL_SECTION@@KK@ZXZ@4QBW4module_id@?A0x391cf84c@@B 0000000180060070     libucrt:winapi_thunks.obj
 0002:00006078       ?candidate_modules@?1??try_get_LCMapStringEx@@YAP6AHPEB_WK0HPEA_WHPEAU_nlsversioninfo@@PEAX_J@ZXZ@4QBW4module_id@?A0x391cf84c@@B 0000000180060078     libucrt:winapi_thunks.obj
 0002:00006090       ?candidate_modules@?1??try_get_LocaleNameToLCID@@YAP6AKPEB_WK@ZXZ@4QBW4module_id@?A0x391cf84c@@B 0000000180060090     libucrt:winapi_thunks.obj
 0002:000060ac       ?candidate_modules@?1??try_get_RoInitialize@@YAP6AJW4RO_INIT_TYPE@@@ZXZ@4QBW4module_id@?A0x391cf84c@@B 00000001800600ac     libucrt:winapi_thunks.obj
 0002:000060c0       ?candidate_modules@?1??try_get_RoUninitialize@@YAP6AXXZXZ@4QBW4module_id@?A0x391cf84c@@B 00000001800600c0     libucrt:winapi_thunks.obj
 0002:000060d8       ?candidate_modules@?1??try_get_AppPolicyGetProcessTerminationMethod@@YAP6AJPEAXPEAW4AppPolicyProcessTerminationMethod@@@ZXZ@4QBW4module_id@?A0x391cf84c@@B 00000001800600d8     libucrt:winapi_thunks.obj
 0002:00006108       ?candidate_modules@?1??try_get_AppPolicyGetThreadInitializationType@@YAP6AJPEAXPEAW4AppPolicyThreadInitializationType@@@ZXZ@4QBW4module_id@?A0x391cf84c@@B 0000000180060108     libucrt:winapi_thunks.obj
 0002:00006138       ?candidate_modules@?1??try_get_SystemFunction036@@YAP6AEPEAXK@ZXZ@4QBW4module_id@?A0x391cf84c@@B 0000000180060138     libucrt:winapi_thunks.obj
 0002:000061d0       ?strings@?1??fp_format_nan_or_infinity@@YAHW4__acrt_fp_class@@_NPEAD_K1@Z@4QAY03QEBDA 00000001800601d0     libucrt:cvt.obj
 0002:00006940       ?_mb_locale_names@@3QBQEB_WB 0000000180060940     libucrt:mbctype.obj
 0002:000087e0       ?LcidToLocaleNameTable@?A0x881e4c05@@3QBULcidToLocaleName@1@B 00000001800627e0     libucrt:lcidtoname_downlevel.obj
 0002:0000a240       ?LocaleNameToIndexTable@?A0x881e4c05@@3QBULocaleNameIndex@1@B 0000000180064240     libucrt:lcidtoname_downlevel.obj
 0002:0000bb00       __real@433fffffffffffff    0000000180065b00     libucrt:fpsr.obj
 0002:0000bb08       __real@c33fffffffffffff    0000000180065b08     libucrt:fpsr.obj
 0002:0000bb10       __real_ninf                0000000180065b10     libucrt:log10.obj
 0002:0000bb20       __real_inf                 0000000180065b20     libucrt:log10.obj
 0002:0000bb30       __real_neg_qnan            0000000180065b30     libucrt:log10.obj
 0002:0000bb40       __real_qnanbit             0000000180065b40     libucrt:log10.obj
 0002:0000bb50       __int_1023                 0000000180065b50     libucrt:log10.obj
 0002:0000bb60       __mask_001                 0000000180065b60     libucrt:log10.obj
 0002:0000bb70       __mask_mant                0000000180065b70     libucrt:log10.obj
 0002:0000bb80       __mask_mant_top8           0000000180065b80     libucrt:log10.obj
 0002:0000bb90       __mask_mant9               0000000180065b90     libucrt:log10.obj
 0002:0000bba0       __real_log10_e             0000000180065ba0     libucrt:log10.obj
 0002:0000bbb0       __real_log10_e_lead        0000000180065bb0     libucrt:log10.obj
 0002:0000bbc0       __real_log10_e_tail        0000000180065bc0     libucrt:log10.obj
 0002:0000bbd0       __real_log10_2_lead        0000000180065bd0     libucrt:log10.obj
 0002:0000bbe0       __real_log10_2_tail        0000000180065be0     libucrt:log10.obj
 0002:0000bbf0       __real_two                 0000000180065bf0     libucrt:log10.obj
 0002:0000bc00       __real_one                 0000000180065c00     libucrt:log10.obj
 0002:0000bc10       __real_half                0000000180065c10     libucrt:log10.obj
 0002:0000bc20       __mask_100                 0000000180065c20     libucrt:log10.obj
 0002:0000bc30       __real_1_over_512          0000000180065c30     libucrt:log10.obj
 0002:0000bc40       __real_1_over_2            0000000180065c40     libucrt:log10.obj
 0002:0000bc50       __real_1_over_3            0000000180065c50     libucrt:log10.obj
 0002:0000bc60       __real_1_over_4            0000000180065c60     libucrt:log10.obj
 0002:0000bc70       __real_1_over_5            0000000180065c70     libucrt:log10.obj
 0002:0000bc80       __real_1_over_6            0000000180065c80     libucrt:log10.obj
 0002:0000bc90       __real_neg_1023            0000000180065c90     libucrt:log10.obj
 0002:0000bca0       __mask_2045                0000000180065ca0     libucrt:log10.obj
 0002:0000bcb0       __real_threshold           0000000180065cb0     libucrt:log10.obj
 0002:0000bcc0       __real_near_one_lt         0000000180065cc0     libucrt:log10.obj
 0002:0000bcd0       __real_near_one_gt         0000000180065cd0     libucrt:log10.obj
 0002:0000bce0       __real_min_norm            0000000180065ce0     libucrt:log10.obj
 0002:0000bcf0       __real_notsign             0000000180065cf0     libucrt:log10.obj
 0002:0000bd00       __real_ca1                 0000000180065d00     libucrt:log10.obj
 0002:0000bd10       __real_ca2                 0000000180065d10     libucrt:log10.obj
 0002:0000bd20       __real_ca3                 0000000180065d20     libucrt:log10.obj
 0002:0000bd30       __real_ca4                 0000000180065d30     libucrt:log10.obj
 0002:0000bd40       __mask_lower               0000000180065d40     libucrt:log10.obj
 0002:0000bd50       __flag_x_zero              0000000180065d50     libucrt:log10.obj
 0002:0000bd54       __flag_x_neg               0000000180065d54     libucrt:log10.obj
 0002:0000bd58       __flag_x_nan               0000000180065d58     libucrt:log10.obj
 0002:0000df20       padding                    0000000180067f20     blake256.obj
 0002:0000e080       ?sigma@@3QBDB              0000000180068080     chacha8.obj
 0002:0000e091       ?_Fake_alloc@std@@3U_Fake_allocator@1@B 0000000180068091     chacha8.obj
 0002:0000e092       ?_Fake_alloc@std@@3U_Fake_allocator@1@B 0000000180068092     crypto.obj
 0002:0000e093       ?_Fake_alloc@std@@3U_Fake_allocator@1@B 0000000180068093     multisig.obj
 0002:0000e094       ?_Fake_alloc@std@@3U_Fake_allocator@1@B 0000000180068094     random.obj
 0002:0000e095       ?_Fake_alloc@std@@3U_Fake_allocator@1@B 0000000180068095     StringTools.obj
 0002:0000e096       ?_Fake_alloc@std@@3U_Fake_allocator@1@B 0000000180068096     turtlecoin-crypto.obj
 0002:0000e097       ?_Fake_alloc@std@@3U_Fake_allocator@1@B 0000000180068097     turtlecoin-crypto-node.obj
 0002:00016e80       oaes_gf_mul_b              0000000180070e80     oaes_lib.obj
 0002:00016f80       oaes_inv_sub_byte_value    0000000180070f80     oaes_lib.obj
 0002:00017080       oaes_gf_8                  0000000180071080     oaes_lib.obj
 0002:00017090       oaes_sub_byte_value        0000000180071090     oaes_lib.obj
 0002:00017190       oaes_gf_mul_2              0000000180071190     oaes_lib.obj
 0002:00017290       oaes_gf_mul_3              0000000180071290     oaes_lib.obj
 0002:00017390       oaes_gf_mul_d              0000000180071390     oaes_lib.obj
 0002:00017490       oaes_gf_mul_9              0000000180071490     oaes_lib.obj
 0002:00017590       oaes_gf_mul_e              0000000180071590     oaes_lib.obj
 0002:00017910       ?table@?O@??cn_slow_hash@@9@9 0000000180071910     slow-hash-portable.obj
 0002:00017918       ?extra_hashes@?1??cn_slow_hash@@9@9 0000000180071918     slow-hash-portable.obj
 0002:00017940       ?characterValues@?A0xae4673ac@Common@@3QBEB 0000000180071940     StringTools.obj
 0002:00017a40       blake2b_IV                 0000000180071a40     blake2.obj
 0002:00017a80       blake2b_sigma              0000000180071a80     blake2.obj
 0002:00017d80       ?distribution@Random@@3V?$uniform_int_distribution@H@std@@A 0000000180071d80     chacha8.obj
 0002:00017d88       ?distribution@Random@@3V?$uniform_int_distribution@H@std@@A 0000000180071d88     random.obj
 0002:00017d90       ?distribution@@3V?$uniform_int_distribution@H@std@@A 0000000180071d90     random.obj
 0002:00019140       ?gen@Random@@3V?$mersenne_twister_engine@I$0CA@$0CHA@$0BIN@$0BP@$0JJAILANP@$0L@$0PPPPPPPP@$06$0JNCMFGIA@$0P@$0OPMGAAAA@$0BC@$0GMAHIJGF@@std@@A 0000000180073140     crypto.obj
 0002:0001a4d0       ?gen@Random@@3V?$mersenne_twister_engine@I$0CA@$0CHA@$0BIN@$0BP@$0JJAILANP@$0L@$0PPPPPPPP@$06$0JNCMFGIA@$0P@$0OPMGAAAA@$0BC@$0GMAHIJGF@@std@@A 00000001800744d0     random.obj
 0002:0001b860       ?gen@Random@@3V?$mersenne_twister_engine@I$0CA@$0CHA@$0BIN@$0BP@$0JJAILANP@$0L@$0PPPPPPPP@$06$0JNCMFGIA@$0P@$0OPMGAAAA@$0BC@$0GMAHIJGF@@std@@A 0000000180075860     chacha8.obj
 0002:0001cbf0       $unwind$aesb_pseudo_round  0000000180076bf0     aesb.obj
 0002:0001cc0c       $unwind$blake256_compress  0000000180076c0c     blake256.obj
 0002:0001cc34       $unwind$blake256_update    0000000180076c34     blake256.obj
 0002:0001cc44       $chain$0$blake256_update   0000000180076c44     blake256.obj
 0002:0001cc58       $chain$1$blake256_update   0000000180076c58     blake256.obj
 0002:0001cc6c       $chain$2$blake256_update   0000000180076c6c     blake256.obj
 0002:0001cc7c       $chain$3$blake256_update   0000000180076c7c     blake256.obj
 0002:0001cc8c       $unwind$blake256_final_h   0000000180076c8c     blake256.obj
 0002:0001cca4       $unwind$?_Xlen_string@std@@YAXXZ 0000000180076ca4     StringTools.obj
 0002:0001cca4       $unwind$??__Egen@Random@@YAXXZ 0000000180076ca4     chacha8.obj
 0002:0001cca4       $unwind$??__Egen@Random@@YAXXZ 0000000180076ca4     crypto.obj
 0002:0001cca4       $unwind$?_Xlength@?$vector@USignature@Crypto@@V?$allocator@USignature@Crypto@@@std@@@std@@CAXXZ 0000000180076ca4     crypto.obj
 0002:0001cca4       $unwind$?_Throw_tree_length_error@std@@YAXXZ 0000000180076ca4     multisig.obj
 0002:0001cca4       $unwind$?_Xlength@?$vector@UKeyImage@Crypto@@V?$allocator@UKeyImage@Crypto@@@std@@@std@@CAXXZ 0000000180076ca4     multisig.obj
 0002:0001cca4       $unwind$?_Xlength@?$vector@UPublicKey@Crypto@@V?$allocator@UPublicKey@Crypto@@@std@@@std@@CAXXZ 0000000180076ca4     multisig.obj
 0002:0001cca4       $unwind$?_Xlength@?$vector@USecretKey@Crypto@@V?$allocator@USecretKey@Crypto@@@std@@@std@@CAXXZ 0000000180076ca4     multisig.obj
 0002:0001cca4       $unwind$?_Xrange@?$vector@UKeyImage@Crypto@@V?$allocator@UKeyImage@Crypto@@@std@@@std@@CAXXZ 0000000180076ca4     multisig.obj
 0002:0001cca4       $unwind$?_Xrange@?$vector@UPublicKey@Crypto@@V?$allocator@UPublicKey@Crypto@@@std@@@std@@CAXXZ 0000000180076ca4     multisig.obj
 0002:0001cca4       $unwind$?_Xrange@?$vector@USecretKey@Crypto@@V?$allocator@USecretKey@Crypto@@@std@@@std@@CAXXZ 0000000180076ca4     multisig.obj
 0002:0001cca4       $unwind$??__Egen@@YAXXZ    0000000180076ca4     random.obj
 0002:0001cca4       $unwind$??__Egen@Random@@YAXXZ 0000000180076ca4     random.obj
 0002:0001cca4       $unwind$?_Xlength@?$vector@UHash@Crypto@@V?$allocator@UHash@Crypto@@@std@@@std@@CAXXZ 0000000180076ca4     turtlecoin-crypto.obj
 0002:0001cca4       $unwind$?_Xlength@?$vector@V?$basic_string@DU?$char_traits@D@std@@V?$allocator@D@2@@std@@V?$allocator@V?$basic_string@DU?$char_traits@D@std@@V?$allocator@D@2@@std@@@2@@std@@CAXXZ 0000000180076ca4     turtlecoin-crypto.obj
 0002:0001cca4       $unwind$?load_exe_hook@@YAP6A_JXZIPEAUDelayLoadInfo@@@Z 0000000180076ca4     win_delay_load_hook.obj
 0002:0001cca4       $unwind$?DloadReleaseSectionWriteAccess@@YAXXZ 0000000180076ca4     DelayImp:delayhlp.obj
 0002:0001cca4       $unwind$__scrt_initialize_default_local_stdio_options 0000000180076ca4     LIBCMT:default_local_stdio_options.obj
 0002:0001cca4       $unwind$?dllmain_crt_dispatch@@YAHQEAUHINSTANCE__@@KQEAX@Z 0000000180076ca4     LIBCMT:dll_dllmain.obj
 0002:0001cca4       $unwind$__report_rangecheckfailure 0000000180076ca4     LIBCMT:gs_report.obj
 0002:0001cca4       $unwind$__GSHandlerCheck   0000000180076ca4     LIBCMT:gshandler.obj
 0002:0001cca4       $unwind$__scrt_acquire_startup_lock 0000000180076ca4     LIBCMT:utility.obj
 0002:0001cca4       $unwind$__scrt_dllmain_after_initialize_c 0000000180076ca4     LIBCMT:utility.obj
 0002:0001cca4       $unwind$__scrt_dllmain_before_initialize_c 0000000180076ca4     LIBCMT:utility.obj
 0002:0001cca4       $unwind$__scrt_dllmain_crt_thread_attach 0000000180076ca4     LIBCMT:utility.obj
 0002:0001cca4       $unwind$__scrt_dllmain_crt_thread_detach 0000000180076ca4     LIBCMT:utility.obj
 0002:0001cca4       $unwind$__scrt_dllmain_uninitialize_c 0000000180076ca4     LIBCMT:utility.obj
 0002:0001cca4       $unwind$__scrt_dllmain_uninitialize_critical 0000000180076ca4     LIBCMT:utility.obj
 0002:0001cca4       $unwind$atexit             0000000180076ca4     LIBCMT:utility.obj
 0002:0001cca4       $unwind$??__Einitlocks@std@@YAXXZ 0000000180076ca4     libcpmt:iosptrs.obj
 0002:0001cca4       $unwind$??__Fclassic_locale@std@@YAXXZ 0000000180076ca4     libcpmt:locale0.obj
 0002:0001cca4       $unwind$??__Einitlocks@std@@YAXXZ 0000000180076ca4     libcpmt:xlock.obj
 0002:0001cca4       $unwind$?_Random_device@std@@YAIXZ 0000000180076ca4     libcpmt:xrngdev.obj
 0002:0001cca4       $unwind$__std_terminate    0000000180076ca4     libvcruntime:ehhelpers.obj
 0002:0001cca4       $unwind$__vcrt_initialize  0000000180076ca4     libvcruntime:initialization.obj
 0002:0001cca4       $unwind$__vcrt_thread_attach 0000000180076ca4     libvcruntime:initialization.obj
 0002:0001cca4       $unwind$__vcrt_thread_detach 0000000180076ca4     libvcruntime:initialization.obj
 0002:0001cca4       $unwind$__vcrt_uninitialize 0000000180076ca4     libvcruntime:initialization.obj
 0002:0001cca4       $unwind$__vcrt_uninitialize_critical 0000000180076ca4     libvcruntime:initialization.obj
 0002:0001cca4       $unwind$__vcrt_initialize_locks 0000000180076ca4     libvcruntime:locks.obj
 0002:0001cca4       $unwind$__vcrt_freefls     0000000180076ca4     libvcruntime:per_thread_data.obj
 0002:0001cca4       $unwind$__vcrt_getptd      0000000180076ca4     libvcruntime:per_thread_data.obj
 0002:0001cca4       $unwind$__vcrt_initialize_ptd 0000000180076ca4     libvcruntime:per_thread_data.obj
 0002:0001cca4       $unwind$__vcrt_uninitialize_ptd 0000000180076ca4     libvcruntime:per_thread_data.obj
 0002:0001cca4       $unwind$?FrameUnwindToEmptyState@__FrameHandler4@@SAXPEA_KPEAU_xDISPATCHER_CONTEXT@@PEAUFuncInfo4@FH4@@@Z 0000000180076ca4     libvcruntime:risctrnsctrl.obj
 0002:0001cca4       $unwind$_GetImageBase      0000000180076ca4     libvcruntime:risctrnsctrl.obj
 0002:0001cca4       $unwind$_GetThrowImageBase 0000000180076ca4     libvcruntime:risctrnsctrl.obj
 0002:0001cca4       $unwind$__dcrt_terminate_console_output 0000000180076ca4     libucrt:initcon.obj
 0002:0001cca4       $unwind$??$uninitialize_environment_internal@D@@YAXAEAPEAPEAD@Z 0000000180076ca4     libucrt:environment_initialization.obj
 0002:0001cca4       $unwind$??$uninitialize_environment_internal@_W@@YAXAEAPEAPEA_W@Z 0000000180076ca4     libucrt:environment_initialization.obj
 0002:0001cca4       $unwind$__dcrt_get_or_create_wide_environment_nolock 0000000180076ca4     libucrt:environment_initialization.obj
 0002:0001cca4       $unwind$__dcrt_uninitialize_environments_nolock 0000000180076ca4     libucrt:environment_initialization.obj
 0002:0001cca4       $unwind$?__c32rtomb_utf8@__crt_mbstring@@YA_KPEAD_UPEAU_Mbstatet@@@Z 0000000180076ca4     libucrt:c32rtomb.obj
 0002:0001cca4       $unwind$__acrt_initialize_heap 0000000180076ca4     libucrt:heap_handle.obj
 0002:0001cca4       $unwind$_msize_base        0000000180076ca4     libucrt:msize.obj
 0002:0001cca4       $unwind$?initialize_multibyte@@YAHXZ 0000000180076ca4     libucrt:multibyte_initializer.obj
 0002:0001cca4       $unwind$__acrt_thread_attach 0000000180076ca4     libucrt:initialization.obj
 0002:0001cca4       $unwind$__acrt_thread_detach 0000000180076ca4     libucrt:initialization.obj
 0002:0001cca4       $unwind$__acrt_uninitialize 0000000180076ca4     libucrt:initialization.obj
 0002:0001cca4       $unwind$__acrt_uninitialize_critical 0000000180076ca4     libucrt:initialization.obj
 0002:0001cca4       $unwind$initialize_c       0000000180076ca4     libucrt:initialization.obj
 0002:0001cca4       $unwind$uninitialize_allocated_io_buffers 0000000180076ca4     libucrt:initialization.obj
 0002:0001cca4       $unwind$uninitialize_environment 0000000180076ca4     libucrt:initialization.obj
 0002:0001cca4       $unwind$__acrt_initialize_ptd 0000000180076ca4     libucrt:per_thread_data.obj
 0002:0001cca4       $unwind$__acrt_uninitialize_ptd 0000000180076ca4     libucrt:per_thread_data.obj
 0002:0001cca4       $unwind$__acrt_AreFileApisANSI 0000000180076ca4     libucrt:winapi_thunks.obj
 0002:0001cca4       $unwind$__acrt_RoUninitialize 0000000180076ca4     libucrt:winapi_thunks.obj
 0002:0001cca4       $unwind$__pctype_func      0000000180076ca4     libucrt:ctype.obj
 0002:0001cca4       $unwind$___lc_codepage_func 0000000180076ca4     libucrt:initctype.obj
 0002:0001cca4       $unwind$__acrt_release_locale_ref 0000000180076ca4     libucrt:locale_refcounting.obj
 0002:0001cca4       $unwind$_isatty            0000000180076ca4     libucrt:isatty.obj
 0002:0001cca4       $unwind$_get_osfhandle     0000000180076ca4     libucrt:osfinfo.obj
 0002:0001cca4       $unwind$__acrt_initialize_multibyte 0000000180076ca4     libucrt:mbctype.obj
 0002:0001cca4       $unwind$__acrt_update_thread_multibyte_data 0000000180076ca4     libucrt:mbctype.obj
 0002:0001cca4       $unwind$__doserrno         0000000180076ca4     libucrt:errno.obj
 0002:0001cca4       $unwind$_errno             0000000180076ca4     libucrt:errno.obj
 0002:0001cca4       $unwind$_invoke_watson     0000000180076ca4     libucrt:invalid_parameter.obj
 0002:0001cca4       $unwind$abort              0000000180076ca4     libucrt:abort.obj
 0002:0001cca4       $unwind$__acrt_initialize_command_line 0000000180076ca4     libucrt:argv_data.obj
 0002:0001cca4       $unwind$_endthreadex       0000000180076ca4     libucrt:thread.obj
 0002:0001cca4       $unwind$_fileno            0000000180076ca4     libucrt:fileno.obj
 0002:0001cca4       $unwind$?state_case_size@?$output_processor@DV?$stream_output_adapter@D@__crt_stdio_output@@V?$standard_base@DV?$stream_output_adapter@D@__crt_stdio_output@@@2@@__crt_stdio_output@@AEAA_NXZ 0000000180076ca4     libucrt:output.obj
 0002:0001cca4       $unwind$?validate_stream_is_ansi_if_required@?$__acrt_stdio_char_traits@D@@SA_NQEAU_iobuf@@@Z 0000000180076ca4     libucrt:output.obj
 0002:0001cca4       $unwind$rand               0000000180076ca4     libucrt:rand.obj
 0002:0001cca4       $unwind$rand_s             0000000180076ca4     libucrt:rand_s.obj
 0002:0001cca4       $unwind$_stricmp           0000000180076ca4     libucrt:stricmp.obj
 0002:0001cca4       $unwind$_wcsnicoll         0000000180076ca4     libucrt:wcsnicol.obj
 0002:0001cca4       $unwind$__acrt_initialize_clock 0000000180076ca4     libucrt:clock.obj
 0002:0001cca4       $unwind$_get_daylight      0000000180076ca4     libucrt:timeset.obj
 0002:0001cca4       $unwind$_get_dstbias       0000000180076ca4     libucrt:timeset.obj
 0002:0001cca4       $unwind$_get_timezone      0000000180076ca4     libucrt:timeset.obj
 0002:0001cca4       $unwind$_statfp            0000000180076ca4     libucrt:fpctrl.obj
 0002:0001cca4       $unwind$fegetround         0000000180076ca4     libucrt:fegetround.obj
 0002:0001cca4       $unwind$_set_errno_from_matherr 0000000180076ca4     libucrt:fpexcept.obj
 0002:0001ccac       $unwind$?_Raise@exception@stdext@@QEBAXXZ 0000000180076cac     crypto.obj
 0002:0001ccac       $unwind$oaes_key_expand    0000000180076cac     oaes_lib.obj
 0002:0001ccac       $unwind$??0length_error@std@@QEAA@PEBD@Z 0000000180076cac     libcpmt:xthrow.obj
 0002:0001ccac       $unwind$??0out_of_range@std@@QEAA@PEBD@Z 0000000180076cac     libcpmt:xthrow.obj
 0002:0001ccac       $unwind$?__mbrtowc_utf8@__crt_mbstring@@YA_KPEA_WPEBD_KPEAU_Mbstatet@@@Z 0000000180076cac     libucrt:mbrtowc.obj
 0002:0001ccac       $unwind$?type_case_c_tchar@?$output_processor@DV?$stream_output_adapter@D@__crt_stdio_output@@V?$standard_base@DV?$stream_output_adapter@D@__crt_stdio_output@@@2@@__crt_stdio_output@@AEAA_ND@Z 0000000180076cac     libucrt:output.obj
 0002:0001ccb4       $unwind$??1?$basic_string@DU?$char_traits@D@std@@V?$allocator@D@2@@std@@QEAA@XZ 0000000180076cb4     StringTools.obj
 0002:0001ccb4       $unwind$??_Gruntime_error@std@@UEAAPEAXI@Z 0000000180076cb4     StringTools.obj
 0002:0001ccb4       $unwind$??1?$vector@EV?$allocator@E@std@@@std@@QEAA@XZ 0000000180076cb4     crypto.obj
 0002:0001ccb4       $unwind$??1?$vector@UPublicKey@Crypto@@V?$allocator@UPublicKey@Crypto@@@std@@@std@@QEAA@XZ 0000000180076cb4     crypto.obj
 0002:0001ccb4       $unwind$??1?$vector@USignature@Crypto@@V?$allocator@USignature@Crypto@@@std@@@std@@QEAA@XZ 0000000180076cb4     crypto.obj
 0002:0001ccb4       $unwind$??_Gbad_array_new_length@stdext@@UEAAPEAXI@Z 0000000180076cb4     crypto.obj
 0002:0001ccb4       $unwind$??_Gexception@stdext@@UEAAPEAXI@Z 0000000180076cb4     crypto.obj
 0002:0001ccb4       $unwind$F8                 0000000180076cb4     jh.obj
 0002:0001ccb4       $unwind$??1?$vector@UKeyImage@Crypto@@V?$allocator@UKeyImage@Crypto@@@std@@@std@@QEAA@XZ 0000000180076cb4     multisig.obj
 0002:0001ccb4       $unwind$??1?$vector@USecretKey@Crypto@@V?$allocator@USecretKey@Crypto@@@std@@@std@@QEAA@XZ 0000000180076cb4     multisig.obj
 0002:0001ccb4       $unwind$oaes_key_destroy   0000000180076cb4     oaes_lib.obj
 0002:0001ccb4       $unwind$??1?$vector@UHash@Crypto@@V?$allocator@UHash@Crypto@@@std@@@std@@QEAA@XZ 0000000180076cb4     turtlecoin-crypto.obj
 0002:0001ccb4       $unwind$?_Tidy@?$vector@V?$basic_string@DU?$char_traits@D@std@@V?$allocator@D@2@@std@@V?$allocator@V?$basic_string@DU?$char_traits@D@std@@V?$allocator@D@2@@std@@@2@@std@@AEAAXXZ 0000000180076cb4     turtlecoin-crypto.obj
 0002:0001ccb4       $unwind$?DloadAcquireSectionWriteAccess@@YAXXZ 0000000180076cb4     DelayImp:delayhlp.obj
 0002:0001ccb4       $unwind$__raise_securityfailure 0000000180076cb4     LIBCMT:gs_report.obj
 0002:0001ccb4       $unwind$??2@YAPEAX_K@Z     0000000180076cb4     LIBCMT:new_scalar.obj
 0002:0001ccb4       $unwind$??_Gtype_info@@UEAAPEAXI@Z 0000000180076cb4     LIBCMT:std_type_info_static.obj
 0002:0001ccb4       $unwind$??0bad_alloc@std@@QEAA@AEBV01@@Z 0000000180076cb4     LIBCMT:throw_bad_alloc.obj
 0002:0001ccb4       $unwind$??0bad_array_new_length@std@@QEAA@AEBV01@@Z 0000000180076cb4     LIBCMT:throw_bad_alloc.obj
 0002:0001ccb4       $unwind$??0exception@std@@QEAA@AEBV01@@Z 0000000180076cb4     LIBCMT:throw_bad_alloc.obj
 0002:0001ccb4       $unwind$__scrt_initialize_crt 0000000180076cb4     LIBCMT:utility.obj
 0002:0001ccb4       $unwind$__scrt_initialize_onexit_tables 0000000180076cb4     LIBCMT:utility.obj
 0002:0001ccb4       $unwind$__scrt_release_startup_lock 0000000180076cb4     LIBCMT:utility.obj
 0002:0001ccb4       $unwind$__scrt_uninitialize_crt 0000000180076cb4     LIBCMT:utility.obj
 0002:0001ccb4       $unwind$_onexit            0000000180076cb4     LIBCMT:utility.obj
 0002:0001ccb4       $unwind$??__F_Fac_tidy_reg@std@@YAXXZ 0000000180076cb4     libcpmt:locale0.obj
 0002:0001ccb4       $unwind$??1_Init_locks@std@@QEAA@XZ 0000000180076cb4     libcpmt:xlock.obj
 0002:0001ccb4       $unwind$??0length_error@std@@QEAA@AEBV01@@Z 0000000180076cb4     libcpmt:xthrow.obj
 0002:0001ccb4       $unwind$??0logic_error@std@@QEAA@AEBV01@@Z 0000000180076cb4     libcpmt:xthrow.obj
 0002:0001ccb4       $unwind$??0out_of_range@std@@QEAA@AEBV01@@Z 0000000180076cb4     libcpmt:xthrow.obj
 0002:0001ccb4       $unwind$_IsExceptionObjectToBeDestroyed 0000000180076cb4     libvcruntime:ehhelpers.obj
 0002:0001ccb4       $unwind$??0HandlerMap4@FH4@@QEAA@PEBUTryBlockMapEntry4@1@_KH@Z 0000000180076cb4     libvcruntime:frame.obj
 0002:0001ccb4       $unwind$??0bad_exception@std@@QEAA@AEBV01@@Z 0000000180076cb4     libvcruntime:frame.obj
 0002:0001ccb4       $unwind$?ExFilterRethrow@@YAHPEAU_EXCEPTION_POINTERS@@PEAUEHExceptionRecord@@PEAH@Z 0000000180076cb4     libvcruntime:frame.obj
 0002:0001ccb4       $unwind$__vcrt_uninitialize_locks 0000000180076cb4     libvcruntime:locks.obj
 0002:0001ccb4       $unwind$__vcrt_freeptd     0000000180076cb4     libvcruntime:per_thread_data.obj
 0002:0001ccb4       $unwind$_CreateFrameInfo   0000000180076cb4     libvcruntime:risctrnsctrl.obj
 0002:0001ccb4       $unwind$_SetImageBase      0000000180076cb4     libvcruntime:risctrnsctrl.obj
 0002:0001ccb4       $unwind$_SetThrowImageBase 0000000180076cb4     libvcruntime:risctrnsctrl.obj
 0002:0001ccb4       $unwind$__std_exception_destroy 0000000180076cb4     libvcruntime:std_exception.obj
 0002:0001ccb4       $unwind$__std_type_info_destroy_list 0000000180076cb4     libvcruntime:std_type_info.obj
 0002:0001ccb4       $unwind$__vcrt_FlsAlloc    0000000180076cb4     libvcruntime:winapi_downlevel.obj
 0002:0001ccb4       $unwind$__vcrt_FlsFree     0000000180076cb4     libvcruntime:winapi_downlevel.obj
 0002:0001ccb4       $unwind$__vcrt_FlsGetValue 0000000180076cb4     libvcruntime:winapi_downlevel.obj
 0002:0001ccb4       $unwind$_calloc_base       0000000180076cb4     libucrt:calloc_base.obj
 0002:0001ccb4       $unwind$_malloc_base       0000000180076cb4     libucrt:malloc_base.obj
 0002:0001ccb4       $unwind$_callnewh          0000000180076cb4     libucrt:new_handler.obj
 0002:0001ccb4       $unwind$initialize_pointers 0000000180076cb4     libucrt:initialization.obj
 0002:0001ccb4       $unwind$uninitialize_allocated_memory 0000000180076cb4     libucrt:initialization.obj
 0002:0001ccb4       $unwind$__acrt_initialize_locks 0000000180076cb4     libucrt:locks.obj
 0002:0001ccb4       $unwind$__acrt_uninitialize_locks 0000000180076cb4     libucrt:locks.obj
 0002:0001ccb4       $unwind$__acrt_freeptd     0000000180076cb4     libucrt:per_thread_data.obj
 0002:0001ccb4       $unwind$__acrt_getptd_head 0000000180076cb4     libucrt:per_thread_data.obj
 0002:0001ccb4       $unwind$__acrt_get_begin_thread_init_policy 0000000180076cb4     libucrt:win_policies.obj
 0002:0001ccb4       $unwind$__acrt_get_process_end_policy 0000000180076cb4     libucrt:win_policies.obj
 0002:0001ccb4       $unwind$__acrt_AppPolicyGetProcessTerminationMethodInternal 0000000180076cb4     libucrt:winapi_thunks.obj
 0002:0001ccb4       $unwind$__acrt_AppPolicyGetThreadInitializationTypeInternal 0000000180076cb4     libucrt:winapi_thunks.obj
 0002:0001ccb4       $unwind$__acrt_FlsAlloc    0000000180076cb4     libucrt:winapi_thunks.obj
 0002:0001ccb4       $unwind$__acrt_FlsFree     0000000180076cb4     libucrt:winapi_thunks.obj
 0002:0001ccb4       $unwind$__acrt_FlsGetValue 0000000180076cb4     libucrt:winapi_thunks.obj
 0002:0001ccb4       $unwind$__acrt_GetSystemTimePreciseAsFileTime 0000000180076cb4     libucrt:winapi_thunks.obj
 0002:0001ccb4       $unwind$__acrt_RoInitialize 0000000180076cb4     libucrt:winapi_thunks.obj
 0002:0001ccb4       $unwind$__acrt_uninitialize_winapi_thunks 0000000180076cb4     libucrt:winapi_thunks.obj
 0002:0001ccb4       $unwind$__acrt_update_locale_info 0000000180076cb4     libucrt:locale_update.obj
 0002:0001ccb4       $unwind$__acrt_update_multibyte_info 0000000180076cb4     libucrt:locale_update.obj
 0002:0001ccb4       $unwind$__acrt_allocate_buffer_for_argv 0000000180076cb4     libucrt:argv_parsing.obj
 0002:0001ccb4       $unwind$?exit_or_terminate_process@@YAXI@Z 0000000180076cb4     libucrt:exit.obj
 0002:0001ccb4       $unwind$?try_cor_exit_process@@YAXI@Z 0000000180076cb4     libucrt:exit.obj
 0002:0001ccb4       $unwind$__acrt_uninitialize_stdio 0000000180076cb4     libucrt:_file.obj
 0002:0001ccb4       $unwind$?stream_is_at_end_of_file_nolock@@YA_NV__crt_stdio_stream@@@Z 0000000180076cb4     libucrt:_flsbuf.obj
 0002:0001ccb4       $unwind$__acrt_stdio_free_buffer_nolock 0000000180076cb4     libucrt:_freebuf.obj
 0002:0001ccb4       $unwind$__acrt_should_use_temporary_buffer 0000000180076cb4     libucrt:_sftbuf.obj
 0002:0001ccb4       $unwind$_fflush_nolock     0000000180076cb4     libucrt:fflush.obj
 0002:0001ccb4       $unwind$?state_case_normal@?$output_processor@DV?$stream_output_adapter@D@__crt_stdio_output@@V?$standard_base@DV?$stream_output_adapter@D@__crt_stdio_output@@@2@@__crt_stdio_output@@AEAA_NXZ 0000000180076cb4     libucrt:output.obj
 0002:0001ccb4       $unwind$?state_case_normal_tchar@?$output_processor@DV?$stream_output_adapter@D@__crt_stdio_output@@V?$standard_base@DV?$stream_output_adapter@D@__crt_stdio_output@@@2@@__crt_stdio_output@@AEAA_ND@Z 0000000180076cb4     libucrt:output.obj
 0002:0001ccb4       $unwind$?type_case_s@?$output_processor@DV?$stream_output_adapter@D@__crt_stdio_output@@V?$standard_base@DV?$stream_output_adapter@D@__crt_stdio_output@@@2@@__crt_stdio_output@@AEAA_NXZ 0000000180076cb4     libucrt:output.obj
 0002:0001ccb4       $unwind$srand              0000000180076cb4     libucrt:rand.obj
 0002:0001ccb4       $unwind$strcpy_s           0000000180076cb4     libucrt:strcpy_s.obj
 0002:0001ccb4       $unwind$wcscpy_s           0000000180076cb4     libucrt:wcscpy_s.obj
 0002:0001ccb4       $unwind$__getgmtimebuf     0000000180076cb4     libucrt:gmtime.obj
 0002:0001ccb4       $unwind$_clrfp             0000000180076cb4     libucrt:fpctrl.obj
 0002:0001ccb4       $unwind$_set_statfp        0000000180076cb4     libucrt:fpctrl.obj
 0002:0001ccb4       $unwind$_clearfp           0000000180076cb4     libucrt:ieee.obj
 0002:0001ccb4       $unwind$_controlfp_s       0000000180076cb4     libucrt:contrlfp.obj
 0002:0001ccb4       $unwind$fegetenv           0000000180076cb4     libucrt:fegetenv.obj
 0002:0001ccb4       $unwind$feholdexcept       0000000180076cb4     libucrt:feholdexcept.obj
 0002:0001ccb4       $unwind$fesetenv           0000000180076cb4     libucrt:fesetenv.obj
 0002:0001ccbc       $unwind$fill_segment_default 0000000180076cbc     argon2-arch.obj
 0002:0001ccbc       $unwind$fill_segment_thr   0000000180076cbc     core.obj
 0002:0001ccbc       $unwind$?_Doraise@bad_alloc@stdext@@MEBAXXZ 0000000180076cbc     crypto.obj
 0002:0001ccbc       $unwind$strtol             0000000180076cbc     libucrt:strtox.obj
 0002:0001ccbc       $unwind$wcstol             0000000180076cbc     libucrt:strtox.obj
 0002:0001ccbc       $unwind$_invalid_parameter_noinfo 0000000180076cbc     libucrt:invalid_parameter.obj
 0002:0001ccbc       $unwind$_invalid_parameter_noinfo_noreturn 0000000180076cbc     libucrt:invalid_parameter.obj
 0002:0001ccbc       $unwind$_log10_special     0000000180076cbc     libucrt:log_special.obj
 0002:0001ccc4       $unwind$?_Throw_bad_array_new_length@std@@YAXXZ 0000000180076cc4     crypto.obj
 0002:0001ccd4       $cppxdata$?_Throw_bad_array_new_length@std@@YAXXZ 0000000180076cd4     crypto.obj
 0002:0001ccdd       $stateUnwindMap$?_Throw_bad_array_new_length@std@@YAXXZ 0000000180076cdd     crypto.obj
 0002:0001cce4       $ip2state$?_Throw_bad_array_new_length@std@@YAXXZ 0000000180076ce4     crypto.obj
 0002:0001cce8       $unwind$?random_scalar@Crypto@@YAXAEAUEllipticCurveScalar@1@@Z 0000000180076ce8     crypto.obj
 0002:0001cd04       $unwind$?hash_to_ec@Crypto@@YAXAEBUPublicKey@1@AEAUge_p3@1@@Z 0000000180076d04     crypto.obj
 0002:0001cd1c       $unwind$?prepareRingSignatures@crypto_ops@Crypto@@SA_NUHash@2@UKeyImage@2@V?$vector@UPublicKey@Crypto@@V?$allocator@UPublicKey@Crypto@@@std@@@std@@_KUEllipticCurveScalar@2@AEAV?$vector@USignature@Crypto@@V?$allocator@USignature@Crypto@@@std@@@6@@Z 0000000180076d1c     crypto.obj
 0002:0001cd44       $cppxdata$?prepareRingSignatures@crypto_ops@Crypto@@SA_NUHash@2@UKeyImage@2@V?$vector@UPublicKey@Crypto@@V?$allocator@UPublicKey@Crypto@@@std@@@std@@_KUEllipticCurveScalar@2@AEAV?$vector@USignature@Crypto@@V?$allocator@USignature@Crypto@@@std@@@6@@Z 0000000180076d44     crypto.obj
 0002:0001cd4d       $stateUnwindMap$?prepareRingSignatures@crypto_ops@Crypto@@SA_NUHash@2@UKeyImage@2@V?$vector@UPublicKey@Crypto@@V?$allocator@UPublicKey@Crypto@@@std@@@std@@_KUEllipticCurveScalar@2@AEAV?$vector@USignature@Crypto@@V?$allocator@USignature@Crypto@@@std@@@6@@Z 0000000180076d4d     crypto.obj
 0002:0001cd54       $ip2state$?prepareRingSignatures@crypto_ops@Crypto@@SA_NUHash@2@UKeyImage@2@V?$vector@UPublicKey@Crypto@@V?$allocator@UPublicKey@Crypto@@@std@@@std@@_KUEllipticCurveScalar@2@AEAV?$vector@USignature@Crypto@@V?$allocator@USignature@Crypto@@@std@@@6@@Z 0000000180076d54     crypto.obj
 0002:0001cd64       $unwind$?generateRingSignatures@crypto_ops@Crypto@@SA_NUHash@2@UKeyImage@2@V?$vector@UPublicKey@Crypto@@V?$allocator@UPublicKey@Crypto@@@std@@@std@@USecretKey@2@_KAEAV?$vector@USignature@Crypto@@V?$allocator@USignature@Crypto@@@std@@@6@@Z 0000000180076d64     crypto.obj
 0002:0001cd88       $cppxdata$?generateRingSignatures@crypto_ops@Crypto@@SA_NUHash@2@UKeyImage@2@V?$vector@UPublicKey@Crypto@@V?$allocator@UPublicKey@Crypto@@@std@@@std@@USecretKey@2@_KAEAV?$vector@USignature@Crypto@@V?$allocator@USignature@Crypto@@@std@@@6@@Z 0000000180076d88     crypto.obj
 0002:0001cd91       $stateUnwindMap$?generateRingSignatures@crypto_ops@Crypto@@SA_NUHash@2@UKeyImage@2@V?$vector@UPublicKey@Crypto@@V?$allocator@UPublicKey@Crypto@@@std@@@std@@USecretKey@2@_KAEAV?$vector@USignature@Crypto@@V?$allocator@USignature@Crypto@@@std@@@6@@Z 0000000180076d91     crypto.obj
 0002:0001cd9e       $ip2state$?generateRingSignatures@crypto_ops@Crypto@@SA_NUHash@2@UKeyImage@2@V?$vector@UPublicKey@Crypto@@V?$allocator@UPublicKey@Crypto@@@std@@@std@@USecretKey@2@_KAEAV?$vector@USignature@Crypto@@V?$allocator@USignature@Crypto@@@std@@@6@@Z 0000000180076d9e     crypto.obj
 0002:0001cdac       $unwind$?checkRingSignature@crypto_ops@Crypto@@SA_NAEBUHash@2@AEBUKeyImage@2@V?$vector@UPublicKey@Crypto@@V?$allocator@UPublicKey@Crypto@@@std@@@std@@V?$vector@USignature@Crypto@@V?$allocator@USignature@Crypto@@@std@@@6@@Z 0000000180076dac     crypto.obj
 0002:0001cdd0       $unwind$?generate_deterministic_subwallet_key@crypto_ops@Crypto@@CAXAEBUSecretKey@2@_KAEAU32@@Z 0000000180076dd0     crypto.obj
 0002:0001cdf4       $cppxdata$?generate_deterministic_subwallet_key@crypto_ops@Crypto@@CAXAEBUSecretKey@2@_KAEAU32@@Z 0000000180076df4     crypto.obj
 0002:0001cdfd       $stateUnwindMap$?generate_deterministic_subwallet_key@crypto_ops@Crypto@@CAXAEBUSecretKey@2@_KAEAU32@@Z 0000000180076dfd     crypto.obj
 0002:0001ce0a       $ip2state$?generate_deterministic_subwallet_key@crypto_ops@Crypto@@CAXAEBUSecretKey@2@_KAEAU32@@Z 0000000180076e0a     crypto.obj
 0002:0001ce14       $unwind$??0?$vector@UPublicKey@Crypto@@V?$allocator@UPublicKey@Crypto@@@std@@@std@@QEAA@AEBV01@@Z 0000000180076e14     crypto.obj
 0002:0001ce14       $unwind$__scrt_dllmain_exception_filter 0000000180076e14     LIBCMT:utility.obj
 0002:0001ce14       $unwind$?Is_bad_exception_allowed@@YAEPEBU_s_ESTypeList@@@Z 0000000180076e14     libvcruntime:frame.obj
 0002:0001ce14       $unwind$__dcrt_get_wide_environment_from_os 0000000180076e14     libucrt:get_environment_from_os.obj
 0002:0001ce14       $unwind$??$common_getenv_nolock@_W@@YAPEA_WQEB_W@Z 0000000180076e14     libucrt:getenv.obj
 0002:0001ce14       $unwind$_recalloc_base     0000000180076e14     libucrt:recalloc.obj
 0002:0001ce14       $unwind$__acrt_free_locale 0000000180076e14     libucrt:locale_refcounting.obj
 0002:0001ce14       $unwind$__acrt_lowio_create_handle_array 0000000180076e14     libucrt:osfinfo.obj
 0002:0001ce14       $unwind$?setSBCS@@YAXPEAU__crt_multibyte_data@@@Z 0000000180076e14     libucrt:mbctype.obj
 0002:0001ce14       $unwind$_seh_filter_exe    0000000180076e14     libucrt:exception_filter.obj
 0002:0001ce14       $unwind$_initterm          0000000180076e14     libucrt:initterm.obj
 0002:0001ce14       $unwind$_ischartype_l      0000000180076e14     libucrt:input.obj
 0002:0001ce14       $unwind$??$ensure_buffer_is_big_enough@D@formatting_buffer@__crt_stdio_output@@QEAA_N_K@Z 0000000180076e14     libucrt:output.obj
 0002:0001ce28       $unwind$??$?RV?$mersenne_twister_engine@I$0CA@$0CHA@$0BIN@$0BP@$0JJAILANP@$0L@$0PPPPPPPP@$06$0JNCMFGIA@$0P@$0OPMGAAAA@$0BC@$0GMAHIJGF@@std@@@?$uniform_int@H@std@@QEBAHAEAV?$mersenne_twister_engine@I$0CA@$0CHA@$0BIN@$0BP@$0JJAILANP@$0L@$0PPPPPPPP@$06$0JNCMFGIA@$0P@$0OPMGAAAA@$0BC@$0GMAHIJGF@@1@@Z 0000000180076e28     crypto.obj
 0002:0001ce3c       $chain$0$??$?RV?$mersenne_twister_engine@I$0CA@$0CHA@$0BIN@$0BP@$0JJAILANP@$0L@$0PPPPPPPP@$06$0JNCMFGIA@$0P@$0OPMGAAAA@$0BC@$0GMAHIJGF@@std@@@?$uniform_int@H@std@@QEBAHAEAV?$mersenne_twister_engine@I$0CA@$0CHA@$0BIN@$0BP@$0JJAILANP@$0L@$0PPPPPPPP@$06$0JNCMFGIA@$0P@$0OPMGAAAA@$0BC@$0GMAHIJGF@@1@@Z 0000000180076e3c     crypto.obj
 0002:0001ce50       $chain$1$??$?RV?$mersenne_twister_engine@I$0CA@$0CHA@$0BIN@$0BP@$0JJAILANP@$0L@$0PPPPPPPP@$06$0JNCMFGIA@$0P@$0OPMGAAAA@$0BC@$0GMAHIJGF@@std@@@?$uniform_int@H@std@@QEBAHAEAV?$mersenne_twister_engine@I$0CA@$0CHA@$0BIN@$0BP@$0JJAILANP@$0L@$0PPPPPPPP@$06$0JNCMFGIA@$0P@$0OPMGAAAA@$0BC@$0GMAHIJGF@@1@@Z 0000000180076e50     crypto.obj
 0002:0001ce60       $unwind$??$_Resize_reallocate@U_Value_init_tag@std@@@?$vector@USignature@Crypto@@V?$allocator@USignature@Crypto@@@std@@@std@@AEAAX_KAEBU_Value_init_tag@1@@Z 0000000180076e60     crypto.obj
 0002:0001ce6c       $chain$2$??$_Resize_reallocate@U_Value_init_tag@std@@@?$vector@USignature@Crypto@@V?$allocator@USignature@Crypto@@@std@@@std@@AEAAX_KAEBU_Value_init_tag@1@@Z 0000000180076e6c     crypto.obj
 0002:0001ce88       $chain$4$??$_Resize_reallocate@U_Value_init_tag@std@@@?$vector@USignature@Crypto@@V?$allocator@USignature@Crypto@@@std@@@std@@AEAAX_KAEBU_Value_init_tag@1@@Z 0000000180076e88     crypto.obj
 0002:0001cea4       $chain$5$??$_Resize_reallocate@U_Value_init_tag@std@@@?$vector@USignature@Crypto@@V?$allocator@USignature@Crypto@@@std@@@std@@AEAAX_KAEBU_Value_init_tag@1@@Z 0000000180076ea4     crypto.obj
 0002:0001ceb4       $unwind$??R?$mersenne_twister@I$0CA@$0CHA@$0BIN@$0BP@$0JJAILANP@$0L@$06$0JNCMFGIA@$0P@$0OPMGAAAA@$0BC@@std@@QEAAIXZ 0000000180076eb4     crypto.obj
 0002:0001cebc       $chain$0$??R?$mersenne_twister@I$0CA@$0CHA@$0BIN@$0BP@$0JJAILANP@$0L@$06$0JNCMFGIA@$0P@$0OPMGAAAA@$0BC@@std@@QEAAIXZ 0000000180076ebc     crypto.obj
 0002:0001ced0       $chain$1$??R?$mersenne_twister@I$0CA@$0CHA@$0BIN@$0BP@$0JJAILANP@$0L@$06$0JNCMFGIA@$0P@$0OPMGAAAA@$0BC@@std@@QEAAIXZ 0000000180076ed0     crypto.obj
 0002:0001cee0       $unwind$fe_invert          0000000180076ee0     crypto-ops.obj
 0002:0001cf00       $unwind$fe_isnonzero       0000000180076f00     crypto-ops.obj
 0002:0001cf00       $unwind$?destroy_ptd_array@@YAXQEAU__acrt_ptd@@@Z 0000000180076f00     libucrt:per_thread_data.obj
 0002:0001cf08       $unwind$fe_mul             0000000180076f08     crypto-ops.obj
 0002:0001cf20       $unwind$fe_sq              0000000180076f20     crypto-ops.obj
 0002:0001cf38       $unwind$fe_sq2             0000000180076f38     crypto-ops.obj
 0002:0001cf50       $unwind$fe_tobytes         0000000180076f50     crypto-ops.obj
 0002:0001cf50       $unwind$RND512Q            0000000180076f50     groestl.obj
 0002:0001cf6c       $unwind$ge_add             0000000180076f6c     crypto-ops.obj
 0002:0001cf6c       $unwind$ge_madd            0000000180076f6c     crypto-ops.obj
 0002:0001cf6c       $unwind$ge_msub            0000000180076f6c     crypto-ops.obj
 0002:0001cf6c       $unwind$ge_sub             0000000180076f6c     crypto-ops.obj
 0002:0001cf6c       $unwind$sc_add             0000000180076f6c     crypto-ops.obj
 0002:0001cf6c       $unwind$sc_reduce32        0000000180076f6c     crypto-ops.obj
 0002:0001cf6c       $unwind$sc_sub             0000000180076f6c     crypto-ops.obj
 0002:0001cf84       $unwind$ge_p3_to_cached    0000000180076f84     crypto-ops.obj
 0002:0001cf84       $unwind$slide              0000000180076f84     crypto-ops.obj
 0002:0001cf9c       $unwind$ge_dsm_precomp     0000000180076f9c     crypto-ops.obj
 0002:0001cfb8       $unwind$ge_double_scalarmult_base_vartime 0000000180076fb8     crypto-ops.obj
 0002:0001cfd8       $chain$0$ge_double_scalarmult_base_vartime 0000000180076fd8     crypto-ops.obj
 0002:0001cfec       $chain$1$ge_double_scalarmult_base_vartime 0000000180076fec     crypto-ops.obj
 0002:0001cffc       $unwind$ge_frombytes_vartime 0000000180076ffc     crypto-ops.obj
 0002:0001d024       $unwind$ge_p2_dbl          0000000180077024     crypto-ops.obj
 0002:0001d024       $unwind$sc_reduce          0000000180077024     crypto-ops.obj
 0002:0001d03c       $unwind$ge_cached_cmov     000000018007703c     crypto-ops.obj
 0002:0001d03c       $unwind$ge_precomp_cmov    000000018007703c     crypto-ops.obj
 0002:0001d050       $unwind$select             0000000180077050     crypto-ops.obj
 0002:0001d06c       $unwind$ge_scalarmult_base 000000018007706c     crypto-ops.obj
 0002:0001d094       $unwind$fe_divpowm1        0000000180077094     crypto-ops.obj
 0002:0001d0b0       $unwind$ge_scalarmult      00000001800770b0     crypto-ops.obj
 0002:0001d0d4       $unwind$ge_double_scalarmult_precomp_vartime 00000001800770d4     crypto-ops.obj
 0002:0001d0f8       $unwind$ge_check_subgroup_precomp_vartime 00000001800770f8     crypto-ops.obj
 0002:0001d11c       $unwind$ge_fromfe_frombytes_vartime 000000018007711c     crypto-ops.obj
 0002:0001d144       $unwind$sc_mul             0000000180077144     crypto-ops.obj
 0002:0001d15c       $unwind$sc_mulsub          000000018007715c     crypto-ops.obj
 0002:0001d174       $unwind$sc_check           0000000180077174     crypto-ops.obj
 0002:0001d174       $unwind$?_Insert_node@?$_Tree_val@U?$_Tree_simple_types@UKeyImage@Crypto@@@std@@@std@@QEAAPEAU?$_Tree_node@UKeyImage@Crypto@@PEAX@2@U?$_Tree_id@PEAU?$_Tree_node@UKeyImage@Crypto@@PEAX@std@@@2@QEAU32@@Z 0000000180077174     multisig.obj
 0002:0001d174       $unwind$?_Insert_node@?$_Tree_val@U?$_Tree_simple_types@UPublicKey@Crypto@@@std@@@std@@QEAAPEAU?$_Tree_node@UPublicKey@Crypto@@PEAX@2@U?$_Tree_id@PEAU?$_Tree_node@UPublicKey@Crypto@@PEAX@std@@@2@QEAU32@@Z 0000000180077174     multisig.obj
 0002:0001d174       $unwind$?_Insert_node@?$_Tree_val@U?$_Tree_simple_types@USecretKey@Crypto@@@std@@@std@@QEAAPEAU?$_Tree_node@USecretKey@Crypto@@PEAX@2@U?$_Tree_id@PEAU?$_Tree_node@USecretKey@Crypto@@PEAX@std@@@2@QEAU32@@Z 0000000180077174     multisig.obj
 0002:0001d180       $unwind$RND512P            0000000180077180     groestl.obj
 0002:0001d198       $unwind$F512               0000000180077198     groestl.obj
 0002:0001d1b8       $unwind$Update             00000001800771b8     groestl.obj
 0002:0001d1cc       $chain$0$Update            00000001800771cc     groestl.obj
 0002:0001d1e0       $chain$1$Update            00000001800771e0     groestl.obj
 0002:0001d1f4       $chain$2$Update            00000001800771f4     groestl.obj
 0002:0001d204       $chain$3$Update            0000000180077204     groestl.obj
 0002:0001d214       $unwind$Final              0000000180077214     groestl.obj
 0002:0001d234       $unwind$hash_extra_blake   0000000180077234     hash-extra-blake.obj
 0002:0001d248       $unwind$hash_extra_groestl 0000000180077248     hash-extra-groestl.obj
 0002:0001d25c       $unwind$hash_extra_jh      000000018007725c     hash-extra-jh.obj
 0002:0001d270       $unwind$hash_extra_skein   0000000180077270     hash-extra-skein.obj
 0002:0001d284       $unwind$E8                 0000000180077284     jh.obj
 0002:0001d29c       $unwind$Update             000000018007729c     jh.obj
 0002:0001d2b0       $chain$1$Update            00000001800772b0     jh.obj
 0002:0001d2c8       $chain$2$Update            00000001800772c8     jh.obj
 0002:0001d2d8       $unwind$Final              00000001800772d8     jh.obj
 0002:0001d2d8       $unwind$??$_Erase_tree@V?$allocator@U?$_Tree_node@UKeyImage@Crypto@@PEAX@std@@@std@@@?$_Tree_val@U?$_Tree_simple_types@UKeyImage@Crypto@@@std@@@std@@QEAAXAEAV?$allocator@U?$_Tree_node@UKeyImage@Crypto@@PEAX@std@@@1@PEAU?$_Tree_node@UKeyImage@Crypto@@PEAX@1@@Z 00000001800772d8     multisig.obj
 0002:0001d2d8       $unwind$??$_Erase_tree@V?$allocator@U?$_Tree_node@UPublicKey@Crypto@@PEAX@std@@@std@@@?$_Tree_val@U?$_Tree_simple_types@UPublicKey@Crypto@@@std@@@std@@QEAAXAEAV?$allocator@U?$_Tree_node@UPublicKey@Crypto@@PEAX@std@@@1@PEAU?$_Tree_node@UPublicKey@Crypto@@PEAX@1@@Z 00000001800772d8     multisig.obj
 0002:0001d2d8       $unwind$??$_Erase_tree@V?$allocator@U?$_Tree_node@USecretKey@Crypto@@PEAX@std@@@std@@@?$_Tree_val@U?$_Tree_simple_types@USecretKey@Crypto@@@std@@@std@@QEAAXAEAV?$allocator@U?$_Tree_node@USecretKey@Crypto@@PEAX@std@@@1@PEAU?$_Tree_node@USecretKey@Crypto@@PEAX@1@@Z 00000001800772d8     multisig.obj
 0002:0001d2d8       $unwind$_DllMainCRTStartup 00000001800772d8     LIBCMT:dll_dllmain.obj
 0002:0001d2d8       $unwind$__vcrt_getptd_noexit 00000001800772d8     libvcruntime:per_thread_data.obj
 0002:0001d2d8       $unwind$__vcrt_InitializeCriticalSectionEx 00000001800772d8     libvcruntime:winapi_downlevel.obj
 0002:0001d2d8       $unwind$memcpy_s           00000001800772d8     libucrt:cfout.obj
 0002:0001d2d8       $unwind$__acrt_getptd      00000001800772d8     libucrt:per_thread_data.obj
 0002:0001d2d8       $unwind$__acrt_getptd_noexit 00000001800772d8     libucrt:per_thread_data.obj
 0002:0001d2d8       $unwind$__acrt_execute_initializers 00000001800772d8     libucrt:shared_initialization.obj
 0002:0001d2d8       $unwind$__acrt_InitializeCriticalSectionEx 00000001800772d8     libucrt:winapi_thunks.obj
 0002:0001d2d8       $unwind$?free_crt_array_internal@@YAXQEAPEBX_K@Z 00000001800772d8     libucrt:inittime.obj
 0002:0001d2d8       $unwind$??$common_lseek_nolock@_J@@YA_JH_JH@Z 00000001800772d8     libucrt:lseek.obj
 0002:0001d2d8       $unwind$?create_thread_parameter@@YAPEAU__acrt_thread_parameter@@QEAX0@Z 00000001800772d8     libucrt:thread.obj
 0002:0001d2d8       $unwind$__acrt_stdio_flush_nolock 00000001800772d8     libucrt:fflush.obj
 0002:0001d2d8       $unwind$memcpy_s           00000001800772d8     libucrt:input.obj
 0002:0001d2d8       $unwind$??0_LocaleUpdate@@QEAA@QEAU__crt_locale_pointers@@@Z 00000001800772d8     libucrt:output.obj
 0002:0001d2d8       $unwind$_gmtime64          00000001800772d8     libucrt:gmtime.obj
 0002:0001d2d8       $unwind$_exception_enabled 00000001800772d8     libucrt:libm_error.obj
 0002:0001d2e8       $unwind$keccakf            00000001800772e8     keccak.obj
 0002:0001d308       $unwind$keccak             0000000180077308     keccak.obj
 0002:0001d328       $unwind$?calculate_multisig_private_key@Multisig@Crypto@@YA_NAEBUPublicKey@2@AEBUSecretKey@2@AEAU42@@Z 0000000180077328     multisig.obj
 0002:0001d344       $unwind$?calculate_multisig_private_keys@Multisig@Crypto@@YA?AV?$vector@USecretKey@Crypto@@V?$allocator@USecretKey@Crypto@@@std@@@std@@AEBUSecretKey@2@AEBV?$vector@UPublicKey@Crypto@@V?$allocator@UPublicKey@Crypto@@@std@@@4@@Z 0000000180077344     multisig.obj
 0002:0001d360       $cppxdata$?calculate_multisig_private_keys@Multisig@Crypto@@YA?AV?$vector@USecretKey@Crypto@@V?$allocator@USecretKey@Crypto@@@std@@@std@@AEBUSecretKey@2@AEBV?$vector@UPublicKey@Crypto@@V?$allocator@UPublicKey@Crypto@@@std@@@4@@Z 0000000180077360     multisig.obj
 0002:0001d369       $stateUnwindMap$?calculate_multisig_private_keys@Multisig@Crypto@@YA?AV?$vector@USecretKey@Crypto@@V?$allocator@USecretKey@Crypto@@@std@@@std@@AEBUSecretKey@2@AEBV?$vector@UPublicKey@Crypto@@V?$allocator@UPublicKey@Crypto@@@std@@@4@@Z 0000000180077369     multisig.obj
 0002:0001d36f       $ip2state$?calculate_multisig_private_keys@Multisig@Crypto@@YA?AV?$vector@USecretKey@Crypto@@V?$allocator@USecretKey@Crypto@@@std@@@std@@AEBUSecretKey@2@AEBV?$vector@UPublicKey@Crypto@@V?$allocator@UPublicKey@Crypto@@@std@@@4@@Z 000000018007736f     multisig.obj
 0002:0001d374       $unwind$?dtor$0@?0??fromHex@Common@@YA?AV?$vector@EV?$allocator@E@std@@@std@@AEBV?$basic_string@DU?$char_traits@D@std@@V?$allocator@D@2@@3@@Z@4HA 0000000180077374     StringTools.obj
 0002:0001d374       $unwind$?dtor$0@?0??calculate_multisig_private_keys@Multisig@Crypto@@YA?AV?$vector@USecretKey@Crypto@@V?$allocator@USecretKey@Crypto@@@std@@@std@@AEBUSecretKey@2@AEBV?$vector@UPublicKey@Crypto@@V?$allocator@UPublicKey@Crypto@@@std@@@4@@Z@4HA 0000000180077374     multisig.obj
 0002:0001d374       $unwind$?dtor$0@?0??getString@@YA?AV?$basic_string@DU?$char_traits@D@std@@V?$allocator@D@2@@std@@AEBV?$FunctionCallbackInfo@VValue@v8@@@Nan@@E@Z@4HA 0000000180077374     turtlecoin-crypto-node.obj
 0002:0001d374       $unwind$?dtor$0@?0??toStringVector@@YA?AV?$vector@V?$basic_string@DU?$char_traits@D@std@@V?$allocator@D@2@@std@@V?$allocator@V?$basic_string@DU?$char_traits@D@std@@V?$allocator@D@2@@std@@@2@@std@@AEBV?$FunctionCallbackInfo@VValue@v8@@@Nan@@E@Z@4HA 0000000180077374     turtlecoin-crypto-node.obj
 0002:0001d374       $unwind$?dtor$11@?0???$toStringVector@UHash@Crypto@@@Core@@YAXAEBV?$vector@UHash@Crypto@@V?$allocator@UHash@Crypto@@@std@@@std@@AEAV?$vector@V?$basic_string@DU?$char_traits@D@std@@V?$allocator@D@2@@std@@V?$allocator@V?$basic_string@DU?$char_traits@D@std@@V?$allocator@D@2@@std@@@2@@2@@Z@4HA 0000000180077374     turtlecoin-crypto.obj
 0002:0001d374       $unwind$?dtor$11@?0???$toStringVector@USecretKey@Crypto@@@Core@@YAXAEBV?$vector@USecretKey@Crypto@@V?$allocator@USecretKey@Crypto@@@std@@@std@@AEAV?$vector@V?$basic_string@DU?$char_traits@D@std@@V?$allocator@D@2@@std@@V?$allocator@V?$basic_string@DU?$char_traits@D@std@@V?$allocator@D@2@@std@@@2@@2@@Z@4HA 0000000180077374     turtlecoin-crypto.obj
 0002:0001d374       $unwind$?dtor$1@?0???$podToHex@UEllipticCurveScalar@Crypto@@@Common@@YA?AV?$basic_string@DU?$char_traits@D@std@@V?$allocator@D@2@@std@@AEBUEllipticCurveScalar@Crypto@@@Z@4HA 0000000180077374     turtlecoin-crypto.obj
 0002:0001d374       $unwind$?dtor$1@?0???$podToHex@UKeyImage@Crypto@@@Common@@YA?AV?$basic_string@DU?$char_traits@D@std@@V?$allocator@D@2@@std@@AEBUKeyImage@Crypto@@@Z@4HA 0000000180077374     turtlecoin-crypto.obj
 0002:0001d374       $unwind$?dtor$1@?0???$podToHex@UPublicKey@Crypto@@@Common@@YA?AV?$basic_string@DU?$char_traits@D@std@@V?$allocator@D@2@@std@@AEBUPublicKey@Crypto@@@Z@4HA 0000000180077374     turtlecoin-crypto.obj
 0002:0001d374       $unwind$?dtor$1@?0???$podToHex@USignature@Crypto@@@Common@@YA?AV?$basic_string@DU?$char_traits@D@std@@V?$allocator@D@2@@std@@AEBUSignature@Crypto@@@Z@4HA 0000000180077374     turtlecoin-crypto.obj
 0002:0001d374       $unwind$?dtor$2@?0???$toStringVector@USignature@Crypto@@@Core@@YAXAEBV?$vector@USignature@Crypto@@V?$allocator@USignature@Crypto@@@std@@@std@@AEAV?$vector@V?$basic_string@DU?$char_traits@D@std@@V?$allocator@D@2@@std@@V?$allocator@V?$basic_string@DU?$char_traits@D@std@@V?$allocator@D@2@@std@@@2@@2@@Z@4HA 0000000180077374     turtlecoin-crypto.obj
 0002:0001d374       $unwind$?dtor$2@?0??calculateMultisigPrivateKeys@Cryptography@Core@@SA?AV?$vector@V?$basic_string@DU?$char_traits@D@std@@V?$allocator@D@2@@std@@V?$allocator@V?$basic_string@DU?$char_traits@D@std@@V?$allocator@D@2@@std@@@2@@std@@AEBV?$basic_string@DU?$char_traits@D@std@@V?$allocator@D@2@@4@AEBV34@@Z@4HA 0000000180077374     turtlecoin-crypto.obj
 0002:0001d374       $unwind$?dtor$2@?0??generatePartialSigningKey@Cryptography@Core@@SA?AV?$basic_string@DU?$char_traits@D@std@@V?$allocator@D@2@@std@@AEBV34@0@Z@4HA 0000000180077374     turtlecoin-crypto.obj
 0002:0001d374       $unwind$?dtor$3@?0??generateKeys@Cryptography@Core@@SAXAEAV?$basic_string@DU?$char_traits@D@std@@V?$allocator@D@2@@std@@0@Z@4HA 0000000180077374     turtlecoin-crypto.obj
 0002:0001d374       $unwind$?dtor$3@?0??generatePrivateViewKeyFromPrivateSpendKey@Cryptography@Core@@SA?AV?$basic_string@DU?$char_traits@D@std@@V?$allocator@D@2@@std@@V34@@Z@4HA 0000000180077374     turtlecoin-crypto.obj
 0002:0001d374       $unwind$?dtor$3@?0??tree_branch@Cryptography@Core@@SA?AV?$vector@V?$basic_string@DU?$char_traits@D@std@@V?$allocator@D@2@@std@@V?$allocator@V?$basic_string@DU?$char_traits@D@std@@V?$allocator@D@2@@std@@@2@@std@@V34@@Z@4HA 0000000180077374     turtlecoin-crypto.obj
 0002:0001d374       $unwind$?dtor$4@?0??calculateSharedPrivateKey@Cryptography@Core@@SA?AV?$basic_string@DU?$char_traits@D@std@@V?$allocator@D@2@@std@@AEBV?$vector@V?$basic_string@DU?$char_traits@D@std@@V?$allocator@D@2@@std@@V?$allocator@V?$basic_string@DU?$char_traits@D@std@@V?$allocator@D@2@@std@@@2@@4@@Z@4HA 0000000180077374     turtlecoin-crypto.obj
 0002:0001d374       $unwind$?dtor$4@?0??deriveSecretKey@Cryptography@Core@@SA?AV?$basic_string@DU?$char_traits@D@std@@V?$allocator@D@2@@std@@V34@_K0@Z@4HA 0000000180077374     turtlecoin-crypto.obj
 0002:0001d374       $unwind$?dtor$4@?0??generateDeterministicSubwalletKeys@Cryptography@Core@@SA_NV?$basic_string@DU?$char_traits@D@std@@V?$allocator@D@2@@std@@_KAEAV34@2@Z@4HA 0000000180077374     turtlecoin-crypto.obj
 0002:0001d374       $unwind$?dtor$4@?0??generateKeyDerivation@Cryptography@Core@@SA_NV?$basic_string@DU?$char_traits@D@std@@V?$allocator@D@2@@std@@0AEAV34@@Z@4HA 0000000180077374     turtlecoin-crypto.obj
 0002:0001d374       $unwind$?dtor$4@?0??generateViewKeysFromPrivateSpendKey@Cryptography@Core@@SAXV?$basic_string@DU?$char_traits@D@std@@V?$allocator@D@2@@std@@AEAV34@1@Z@4HA 0000000180077374     turtlecoin-crypto.obj
 0002:0001d374       $unwind$?dtor$4@?0??tree_hash@Cryptography@Core@@SA?AV?$basic_string@DU?$char_traits@D@std@@V?$allocator@D@2@@std@@V?$vector@V?$basic_string@DU?$char_traits@D@std@@V?$allocator@D@2@@std@@V?$allocator@V?$basic_string@DU?$char_traits@D@std@@V?$allocator@D@2@@std@@@2@@4@@Z@4HA 0000000180077374     turtlecoin-crypto.obj
 0002:0001d374       $unwind$?dtor$6@?0??tree_hash_from_branch@Cryptography@Core@@SA?AV?$basic_string@DU?$char_traits@D@std@@V?$allocator@D@2@@std@@V?$vector@V?$basic_string@DU?$char_traits@D@std@@V?$allocator@D@2@@std@@V?$allocator@V?$basic_string@DU?$char_traits@D@std@@V?$allocator@D@2@@std@@@2@@4@V34@1@Z@4HA 0000000180077374     turtlecoin-crypto.obj
 0002:0001d374       $unwind$?dtor$8@?0??chukwa_slow_hash@Cryptography@Core@@SA?AV?$basic_string@DU?$char_traits@D@std@@V?$allocator@D@2@@std@@V34@@Z@4HA 0000000180077374     turtlecoin-crypto.obj
 0002:0001d374       $unwind$?dtor$8@?0??cn_dark_lite_slow_hash_v0@Cryptography@Core@@SA?AV?$basic_string@DU?$char_traits@D@std@@V?$allocator@D@2@@std@@V34@@Z@4HA 0000000180077374     turtlecoin-crypto.obj
 0002:0001d374       $unwind$?dtor$8@?0??cn_dark_lite_slow_hash_v1@Cryptography@Core@@SA?AV?$basic_string@DU?$char_traits@D@std@@V?$allocator@D@2@@std@@V34@@Z@4HA 0000000180077374     turtlecoin-crypto.obj
 0002:0001d374       $unwind$?dtor$8@?0??cn_dark_lite_slow_hash_v2@Cryptography@Core@@SA?AV?$basic_string@DU?$char_traits@D@std@@V?$allocator@D@2@@std@@V34@@Z@4HA 0000000180077374     turtlecoin-crypto.obj
 0002:0001d374       $unwind$?dtor$8@?0??cn_dark_slow_hash_v0@Cryptography@Core@@SA?AV?$basic_string@DU?$char_traits@D@std@@V?$allocator@D@2@@std@@V34@@Z@4HA 0000000180077374     turtlecoin-crypto.obj
 0002:0001d374       $unwind$?dtor$8@?0??cn_dark_slow_hash_v1@Cryptography@Core@@SA?AV?$basic_string@DU?$char_traits@D@std@@V?$allocator@D@2@@std@@V34@@Z@4HA 0000000180077374     turtlecoin-crypto.obj
 0002:0001d374       $unwind$?dtor$8@?0??cn_dark_slow_hash_v2@Cryptography@Core@@SA?AV?$basic_string@DU?$char_traits@D@std@@V?$allocator@D@2@@std@@V34@@Z@4HA 0000000180077374     turtlecoin-crypto.obj
 0002:0001d374       $unwind$?dtor$8@?0??cn_fast_hash@Cryptography@Core@@SA?AV?$basic_string@DU?$char_traits@D@std@@V?$allocator@D@2@@std@@V34@@Z@4HA 0000000180077374     turtlecoin-crypto.obj
 0002:0001d374       $unwind$?dtor$8@?0??cn_lite_slow_hash_v0@Cryptography@Core@@SA?AV?$basic_string@DU?$char_traits@D@std@@V?$allocator@D@2@@std@@V34@@Z@4HA 0000000180077374     turtlecoin-crypto.obj
 0002:0001d374       $unwind$?dtor$8@?0??cn_lite_slow_hash_v1@Cryptography@Core@@SA?AV?$basic_string@DU?$char_traits@D@std@@V?$allocator@D@2@@std@@V34@@Z@4HA 0000000180077374     turtlecoin-crypto.obj
 0002:0001d374       $unwind$?dtor$8@?0??cn_lite_slow_hash_v2@Cryptography@Core@@SA?AV?$basic_string@DU?$char_traits@D@std@@V?$allocator@D@2@@std@@V34@@Z@4HA 0000000180077374     turtlecoin-crypto.obj
 0002:0001d374       $unwind$?dtor$8@?0??cn_slow_hash_v0@Cryptography@Core@@SA?AV?$basic_string@DU?$char_traits@D@std@@V?$allocator@D@2@@std@@V34@@Z@4HA 0000000180077374     turtlecoin-crypto.obj
 0002:0001d374       $unwind$?dtor$8@?0??cn_slow_hash_v1@Cryptography@Core@@SA?AV?$basic_string@DU?$char_traits@D@std@@V?$allocator@D@2@@std@@V34@@Z@4HA 0000000180077374     turtlecoin-crypto.obj
 0002:0001d374       $unwind$?dtor$8@?0??cn_slow_hash_v2@Cryptography@Core@@SA?AV?$basic_string@DU?$char_traits@D@std@@V?$allocator@D@2@@std@@V34@@Z@4HA 0000000180077374     turtlecoin-crypto.obj
 0002:0001d374       $unwind$?dtor$8@?0??cn_turtle_lite_slow_hash_v0@Cryptography@Core@@SA?AV?$basic_string@DU?$char_traits@D@std@@V?$allocator@D@2@@std@@V34@@Z@4HA 0000000180077374     turtlecoin-crypto.obj
 0002:0001d374       $unwind$?dtor$8@?0??cn_turtle_lite_slow_hash_v1@Cryptography@Core@@SA?AV?$basic_string@DU?$char_traits@D@std@@V?$allocator@D@2@@std@@V34@@Z@4HA 0000000180077374     turtlecoin-crypto.obj
 0002:0001d374       $unwind$?dtor$8@?0??cn_turtle_lite_slow_hash_v2@Cryptography@Core@@SA?AV?$basic_string@DU?$char_traits@D@std@@V?$allocator@D@2@@std@@V34@@Z@4HA 0000000180077374     turtlecoin-crypto.obj
 0002:0001d374       $unwind$?dtor$8@?0??cn_turtle_slow_hash_v0@Cryptography@Core@@SA?AV?$basic_string@DU?$char_traits@D@std@@V?$allocator@D@2@@std@@V34@@Z@4HA 0000000180077374     turtlecoin-crypto.obj
 0002:0001d374       $unwind$?dtor$8@?0??cn_turtle_slow_hash_v1@Cryptography@Core@@SA?AV?$basic_string@DU?$char_traits@D@std@@V?$allocator@D@2@@std@@V34@@Z@4HA 0000000180077374     turtlecoin-crypto.obj
 0002:0001d374       $unwind$?dtor$8@?0??cn_turtle_slow_hash_v2@Cryptography@Core@@SA?AV?$basic_string@DU?$char_traits@D@std@@V?$allocator@D@2@@std@@V34@@Z@4HA 0000000180077374     turtlecoin-crypto.obj
 0002:0001d374       $unwind$?fin$0@?0??dllmain_crt_process_attach@@YAHQEAUHINSTANCE__@@QEAX@Z@4HA 0000000180077374     LIBCMT:dll_dllmain.obj
 0002:0001d374       $unwind$?fin$0@?0??dllmain_crt_process_detach@@YAH_N@Z@4HA 0000000180077374     LIBCMT:dll_dllmain.obj
 0002:0001d374       $unwind$?fin$1@?0??dllmain_crt_process_detach@@YAH_N@Z@4HA 0000000180077374     LIBCMT:dll_dllmain.obj
 0002:0001d374       $unwind$_IsNonwritableInCurrentImage$filt$0 0000000180077374     LIBCMT:pesect.obj
 0002:0001d374       $unwind$?filt$0@?0??CxxCallCatchBlock@__FrameHandler4@@SAPEAXPEAU_EXCEPTION_RECORD@@@Z@4HA 0000000180077374     libvcruntime:frame.obj
 0002:0001d374       $unwind$_query_new_handler$fin$0 0000000180077374     libucrt:new_handler.obj
 0002:0001d374       $unwind$?fin$0@?0???$?RV<lambda_0ae27a3a962d80f24befdcbee591983d>@@AEAV<lambda_8d0ee55de4b1038c4002e0adecdf1839>@@V<lambda_dc504788e8f1664fe9b84e20bfb512f2>@@@?$__crt_seh_guarded_call@X@@QEAAX$$QEAV<lambda_0ae27a3a962d80f24befdcbee591983d>@@AEAV<lambda_8d0ee55de4b1038c4002e0adecdf1839>@@$$QEAV<lambda_dc504788e8f1664fe9b84e20bfb512f2>@@@Z@4HA 0000000180077374     libucrt:per_thread_data.obj
 0002:0001d374       $unwind$?fin$0@?0???$?RV<lambda_2d41944a1d46af3157314b8a01080d33>@@AEAV<lambda_8f455de75cd7d7f24b4096f044d8b9e6>@@V<lambda_aa500f224e6afead328df44964fe2772>@@@?$__crt_seh_guarded_call@X@@QEAAX$$QEAV<lambda_2d41944a1d46af3157314b8a01080d33>@@AEAV<lambda_8f455de75cd7d7f24b4096f044d8b9e6>@@$$QEAV<lambda_aa500f224e6afead328df44964fe2772>@@@Z@4HA 0000000180077374     libucrt:per_thread_data.obj
 0002:0001d374       $unwind$?fin$0@?0???$?RV<lambda_aa87e3671a710a21b5dc78c0bdf72e11>@@AEAV<lambda_92619d2358a28f41a33ba319515a20b9>@@V<lambda_6992ecaafeb10aed2b74cb1fae11a551>@@@?$__crt_seh_guarded_call@X@@QEAAX$$QEAV<lambda_aa87e3671a710a21b5dc78c0bdf72e11>@@AEAV<lambda_92619d2358a28f41a33ba319515a20b9>@@$$QEAV<lambda_6992ecaafeb10aed2b74cb1fae11a551>@@@Z@4HA 0000000180077374     libucrt:per_thread_data.obj
 0002:0001d374       $unwind$?fin$0@?0???$?RV<lambda_f2e299630e499de9f9a165e60fcd3db5>@@AEAV<lambda_2ae9d31cdba2644fcbeaf08da7c24588>@@V<lambda_40d01ff24d0e7b3814fdbdcee8eab3c7>@@@?$__crt_seh_guarded_call@X@@QEAAX$$QEAV<lambda_f2e299630e499de9f9a165e60fcd3db5>@@AEAV<lambda_2ae9d31cdba2644fcbeaf08da7c24588>@@$$QEAV<lambda_40d01ff24d0e7b3814fdbdcee8eab3c7>@@@Z@4HA 0000000180077374     libucrt:per_thread_data.obj
 0002:0001d374       $unwind$__acrt_update_thread_locale_data$fin$0 0000000180077374     libucrt:locale_refcounting.obj
 0002:0001d374       $unwind$?fin$0@?0???$?RV<lambda_410d79af7f07d98d83a3f525b3859a53>@@AEAV<lambda_3e16ef9562a7dcce91392c22ab16ea36>@@V<lambda_38119f0e861e05405d8a144b9b982f0a>@@@?$__crt_seh_guarded_call@X@@QEAAX$$QEAV<lambda_410d79af7f07d98d83a3f525b3859a53>@@AEAV<lambda_3e16ef9562a7dcce91392c22ab16ea36>@@$$QEAV<lambda_38119f0e861e05405d8a144b9b982f0a>@@@Z@4HA 0000000180077374     libucrt:wsetlocale.obj
 0002:0001d374       $unwind$?fin$0@?0???$?RV<lambda_751a882b2c74d4b022dec766aa51a29a>@@AEAV<lambda_628dfdc04ba53c8bfc02c9951375f3f5>@@V<lambda_f6c7be5f7998530c34de24c7437d6b54>@@@?$__crt_seh_guarded_call@H@@QEAAH$$QEAV<lambda_751a882b2c74d4b022dec766aa51a29a>@@AEAV<lambda_628dfdc04ba53c8bfc02c9951375f3f5>@@$$QEAV<lambda_f6c7be5f7998530c34de24c7437d6b54>@@@Z@4HA 0000000180077374     libucrt:close.obj
 0002:0001d374       $unwind$?fin$0@?0???$?RV<lambda_a37b2b86f63e897a80ea819b0eb08c01>@@AEAV<lambda_38ce7e780aa69e748d6df282ebc68efe>@@V<lambda_99fb1378e971ab6e7edea83e3a7a83a2>@@@?$__crt_seh_guarded_call@H@@QEAAH$$QEAV<lambda_a37b2b86f63e897a80ea819b0eb08c01>@@AEAV<lambda_38ce7e780aa69e748d6df282ebc68efe>@@$$QEAV<lambda_99fb1378e971ab6e7edea83e3a7a83a2>@@@Z@4HA 0000000180077374     libucrt:commit.obj
 0002:0001d374       $unwind$__acrt_initialize_lowio$fin$0 0000000180077374     libucrt:ioinit.obj
 0002:0001d374       $unwind$?fin$0@?0???$common_lseek@_J@@YA_JH_JH@Z@4HA 0000000180077374     libucrt:lseek.obj
 0002:0001d374       $unwind$__acrt_lowio_ensure_fh_exists$fin$0 0000000180077374     libucrt:osfinfo.obj
 0002:0001d374       $unwind$_write$fin$0       0000000180077374     libucrt:write.obj
 0002:0001d374       $unwind$?fin$0@?0???$?RV<lambda_efdfa57d1f175319df784efa44bb7b81>@@AEAV<lambda_5f0a4c1567f8adc6734073e5d1e1b35c>@@V<lambda_2e8a7d3640ea6ccb4c2413664c2db6fd>@@@?$__crt_seh_guarded_call@X@@QEAAX$$QEAV<lambda_efdfa57d1f175319df784efa44bb7b81>@@AEAV<lambda_5f0a4c1567f8adc6734073e5d1e1b35c>@@$$QEAV<lambda_2e8a7d3640ea6ccb4c2413664c2db6fd>@@@Z@4HA 0000000180077374     libucrt:mbctype.obj
 0002:0001d374       $unwind$?fin$0@?0??update_thread_multibyte_data_internal@@YAPEAU__crt_multibyte_data@@QEAU__acrt_ptd@@QEAPEAU1@@Z@4HA 0000000180077374     libucrt:mbctype.obj
 0002:0001d374       $unwind$?fin$0@?0???$?RV<lambda_450d765d439847d4c735a33c368b5fc0>@@AEAV<lambda_44731a7d0e6d81c3e6aa82d741081786>@@V<lambda_601a2a7da3b7a96e9554ac7215c4b07c>@@@?$__crt_seh_guarded_call@P6AXH@Z@@QEAAP6AXH@Z$$QEAV<lambda_450d765d439847d4c735a33c368b5fc0>@@AEAV<lambda_44731a7d0e6d81c3e6aa82d741081786>@@$$QEAV<lambda_601a2a7da3b7a96e9554ac7215c4b07c>@@@Z@4HA 0000000180077374     libucrt:signal.obj
 0002:0001d374       $unwind$raise$fin$0        0000000180077374     libucrt:signal.obj
 0002:0001d374       $unwind$?filt$0@?0???R<lambda_6e4b09c48022b2350581041d5f6b0c4c>@@QEBA@XZ@4HA 0000000180077374     libucrt:exit.obj
 0002:0001d374       $unwind$?fin$0@?0???$?RV<lambda_d80eeec6fff315bfe5c115232f3240e3>@@AEAV<lambda_6e4b09c48022b2350581041d5f6b0c4c>@@V<lambda_2358e3775559c9db80273638284d5e45>@@@?$__crt_seh_guarded_call@X@@QEAAX$$QEAV<lambda_d80eeec6fff315bfe5c115232f3240e3>@@AEAV<lambda_6e4b09c48022b2350581041d5f6b0c4c>@@$$QEAV<lambda_2358e3775559c9db80273638284d5e45>@@@Z@4HA 0000000180077374     libucrt:exit.obj
 0002:0001d374       $unwind$?fin$0@?0???$?RV<lambda_638799b9deba96c50f710eeac98168cd>@@AEAV<lambda_22ebabd17bc4fa466a2aca6d8deb888d>@@V<lambda_a6f7d7db0129f75315ebf26d50c089f1>@@@?$__crt_seh_guarded_call@H@@QEAAH$$QEAV<lambda_638799b9deba96c50f710eeac98168cd>@@AEAV<lambda_22ebabd17bc4fa466a2aca6d8deb888d>@@$$QEAV<lambda_a6f7d7db0129f75315ebf26d50c089f1>@@@Z@4HA 0000000180077374     libucrt:onexit.obj
 0002:0001d374       $unwind$?fin$0@?0???$?RV<lambda_7777bce6b2f8c936911f934f8298dc43>@@AEAV<lambda_f03950bc5685219e0bcd2087efbe011e>@@V<lambda_3883c3dff614d5e0c5f61bb1ac94921c>@@@?$__crt_seh_guarded_call@H@@QEAAH$$QEAV<lambda_7777bce6b2f8c936911f934f8298dc43>@@AEAV<lambda_f03950bc5685219e0bcd2087efbe011e>@@$$QEAV<lambda_3883c3dff614d5e0c5f61bb1ac94921c>@@@Z@4HA 0000000180077374     libucrt:onexit.obj
 0002:0001d374       $unwind$?filt$0@?0???$thread_start@P6AIPEAX@Z$00@@YAKQEAX@Z@4HA 0000000180077374     libucrt:thread.obj
 0002:0001d374       $unwind$_fcloseall$fin$0   0000000180077374     libucrt:closeall.obj
 0002:0001d374       $unwind$fclose$fin$0       0000000180077374     libucrt:fclose.obj
 0002:0001d374       $unwind$?fin$0@?0???$?RV<lambda_842d9ff0dc9ef11c61343bbaebe7f885>@@AEAV<lambda_c5860995281e5c4ce005b3de8f5874ee>@@V<lambda_d90129c13df834fdcbf8d2b88dafcf2d>@@@?$__crt_seh_guarded_call@X@@QEAAX$$QEAV<lambda_842d9ff0dc9ef11c61343bbaebe7f885>@@AEAV<lambda_c5860995281e5c4ce005b3de8f5874ee>@@$$QEAV<lambda_d90129c13df834fdcbf8d2b88dafcf2d>@@@Z@4HA 0000000180077374     libucrt:fflush.obj
 0002:0001d374       $unwind$?fin$0@?0???$?RV<lambda_886d6c58226a84441f68b9f2b8217b83>@@AEAV<lambda_ab61a845afdef5b7c387490eaf3616ee>@@V<lambda_f7f22ab5edc0698d5f6905b0d3f44752>@@@?$__crt_seh_guarded_call@X@@QEAAX$$QEAV<lambda_886d6c58226a84441f68b9f2b8217b83>@@AEAV<lambda_ab61a845afdef5b7c387490eaf3616ee>@@$$QEAV<lambda_f7f22ab5edc0698d5f6905b0d3f44752>@@@Z@4HA 0000000180077374     libucrt:fflush.obj
 0002:0001d374       $unwind$?fin$0@?0???$?RV<lambda_fe5404e9642edbb7c8ae71e1dcfa4018>@@AEAV<lambda_36eeb330e99a4f0bf8a7da86d0894cb9>@@V<lambda_2fa474834de80dc12f7a3c6eddd7a366>@@@?$__crt_seh_guarded_call@H@@QEAAH$$QEAV<lambda_fe5404e9642edbb7c8ae71e1dcfa4018>@@AEAV<lambda_36eeb330e99a4f0bf8a7da86d0894cb9>@@$$QEAV<lambda_2fa474834de80dc12f7a3c6eddd7a366>@@@Z@4HA 0000000180077374     libucrt:output.obj
 0002:0001d374       $unwind$__tzset$fin$0      0000000180077374     libucrt:tzset.obj
 0002:0001d374       $unwind$_ctrlfp$filt$0     0000000180077374     libucrt:fpctrl.obj
 0002:0001d374       $unwind$common_control87$filt$0 0000000180077374     libucrt:ieee.obj
 0002:0001d37c       $unwind$?calculate_shared_public_key@Multisig@Crypto@@YAXAEBV?$vector@UPublicKey@Crypto@@V?$allocator@UPublicKey@Crypto@@@std@@@std@@AEAUPublicKey@2@@Z 000000018007737c     multisig.obj
 0002:0001d3a8       $cppxdata$?calculate_shared_public_key@Multisig@Crypto@@YAXAEBV?$vector@UPublicKey@Crypto@@V?$allocator@UPublicKey@Crypto@@@std@@@std@@AEAUPublicKey@2@@Z 00000001800773a8     multisig.obj
 0002:0001d3b1       $stateUnwindMap$?calculate_shared_public_key@Multisig@Crypto@@YAXAEBV?$vector@UPublicKey@Crypto@@V?$allocator@UPublicKey@Crypto@@@std@@@std@@AEAUPublicKey@2@@Z 00000001800773b1     multisig.obj
 0002:0001d3ca       $ip2state$?calculate_shared_public_key@Multisig@Crypto@@YAXAEBV?$vector@UPublicKey@Crypto@@V?$allocator@UPublicKey@Crypto@@@std@@@std@@AEAUPublicKey@2@@Z 00000001800773ca     multisig.obj
 0002:0001d3d8       $unwind$?restore_key_image@Multisig@Crypto@@YA?AUKeyImage@2@AEBUPublicKey@2@AEBUEllipticCurveScalar@2@AEBV?$vector@UKeyImage@Crypto@@V?$allocator@UKeyImage@Crypto@@@std@@@std@@@Z 00000001800773d8     multisig.obj
 0002:0001d404       $cppxdata$?restore_key_image@Multisig@Crypto@@YA?AUKeyImage@2@AEBUPublicKey@2@AEBUEllipticCurveScalar@2@AEBV?$vector@UKeyImage@Crypto@@V?$allocator@UKeyImage@Crypto@@@std@@@std@@@Z 0000000180077404     multisig.obj
 0002:0001d40d       $stateUnwindMap$?restore_key_image@Multisig@Crypto@@YA?AUKeyImage@2@AEBUPublicKey@2@AEBUEllipticCurveScalar@2@AEBV?$vector@UKeyImage@Crypto@@V?$allocator@UKeyImage@Crypto@@@std@@@std@@@Z 000000018007740d     multisig.obj
 0002:0001d427       $ip2state$?restore_key_image@Multisig@Crypto@@YA?AUKeyImage@2@AEBUPublicKey@2@AEBUEllipticCurveScalar@2@AEBV?$vector@UKeyImage@Crypto@@V?$allocator@UKeyImage@Crypto@@@std@@@std@@@Z 0000000180077427     multisig.obj
 0002:0001d438       $unwind$?restore_ring_signatures@Multisig@Crypto@@YA_NAEBUEllipticCurveScalar@2@AEBV?$vector@USecretKey@Crypto@@V?$allocator@USecretKey@Crypto@@@std@@@std@@_K0AEAV?$vector@USignature@Crypto@@V?$allocator@USignature@Crypto@@@std@@@5@@Z 0000000180077438     multisig.obj
 0002:0001d458       $cppxdata$?restore_ring_signatures@Multisig@Crypto@@YA_NAEBUEllipticCurveScalar@2@AEBV?$vector@USecretKey@Crypto@@V?$allocator@USecretKey@Crypto@@@std@@@std@@_K0AEAV?$vector@USignature@Crypto@@V?$allocator@USignature@Crypto@@@std@@@5@@Z 0000000180077458     multisig.obj
 0002:0001d461       $stateUnwindMap$?restore_ring_signatures@Multisig@Crypto@@YA_NAEBUEllipticCurveScalar@2@AEBV?$vector@USecretKey@Crypto@@V?$allocator@USecretKey@Crypto@@@std@@@std@@_K0AEAV?$vector@USignature@Crypto@@V?$allocator@USignature@Crypto@@@std@@@5@@Z 0000000180077461     multisig.obj
 0002:0001d468       $ip2state$?restore_ring_signatures@Multisig@Crypto@@YA_NAEBUEllipticCurveScalar@2@AEBV?$vector@USecretKey@Crypto@@V?$allocator@USecretKey@Crypto@@@std@@@std@@_K0AEAV?$vector@USignature@Crypto@@V?$allocator@USignature@Crypto@@@std@@@5@@Z 0000000180077468     multisig.obj
 0002:0001d470       $unwind$??$dedupeAndSortKeys@USecretKey@Crypto@@@Multisig@Crypto@@YA?AV?$vector@USecretKey@Crypto@@V?$allocator@USecretKey@Crypto@@@std@@@std@@AEBV23@@Z 0000000180077470     multisig.obj
 0002:0001d494       $cppxdata$??$dedupeAndSortKeys@USecretKey@Crypto@@@Multisig@Crypto@@YA?AV?$vector@USecretKey@Crypto@@V?$allocator@USecretKey@Crypto@@@std@@@std@@AEBV23@@Z 0000000180077494     multisig.obj
 0002:0001d49d       $stateUnwindMap$??$dedupeAndSortKeys@USecretKey@Crypto@@@Multisig@Crypto@@YA?AV?$vector@USecretKey@Crypto@@V?$allocator@USecretKey@Crypto@@@std@@@std@@AEBV23@@Z 000000018007749d     multisig.obj
 0002:0001d4b0       $ip2state$??$dedupeAndSortKeys@USecretKey@Crypto@@@Multisig@Crypto@@YA?AV?$vector@USecretKey@Crypto@@V?$allocator@USecretKey@Crypto@@@std@@@std@@AEBV23@@Z 00000001800774b0     multisig.obj
 0002:0001d4bc       $unwind$??$addKeys@UKeyImage@Crypto@@@Multisig@Crypto@@YA?AUKeyImage@1@AEBV?$vector@UKeyImage@Crypto@@V?$allocator@UKeyImage@Crypto@@@std@@@std@@@Z 00000001800774bc     multisig.obj
 0002:0001d4bc       $unwind$??$addKeys@UPublicKey@Crypto@@@Multisig@Crypto@@YA?AUPublicKey@1@AEBV?$vector@UPublicKey@Crypto@@V?$allocator@UPublicKey@Crypto@@@std@@@std@@@Z 00000001800774bc     multisig.obj
 0002:0001d4bc       $unwind$??$addKeys@USecretKey@Crypto@@@Multisig@Crypto@@YA?AUSecretKey@1@AEBV?$vector@USecretKey@Crypto@@V?$allocator@USecretKey@Crypto@@@std@@@std@@@Z 00000001800774bc     multisig.obj
 0002:0001d4d4       $chain$2$??$addKeys@UKeyImage@Crypto@@@Multisig@Crypto@@YA?AUKeyImage@1@AEBV?$vector@UKeyImage@Crypto@@V?$allocator@UKeyImage@Crypto@@@std@@@std@@@Z 00000001800774d4     multisig.obj
 0002:0001d4d4       $chain$2$??$addKeys@UPublicKey@Crypto@@@Multisig@Crypto@@YA?AUPublicKey@1@AEBV?$vector@UPublicKey@Crypto@@V?$allocator@UPublicKey@Crypto@@@std@@@std@@@Z 00000001800774d4     multisig.obj
 0002:0001d4d4       $chain$2$??$addKeys@USecretKey@Crypto@@@Multisig@Crypto@@YA?AUSecretKey@1@AEBV?$vector@USecretKey@Crypto@@V?$allocator@USecretKey@Crypto@@@std@@@std@@@Z 00000001800774d4     multisig.obj
 0002:0001d4f0       $chain$3$??$addKeys@UKeyImage@Crypto@@@Multisig@Crypto@@YA?AUKeyImage@1@AEBV?$vector@UKeyImage@Crypto@@V?$allocator@UKeyImage@Crypto@@@std@@@std@@@Z 00000001800774f0     multisig.obj
 0002:0001d4f0       $chain$3$??$addKeys@UPublicKey@Crypto@@@Multisig@Crypto@@YA?AUPublicKey@1@AEBV?$vector@UPublicKey@Crypto@@V?$allocator@UPublicKey@Crypto@@@std@@@std@@@Z 00000001800774f0     multisig.obj
 0002:0001d4f0       $chain$3$??$addKeys@USecretKey@Crypto@@@Multisig@Crypto@@YA?AUSecretKey@1@AEBV?$vector@USecretKey@Crypto@@V?$allocator@USecretKey@Crypto@@@std@@@std@@@Z 00000001800774f0     multisig.obj
 0002:0001d500       $chain$4$??$addKeys@UKeyImage@Crypto@@@Multisig@Crypto@@YA?AUKeyImage@1@AEBV?$vector@UKeyImage@Crypto@@V?$allocator@UKeyImage@Crypto@@@std@@@std@@@Z 0000000180077500     multisig.obj
 0002:0001d500       $chain$4$??$addKeys@UPublicKey@Crypto@@@Multisig@Crypto@@YA?AUPublicKey@1@AEBV?$vector@UPublicKey@Crypto@@V?$allocator@UPublicKey@Crypto@@@std@@@std@@@Z 0000000180077500     multisig.obj
 0002:0001d500       $chain$4$??$addKeys@USecretKey@Crypto@@@Multisig@Crypto@@YA?AUSecretKey@1@AEBV?$vector@USecretKey@Crypto@@V?$allocator@USecretKey@Crypto@@@std@@@std@@@Z 0000000180077500     multisig.obj
 0002:0001d51c       $unwind$??$addKeys@UKeyImage@Crypto@@@Multisig@Crypto@@YA?AUKeyImage@1@AEBU21@AEBV?$vector@UKeyImage@Crypto@@V?$allocator@UKeyImage@Crypto@@@std@@@std@@@Z 000000018007751c     multisig.obj
 0002:0001d51c       $unwind$??$addKeys@USecretKey@Crypto@@@Multisig@Crypto@@YA?AUSecretKey@1@AEBU21@AEBV?$vector@USecretKey@Crypto@@V?$allocator@USecretKey@Crypto@@@std@@@std@@@Z 000000018007751c     multisig.obj
 0002:0001d53c       $cppxdata$??$addKeys@UKeyImage@Crypto@@@Multisig@Crypto@@YA?AUKeyImage@1@AEBU21@AEBV?$vector@UKeyImage@Crypto@@V?$allocator@UKeyImage@Crypto@@@std@@@std@@@Z 000000018007753c     multisig.obj
 0002:0001d53c       $cppxdata$??$addKeys@USecretKey@Crypto@@@Multisig@Crypto@@YA?AUSecretKey@1@AEBU21@AEBV?$vector@USecretKey@Crypto@@V?$allocator@USecretKey@Crypto@@@std@@@std@@@Z 000000018007753c     multisig.obj
 0002:0001d545       $stateUnwindMap$??$addKeys@UKeyImage@Crypto@@@Multisig@Crypto@@YA?AUKeyImage@1@AEBU21@AEBV?$vector@UKeyImage@Crypto@@V?$allocator@UKeyImage@Crypto@@@std@@@std@@@Z 0000000180077545     multisig.obj
 0002:0001d545       $stateUnwindMap$??$addKeys@USecretKey@Crypto@@@Multisig@Crypto@@YA?AUSecretKey@1@AEBU21@AEBV?$vector@USecretKey@Crypto@@V?$allocator@USecretKey@Crypto@@@std@@@std@@@Z 0000000180077545     multisig.obj
 0002:0001d545       $stateUnwindMap$?restoreKeyImage@Cryptography@Core@@SA?AV?$basic_string@DU?$char_traits@D@std@@V?$allocator@D@2@@std@@AEBV34@0_KAEBV?$vector@V?$basic_string@DU?$char_traits@D@std@@V?$allocator@D@2@@std@@V?$allocator@V?$basic_string@DU?$char_traits@D@std@@V?$allocator@D@2@@std@@@2@@4@@Z 0000000180077545     turtlecoin-crypto.obj
 0002:0001d54c       $ip2state$??$addKeys@UKeyImage@Crypto@@@Multisig@Crypto@@YA?AUKeyImage@1@AEBU21@AEBV?$vector@UKeyImage@Crypto@@V?$allocator@UKeyImage@Crypto@@@std@@@std@@@Z 000000018007754c     multisig.obj
 0002:0001d54c       $ip2state$??$addKeys@USecretKey@Crypto@@@Multisig@Crypto@@YA?AUSecretKey@1@AEBU21@AEBV?$vector@USecretKey@Crypto@@V?$allocator@USecretKey@Crypto@@@std@@@std@@@Z 000000018007754c     multisig.obj
 0002:0001d554       $unwind$??$_Emplace_reallocate@USecretKey@Crypto@@@?$vector@USecretKey@Crypto@@V?$allocator@USecretKey@Crypto@@@std@@@std@@QEAAPEAUSecretKey@Crypto@@QEAU23@$$QEAU23@@Z 0000000180077554     multisig.obj
 0002:0001d554       $unwind$??$_Emplace_reallocate@AEBUHash@Crypto@@@?$vector@UHash@Crypto@@V?$allocator@UHash@Crypto@@@std@@@std@@QEAAPEAUHash@Crypto@@QEAU23@AEBU23@@Z 0000000180077554     turtlecoin-crypto.obj
 0002:0001d554       $unwind$??$_Emplace_reallocate@AEBUKeyImage@Crypto@@@?$vector@UKeyImage@Crypto@@V?$allocator@UKeyImage@Crypto@@@std@@@std@@QEAAPEAUKeyImage@Crypto@@QEAU23@AEBU23@@Z 0000000180077554     turtlecoin-crypto.obj
 0002:0001d554       $unwind$??$_Emplace_reallocate@AEBUPublicKey@Crypto@@@?$vector@UPublicKey@Crypto@@V?$allocator@UPublicKey@Crypto@@@std@@@std@@QEAAPEAUPublicKey@Crypto@@QEAU23@AEBU23@@Z 0000000180077554     turtlecoin-crypto.obj
 0002:0001d554       $unwind$??$_Emplace_reallocate@AEBUSecretKey@Crypto@@@?$vector@USecretKey@Crypto@@V?$allocator@USecretKey@Crypto@@@std@@@std@@QEAAPEAUSecretKey@Crypto@@QEAU23@AEBU23@@Z 0000000180077554     turtlecoin-crypto.obj
 0002:0001d554       $unwind$??$_Emplace_reallocate@AEBUSignature@Crypto@@@?$vector@USignature@Crypto@@V?$allocator@USignature@Crypto@@@std@@@std@@QEAAPEAUSignature@Crypto@@QEAU23@AEBU23@@Z 0000000180077554     turtlecoin-crypto.obj
 0002:0001d564       $chain$2$??$_Emplace_reallocate@USecretKey@Crypto@@@?$vector@USecretKey@Crypto@@V?$allocator@USecretKey@Crypto@@@std@@@std@@QEAAPEAUSecretKey@Crypto@@QEAU23@$$QEAU23@@Z 0000000180077564     multisig.obj
 0002:0001d564       $chain$2$??$_Emplace_reallocate@AEBUHash@Crypto@@@?$vector@UHash@Crypto@@V?$allocator@UHash@Crypto@@@std@@@std@@QEAAPEAUHash@Crypto@@QEAU23@AEBU23@@Z 0000000180077564     turtlecoin-crypto.obj
 0002:0001d564       $chain$2$??$_Emplace_reallocate@AEBUKeyImage@Crypto@@@?$vector@UKeyImage@Crypto@@V?$allocator@UKeyImage@Crypto@@@std@@@std@@QEAAPEAUKeyImage@Crypto@@QEAU23@AEBU23@@Z 0000000180077564     turtlecoin-crypto.obj
 0002:0001d564       $chain$2$??$_Emplace_reallocate@AEBUPublicKey@Crypto@@@?$vector@UPublicKey@Crypto@@V?$allocator@UPublicKey@Crypto@@@std@@@std@@QEAAPEAUPublicKey@Crypto@@QEAU23@AEBU23@@Z 0000000180077564     turtlecoin-crypto.obj
 0002:0001d564       $chain$2$??$_Emplace_reallocate@AEBUSecretKey@Crypto@@@?$vector@USecretKey@Crypto@@V?$allocator@USecretKey@Crypto@@@std@@@std@@QEAAPEAUSecretKey@Crypto@@QEAU23@AEBU23@@Z 0000000180077564     turtlecoin-crypto.obj
 0002:0001d580       $chain$3$??$_Emplace_reallocate@USecretKey@Crypto@@@?$vector@USecretKey@Crypto@@V?$allocator@USecretKey@Crypto@@@std@@@std@@QEAAPEAUSecretKey@Crypto@@QEAU23@$$QEAU23@@Z 0000000180077580     multisig.obj
 0002:0001d580       $chain$3$??$_Emplace_reallocate@AEBUHash@Crypto@@@?$vector@UHash@Crypto@@V?$allocator@UHash@Crypto@@@std@@@std@@QEAAPEAUHash@Crypto@@QEAU23@AEBU23@@Z 0000000180077580     turtlecoin-crypto.obj
 0002:0001d580       $chain$3$??$_Emplace_reallocate@AEBUKeyImage@Crypto@@@?$vector@UKeyImage@Crypto@@V?$allocator@UKeyImage@Crypto@@@std@@@std@@QEAAPEAUKeyImage@Crypto@@QEAU23@AEBU23@@Z 0000000180077580     turtlecoin-crypto.obj
 0002:0001d580       $chain$3$??$_Emplace_reallocate@AEBUPublicKey@Crypto@@@?$vector@UPublicKey@Crypto@@V?$allocator@UPublicKey@Crypto@@@std@@@std@@QEAAPEAUPublicKey@Crypto@@QEAU23@AEBU23@@Z 0000000180077580     turtlecoin-crypto.obj
 0002:0001d580       $chain$3$??$_Emplace_reallocate@AEBUSecretKey@Crypto@@@?$vector@USecretKey@Crypto@@V?$allocator@USecretKey@Crypto@@@std@@@std@@QEAAPEAUSecretKey@Crypto@@QEAU23@AEBU23@@Z 0000000180077580     turtlecoin-crypto.obj
 0002:0001d590       $unwind$??4?$basic_string@DU?$char_traits@D@std@@V?$allocator@D@2@@std@@QEAAAEAV01@$$QEAV01@@Z 0000000180077590     StringTools.obj
 0002:0001d590       $unwind$??1?$_Tree@V?$_Tset_traits@UKeyImage@Crypto@@V<lambda_738093f31342dc7f78ed283946eb6f8a>@@V?$allocator@UKeyImage@Crypto@@@std@@$0A@@std@@@std@@QEAA@XZ 0000000180077590     multisig.obj
 0002:0001d590       $unwind$??1?$_Tree@V?$_Tset_traits@UPublicKey@Crypto@@V<lambda_b374d6cd7bfa8c7252b097a9a7bcf120>@@V?$allocator@UPublicKey@Crypto@@@std@@$0A@@std@@@std@@QEAA@XZ 0000000180077590     multisig.obj
 0002:0001d590       $unwind$??1?$_Tree@V?$_Tset_traits@USecretKey@Crypto@@V<lambda_1387b378ad95fc3feecc498563e668f1>@@V?$allocator@USecretKey@Crypto@@@std@@$0A@@std@@@std@@QEAA@XZ 0000000180077590     multisig.obj
 0002:0001d590       $unwind$??1?$set@UKeyImage@Crypto@@V<lambda_738093f31342dc7f78ed283946eb6f8a>@@V?$allocator@UKeyImage@Crypto@@@std@@@std@@QEAA@XZ 0000000180077590     multisig.obj
 0002:0001d590       $unwind$??1?$set@UPublicKey@Crypto@@V<lambda_b374d6cd7bfa8c7252b097a9a7bcf120>@@V?$allocator@UPublicKey@Crypto@@@std@@@std@@QEAA@XZ 0000000180077590     multisig.obj
 0002:0001d590       $unwind$??1?$set@USecretKey@Crypto@@V<lambda_1387b378ad95fc3feecc498563e668f1>@@V?$allocator@USecretKey@Crypto@@@std@@@std@@QEAA@XZ 0000000180077590     multisig.obj
 0002:0001d590       $unwind$oaes_key_import_data 0000000180077590     oaes_lib.obj
 0002:0001d590       $unwind$?DloadGetSRWLockFunctionPointers@@YAEXZ 0000000180077590     DelayImp:delayhlp.obj
 0002:0001d590       $unwind$_RTC_Initialize    0000000180077590     LIBCMT:initsect.obj
 0002:0001d590       $unwind$_RTC_Terminate     0000000180077590     LIBCMT:initsect.obj
 0002:0001d590       $unwind$??_Gbad_alloc@std@@UEAAPEAXI@Z 0000000180077590     LIBCMT:throw_bad_alloc.obj
 0002:0001d590       $unwind$??_Gbad_array_new_length@std@@UEAAPEAXI@Z 0000000180077590     LIBCMT:throw_bad_alloc.obj
 0002:0001d590       $unwind$??_Gexception@std@@UEAAPEAXI@Z 0000000180077590     LIBCMT:throw_bad_alloc.obj
 0002:0001d590       $unwind$??0_Init_locks@std@@QEAA@XZ 0000000180077590     libcpmt:xlock.obj
 0002:0001d590       $unwind$??_Glength_error@std@@UEAAPEAXI@Z 0000000180077590     libcpmt:xthrow.obj
 0002:0001d590       $unwind$??_Glogic_error@std@@UEAAPEAXI@Z 0000000180077590     libcpmt:xthrow.obj
 0002:0001d590       $unwind$??_Gout_of_range@std@@UEAAPEAXI@Z 0000000180077590     libcpmt:xthrow.obj
 0002:0001d590       $unwind$__FrameUnwindFilter 0000000180077590     libvcruntime:ehhelpers.obj
 0002:0001d590       $unwind$??_Gbad_exception@std@@UEAAPEAXI@Z 0000000180077590     libvcruntime:frame.obj
 0002:0001d590       $unwind$?ExFilterRethrowFH4@@YAHPEAU_EXCEPTION_POINTERS@@PEAUEHExceptionRecord@@HPEAH@Z 0000000180077590     libvcruntime:frame.obj
 0002:0001d590       $unwind$_FindAndUnlinkFrame 0000000180077590     libvcruntime:risctrnsctrl.obj
 0002:0001d590       $unwind$__vcrt_FlsSetValue 0000000180077590     libvcruntime:winapi_downlevel.obj
 0002:0001d590       $unwind$??$common_initialize_environment_nolock@D@@YAHXZ 0000000180077590     libucrt:environment_initialization.obj
 0002:0001d590       $unwind$??$common_initialize_environment_nolock@_W@@YAHXZ 0000000180077590     libucrt:environment_initialization.obj
 0002:0001d590       $unwind$_realloc_base      0000000180077590     libucrt:realloc_base.obj
 0002:0001d590       $unwind$?replace_current_thread_locale_nolock@@YAXQEAU__acrt_ptd@@QEAU__crt_locale_data@@@Z 0000000180077590     libucrt:per_thread_data.obj
 0002:0001d590       $unwind$__acrt_execute_uninitializers 0000000180077590     libucrt:shared_initialization.obj
 0002:0001d590       $unwind$__acrt_FlsSetValue 0000000180077590     libucrt:winapi_thunks.obj
 0002:0001d590       $unwind$__acrt_LocaleNameToLCID 0000000180077590     libucrt:winapi_thunks.obj
 0002:0001d590       $unwind$__acrt_RtlGenRandom 0000000180077590     libucrt:winapi_thunks.obj
 0002:0001d590       $unwind$_updatetlocinfoEx_nolock 0000000180077590     libucrt:locale_refcounting.obj
 0002:0001d590       $unwind$_close_nolock      0000000180077590     libucrt:close.obj
 0002:0001d590       $unwind$__acrt_uninitialize_lowio 0000000180077590     libucrt:ioinit.obj
 0002:0001d590       $unwind$__acrt_errno_map_os_error 0000000180077590     libucrt:errno.obj
 0002:0001d590       $unwind$_initterm_e        0000000180077590     libucrt:initterm.obj
 0002:0001d590       $unwind$?common_end_thread@@YAXI@Z 0000000180077590     libucrt:thread.obj
 0002:0001d590       $unwind$__acrt_stdio_flush_and_write_narrow_nolock 0000000180077590     libucrt:_flsbuf.obj
 0002:0001d590       $unwind$__acrt_stdio_allocate_buffer_nolock 0000000180077590     libucrt:_getbuf.obj
 0002:0001d590       $unwind$__acrt_stdio_begin_temporary_buffering_nolock 0000000180077590     libucrt:_sftbuf.obj
 0002:0001d590       $unwind$_fclose_nolock     0000000180077590     libucrt:fclose.obj
 0002:0001d590       $unwind$?type_case_n@?$output_processor@DV?$stream_output_adapter@D@__crt_stdio_output@@V?$standard_base@DV?$stream_output_adapter@D@__crt_stdio_output@@@2@@__crt_stdio_output@@AEAA_NXZ 0000000180077590     libucrt:output.obj
 0002:0001d590       $unwind$strncpy_s          0000000180077590     libucrt:strncpy_s.obj
 0002:0001d590       $unwind$wcsncpy_s          0000000180077590     libucrt:wcsncpy_s.obj
 0002:0001d59c       $unwind$??$_Range_construct_or_tidy@V?$_Tree_unchecked_const_iterator@V?$_Tree_val@U?$_Tree_simple_types@UKeyImage@Crypto@@@std@@@std@@U_Iterator_base0@2@@std@@@?$vector@UKeyImage@Crypto@@V?$allocator@UKeyImage@Crypto@@@std@@@std@@AEAAXV?$_Tree_unchecked_const_iterator@V?$_Tree_val@U?$_Tree_simple_types@UKeyImage@Crypto@@@std@@@std@@U_Iterator_base0@2@@1@0Uforward_iterator_tag@1@@Z 000000018007759c     multisig.obj
 0002:0001d59c       $unwind$??$_Range_construct_or_tidy@V?$_Tree_unchecked_const_iterator@V?$_Tree_val@U?$_Tree_simple_types@UPublicKey@Crypto@@@std@@@std@@U_Iterator_base0@2@@std@@@?$vector@UPublicKey@Crypto@@V?$allocator@UPublicKey@Crypto@@@std@@@std@@AEAAXV?$_Tree_unchecked_const_iterator@V?$_Tree_val@U?$_Tree_simple_types@UPublicKey@Crypto@@@std@@@std@@U_Iterator_base0@2@@1@0Uforward_iterator_tag@1@@Z 000000018007759c     multisig.obj
 0002:0001d59c       $unwind$??$_Range_construct_or_tidy@V?$_Tree_unchecked_const_iterator@V?$_Tree_val@U?$_Tree_simple_types@USecretKey@Crypto@@@std@@@std@@U_Iterator_base0@2@@std@@@?$vector@USecretKey@Crypto@@V?$allocator@USecretKey@Crypto@@@std@@@std@@AEAAXV?$_Tree_unchecked_const_iterator@V?$_Tree_val@U?$_Tree_simple_types@USecretKey@Crypto@@@std@@@std@@U_Iterator_base0@2@@1@0Uforward_iterator_tag@1@@Z 000000018007759c     multisig.obj
 0002:0001d59c       $unwind$__std_exception_copy 000000018007759c     libvcruntime:std_exception.obj
 0002:0001d59c       $unwind$_free_osfhnd       000000018007759c     libucrt:osfinfo.obj
 0002:0001d59c       $unwind$?compute_year@@YAHAEA_JAEA_N@Z 000000018007759c     libucrt:gmtime.obj
 0002:0001d5b0       $unwind$??$_Find_hint@UKeyImage@Crypto@@@?$_Tree@V?$_Tset_traits@UKeyImage@Crypto@@V<lambda_738093f31342dc7f78ed283946eb6f8a>@@V?$allocator@UKeyImage@Crypto@@@std@@$0A@@std@@@std@@IEBA?AU?$_Tree_find_hint_result@PEAU?$_Tree_node@UKeyImage@Crypto@@PEAX@std@@@1@QEAU?$_Tree_node@UKeyImage@Crypto@@PEAX@1@AEBUKeyImage@Crypto@@@Z 00000001800775b0     multisig.obj
 0002:0001d5b0       $unwind$??$_Find_hint@UPublicKey@Crypto@@@?$_Tree@V?$_Tset_traits@UPublicKey@Crypto@@V<lambda_b374d6cd7bfa8c7252b097a9a7bcf120>@@V?$allocator@UPublicKey@Crypto@@@std@@$0A@@std@@@std@@IEBA?AU?$_Tree_find_hint_result@PEAU?$_Tree_node@UPublicKey@Crypto@@PEAX@std@@@1@QEAU?$_Tree_node@UPublicKey@Crypto@@PEAX@1@AEBUPublicKey@Crypto@@@Z 00000001800775b0     multisig.obj
 0002:0001d5b0       $unwind$??$_Find_hint@USecretKey@Crypto@@@?$_Tree@V?$_Tset_traits@USecretKey@Crypto@@V<lambda_1387b378ad95fc3feecc498563e668f1>@@V?$allocator@USecretKey@Crypto@@@std@@$0A@@std@@@std@@IEBA?AU?$_Tree_find_hint_result@PEAU?$_Tree_node@USecretKey@Crypto@@PEAX@std@@@1@QEAU?$_Tree_node@USecretKey@Crypto@@PEAX@1@AEBUSecretKey@Crypto@@@Z 00000001800775b0     multisig.obj
 0002:0001d5cc       $chain$0$oaes_key_destroy  00000001800775cc     oaes_lib.obj
 0002:0001d5e0       $chain$1$oaes_key_destroy  00000001800775e0     oaes_lib.obj
 0002:0001d5f0       $chain$2$oaes_key_expand   00000001800775f0     oaes_lib.obj
 0002:0001d60c       $chain$3$oaes_key_expand   000000018007760c     oaes_lib.obj
 0002:0001d61c       $unwind$Skein_256_Process_Block 000000018007761c     skein.obj
 0002:0001d634       $unwind$Skein_512_Process_Block 0000000180077634     skein.obj
 0002:0001d64c       $unwind$Skein1024_Process_Block 000000018007764c     skein.obj
 0002:0001d67c       $unwind$Skein_512_Update   000000018007767c     skein.obj
 0002:0001d68c       $chain$0$Skein_512_Update  000000018007768c     skein.obj
 0002:0001d6a0       $chain$1$Skein_512_Update  00000001800776a0     skein.obj
 0002:0001d6b0       $unwind$Final              00000001800776b0     skein.obj
 0002:0001d6cc       $unwind$fprintf            00000001800776cc     slow-hash-portable.obj
 0002:0001d6d8       $unwind$cn_slow_hash       00000001800776d8     slow-hash-portable.obj
 0002:0001d6fc       $chain$4$cn_slow_hash      00000001800776fc     slow-hash-portable.obj
 0002:0001d720       $chain$5$cn_slow_hash      0000000180077720     slow-hash-portable.obj
 0002:0001d730       $unwind$?fromHex@Common@@YA?AV?$vector@EV?$allocator@E@std@@@std@@AEBV?$basic_string@DU?$char_traits@D@std@@V?$allocator@D@2@@3@@Z 0000000180077730     StringTools.obj
 0002:0001d74c       $cppxdata$?fromHex@Common@@YA?AV?$vector@EV?$allocator@E@std@@@std@@AEBV?$basic_string@DU?$char_traits@D@std@@V?$allocator@D@2@@3@@Z 000000018007774c     StringTools.obj
 0002:0001d755       $stateUnwindMap$?fromHex@Common@@YA?AV?$vector@EV?$allocator@E@std@@@std@@AEBV?$basic_string@DU?$char_traits@D@std@@V?$allocator@D@2@@3@@Z 0000000180077755     StringTools.obj
 0002:0001d75b       $ip2state$?fromHex@Common@@YA?AV?$vector@EV?$allocator@E@std@@@std@@AEBV?$basic_string@DU?$char_traits@D@std@@V?$allocator@D@2@@3@@Z 000000018007775b     StringTools.obj
 0002:0001d760       $unwind$??0?$basic_string@DU?$char_traits@D@std@@V?$allocator@D@2@@std@@QEAA@AEBV01@@Z 0000000180077760     StringTools.obj
 0002:0001d774       $unwind$?assign@?$basic_string@DU?$char_traits@D@std@@V?$allocator@D@2@@std@@QEAAAEAV12@QEBD_K@Z 0000000180077774     StringTools.obj
 0002:0001d788       $chain$0$?assign@?$basic_string@DU?$char_traits@D@std@@V?$allocator@D@2@@std@@QEAAAEAV12@QEBD_K@Z 0000000180077788     StringTools.obj
 0002:0001d79c       $chain$1$?assign@?$basic_string@DU?$char_traits@D@std@@V?$allocator@D@2@@std@@QEAAAEAV12@QEBD_K@Z 000000018007779c     StringTools.obj
 0002:0001d7ac       $chain$2$?assign@?$basic_string@DU?$char_traits@D@std@@V?$allocator@D@2@@std@@QEAAAEAV12@QEBD_K@Z 00000001800777ac     StringTools.obj
 0002:0001d7c0       $unwind$??$_Reallocate_grow_by@V<lambda_319d5e083f45f90dcdce5dce53cbb275>@@D@?$basic_string@DU?$char_traits@D@std@@V?$allocator@D@2@@std@@AEAAAEAV01@_KV<lambda_319d5e083f45f90dcdce5dce53cbb275>@@D@Z 00000001800777c0     StringTools.obj
 0002:0001d7d0       $chain$2$??$_Reallocate_grow_by@V<lambda_319d5e083f45f90dcdce5dce53cbb275>@@D@?$basic_string@DU?$char_traits@D@std@@V?$allocator@D@2@@std@@AEAAAEAV01@_KV<lambda_319d5e083f45f90dcdce5dce53cbb275>@@D@Z 00000001800777d0     StringTools.obj
 0002:0001d7ec       $chain$4$??$_Reallocate_grow_by@V<lambda_319d5e083f45f90dcdce5dce53cbb275>@@D@?$basic_string@DU?$char_traits@D@std@@V?$allocator@D@2@@std@@AEAAAEAV01@_KV<lambda_319d5e083f45f90dcdce5dce53cbb275>@@D@Z 00000001800777ec     StringTools.obj
 0002:0001d808       $chain$5$??$_Reallocate_grow_by@V<lambda_319d5e083f45f90dcdce5dce53cbb275>@@D@?$basic_string@DU?$char_traits@D@std@@V?$allocator@D@2@@std@@AEAAAEAV01@_KV<lambda_319d5e083f45f90dcdce5dce53cbb275>@@D@Z 0000000180077808     StringTools.obj
 0002:0001d818       $unwind$tree_hash          0000000180077818     tree-hash.obj
 0002:0001d840       $unwind$tree_branch        0000000180077840     tree-hash.obj
 0002:0001d868       $unwind$argon2_ctx         0000000180077868     argon2.obj
 0002:0001d874       $chain$0$argon2_ctx        0000000180077874     argon2.obj
 0002:0001d888       $chain$1$argon2_ctx        0000000180077888     argon2.obj
 0002:0001d89c       $chain$3$argon2_ctx        000000018007789c     argon2.obj
 0002:0001d8b4       $chain$4$argon2_ctx        00000001800778b4     argon2.obj
 0002:0001d8c4       $chain$5$argon2_ctx        00000001800778c4     argon2.obj
 0002:0001d8d4       $chain$6$argon2_ctx        00000001800778d4     argon2.obj
 0002:0001d8e4       $unwind$argon2_hash        00000001800778e4     argon2.obj
 0002:0001d8f8       $chain$0$argon2_hash       00000001800778f8     argon2.obj
 0002:0001d90c       $chain$1$argon2_hash       000000018007790c     argon2.obj
 0002:0001d91c       $unwind$fill_block         000000018007791c     argon2-arch.obj
 0002:0001d940       $unwind$fill_segment_64    0000000180077940     argon2-arch.obj
 0002:0001d958       $chain$3$fill_segment_64   0000000180077958     argon2-arch.obj
 0002:0001d978       $chain$4$fill_segment_64   0000000180077978     argon2-arch.obj
 0002:0001d98c       $chain$5$fill_segment_64   000000018007798c     argon2-arch.obj
 0002:0001d99c       $chain$6$fill_segment_64   000000018007799c     argon2-arch.obj
 0002:0001d9ac       $unwind$finalize           00000001800779ac     core.obj
 0002:0001d9c0       $chain$0$finalize          00000001800779c0     core.obj
 0002:0001d9d4       $chain$1$finalize          00000001800779d4     core.obj
 0002:0001d9e8       $chain$2$finalize          00000001800779e8     core.obj
 0002:0001d9f8       $chain$3$finalize          00000001800779f8     core.obj
 0002:0001da08       $unwind$fill_memory_blocks_mt 0000000180077a08     core.obj
 0002:0001da14       $chain$0$fill_memory_blocks_mt 0000000180077a14     core.obj
 0002:0001da28       $chain$6$fill_memory_blocks_mt 0000000180077a28     core.obj
 0002:0001da4c       $unwind$initial_hash       0000000180077a4c     core.obj
 0002:0001da64       $chain$1$initial_hash      0000000180077a64     core.obj
 0002:0001da7c       $chain$3$initial_hash      0000000180077a7c     core.obj
 0002:0001da94       $chain$4$initial_hash      0000000180077a94     core.obj
 0002:0001daa8       $chain$5$initial_hash      0000000180077aa8     core.obj
 0002:0001dab8       $unwind$initialize         0000000180077ab8     core.obj
 0002:0001dacc       $chain$1$initialize        0000000180077acc     core.obj
 0002:0001dae4       $chain$2$initialize        0000000180077ae4     core.obj
 0002:0001daf4       $unwind$printf             0000000180077af4     genkat.obj
 0002:0001db00       $unwind$initial_kat        0000000180077b00     genkat.obj
 0002:0001db10       $chain$0$initial_kat       0000000180077b10     genkat.obj
 0002:0001db24       $chain$1$initial_kat       0000000180077b24     genkat.obj
 0002:0001db38       $chain$2$initial_kat       0000000180077b38     genkat.obj
 0002:0001db48       $chain$3$initial_kat       0000000180077b48     genkat.obj
 0002:0001db58       $unwind$internal_kat       0000000180077b58     genkat.obj
 0002:0001db60       $chain$0$internal_kat      0000000180077b60     genkat.obj
 0002:0001db74       $chain$4$internal_kat      0000000180077b74     genkat.obj
 0002:0001db94       $chain$5$internal_kat      0000000180077b94     genkat.obj
 0002:0001dba4       $chain$6$internal_kat      0000000180077ba4     genkat.obj
 0002:0001dbb4       $unwind$blake2b_compress   0000000180077bb4     blake2.obj
 0002:0001dbd4       $unwind$blake2b_update     0000000180077bd4     blake2.obj
 0002:0001dbe4       $chain$0$blake2b_update    0000000180077be4     blake2.obj
 0002:0001dbf8       $chain$1$blake2b_update    0000000180077bf8     blake2.obj
 0002:0001dc08       $unwind$blake2b_final      0000000180077c08     blake2.obj
 0002:0001dc20       $unwind$blake2b_long       0000000180077c20     blake2.obj
 0002:0001dc3c       $chain$1$blake2b_long      0000000180077c3c     blake2.obj
 0002:0001dc54       $chain$2$blake2b_long      0000000180077c54     blake2.obj
 0002:0001dc64       $unwind$?tree_hash_from_branch@Crypto@@YAXPEBUHash@1@_KAEBU21@PEBXAEAU21@@Z 0000000180077c64     turtlecoin-crypto.obj
 0002:0001dc7c       $chain$4$?tree_hash_from_branch@Crypto@@YAXPEBUHash@1@_KAEBU21@PEBXAEAU21@@Z 0000000180077c7c     turtlecoin-crypto.obj
 0002:0001dca0       $chain$5$?tree_hash_from_branch@Crypto@@YAXPEBUHash@1@_KAEBU21@PEBXAEAU21@@Z 0000000180077ca0     turtlecoin-crypto.obj
 0002:0001dcb0       $unwind$?cn_fast_hash@Cryptography@Core@@SA?AV?$basic_string@DU?$char_traits@D@std@@V?$allocator@D@2@@std@@V34@@Z 0000000180077cb0     turtlecoin-crypto.obj
 0002:0001dcd4       $cppxdata$?cn_fast_hash@Cryptography@Core@@SA?AV?$basic_string@DU?$char_traits@D@std@@V?$allocator@D@2@@std@@V34@@Z 0000000180077cd4     turtlecoin-crypto.obj
 0002:0001dcdd       $stateUnwindMap$?cn_fast_hash@Cryptography@Core@@SA?AV?$basic_string@DU?$char_traits@D@std@@V?$allocator@D@2@@std@@V34@@Z 0000000180077cdd     turtlecoin-crypto.obj
 0002:0001dcf6       $ip2state$?cn_fast_hash@Cryptography@Core@@SA?AV?$basic_string@DU?$char_traits@D@std@@V?$allocator@D@2@@std@@V34@@Z 0000000180077cf6     turtlecoin-crypto.obj
 0002:0001dd04       $unwind$?cn_dark_slow_hash_v0@Cryptography@Core@@SA?AV?$basic_string@DU?$char_traits@D@std@@V?$allocator@D@2@@std@@V34@@Z 0000000180077d04     turtlecoin-crypto.obj
 0002:0001dd04       $unwind$?cn_slow_hash_v0@Cryptography@Core@@SA?AV?$basic_string@DU?$char_traits@D@std@@V?$allocator@D@2@@std@@V34@@Z 0000000180077d04     turtlecoin-crypto.obj
 0002:0001dd04       $unwind$?cn_turtle_slow_hash_v0@Cryptography@Core@@SA?AV?$basic_string@DU?$char_traits@D@std@@V?$allocator@D@2@@std@@V34@@Z 0000000180077d04     turtlecoin-crypto.obj
 0002:0001dd28       $cppxdata$?cn_dark_slow_hash_v0@Cryptography@Core@@SA?AV?$basic_string@DU?$char_traits@D@std@@V?$allocator@D@2@@std@@V34@@Z 0000000180077d28     turtlecoin-crypto.obj
 0002:0001dd28       $cppxdata$?cn_slow_hash_v0@Cryptography@Core@@SA?AV?$basic_string@DU?$char_traits@D@std@@V?$allocator@D@2@@std@@V34@@Z 0000000180077d28     turtlecoin-crypto.obj
 0002:0001dd28       $cppxdata$?cn_turtle_slow_hash_v0@Cryptography@Core@@SA?AV?$basic_string@DU?$char_traits@D@std@@V?$allocator@D@2@@std@@V34@@Z 0000000180077d28     turtlecoin-crypto.obj
 0002:0001dd31       $stateUnwindMap$?cn_dark_lite_slow_hash_v0@Cryptography@Core@@SA?AV?$basic_string@DU?$char_traits@D@std@@V?$allocator@D@2@@std@@V34@@Z 0000000180077d31     turtlecoin-crypto.obj
 0002:0001dd31       $stateUnwindMap$?cn_dark_lite_slow_hash_v1@Cryptography@Core@@SA?AV?$basic_string@DU?$char_traits@D@std@@V?$allocator@D@2@@std@@V34@@Z 0000000180077d31     turtlecoin-crypto.obj
 0002:0001dd31       $stateUnwindMap$?cn_dark_lite_slow_hash_v2@Cryptography@Core@@SA?AV?$basic_string@DU?$char_traits@D@std@@V?$allocator@D@2@@std@@V34@@Z 0000000180077d31     turtlecoin-crypto.obj
 0002:0001dd31       $stateUnwindMap$?cn_dark_slow_hash_v0@Cryptography@Core@@SA?AV?$basic_string@DU?$char_traits@D@std@@V?$allocator@D@2@@std@@V34@@Z 0000000180077d31     turtlecoin-crypto.obj
 0002:0001dd31       $stateUnwindMap$?cn_dark_slow_hash_v1@Cryptography@Core@@SA?AV?$basic_string@DU?$char_traits@D@std@@V?$allocator@D@2@@std@@V34@@Z 0000000180077d31     turtlecoin-crypto.obj
 0002:0001dd31       $stateUnwindMap$?cn_dark_slow_hash_v2@Cryptography@Core@@SA?AV?$basic_string@DU?$char_traits@D@std@@V?$allocator@D@2@@std@@V34@@Z 0000000180077d31     turtlecoin-crypto.obj
 0002:0001dd31       $stateUnwindMap$?cn_lite_slow_hash_v0@Cryptography@Core@@SA?AV?$basic_string@DU?$char_traits@D@std@@V?$allocator@D@2@@std@@V34@@Z 0000000180077d31     turtlecoin-crypto.obj
 0002:0001dd31       $stateUnwindMap$?cn_lite_slow_hash_v1@Cryptography@Core@@SA?AV?$basic_string@DU?$char_traits@D@std@@V?$allocator@D@2@@std@@V34@@Z 0000000180077d31     turtlecoin-crypto.obj
 0002:0001dd31       $stateUnwindMap$?cn_lite_slow_hash_v2@Cryptography@Core@@SA?AV?$basic_string@DU?$char_traits@D@std@@V?$allocator@D@2@@std@@V34@@Z 0000000180077d31     turtlecoin-crypto.obj
 0002:0001dd31       $stateUnwindMap$?cn_slow_hash_v0@Cryptography@Core@@SA?AV?$basic_string@DU?$char_traits@D@std@@V?$allocator@D@2@@std@@V34@@Z 0000000180077d31     turtlecoin-crypto.obj
 0002:0001dd31       $stateUnwindMap$?cn_slow_hash_v1@Cryptography@Core@@SA?AV?$basic_string@DU?$char_traits@D@std@@V?$allocator@D@2@@std@@V34@@Z 0000000180077d31     turtlecoin-crypto.obj
 0002:0001dd31       $stateUnwindMap$?cn_slow_hash_v2@Cryptography@Core@@SA?AV?$basic_string@DU?$char_traits@D@std@@V?$allocator@D@2@@std@@V34@@Z 0000000180077d31     turtlecoin-crypto.obj
 0002:0001dd31       $stateUnwindMap$?cn_turtle_lite_slow_hash_v0@Cryptography@Core@@SA?AV?$basic_string@DU?$char_traits@D@std@@V?$allocator@D@2@@std@@V34@@Z 0000000180077d31     turtlecoin-crypto.obj
 0002:0001dd31       $stateUnwindMap$?cn_turtle_lite_slow_hash_v1@Cryptography@Core@@SA?AV?$basic_string@DU?$char_traits@D@std@@V?$allocator@D@2@@std@@V34@@Z 0000000180077d31     turtlecoin-crypto.obj
 0002:0001dd31       $stateUnwindMap$?cn_turtle_lite_slow_hash_v2@Cryptography@Core@@SA?AV?$basic_string@DU?$char_traits@D@std@@V?$allocator@D@2@@std@@V34@@Z 0000000180077d31     turtlecoin-crypto.obj
 0002:0001dd31       $stateUnwindMap$?cn_turtle_slow_hash_v0@Cryptography@Core@@SA?AV?$basic_string@DU?$char_traits@D@std@@V?$allocator@D@2@@std@@V34@@Z 0000000180077d31     turtlecoin-crypto.obj
 0002:0001dd31       $stateUnwindMap$?cn_turtle_slow_hash_v1@Cryptography@Core@@SA?AV?$basic_string@DU?$char_traits@D@std@@V?$allocator@D@2@@std@@V34@@Z 0000000180077d31     turtlecoin-crypto.obj
 0002:0001dd31       $stateUnwindMap$?cn_turtle_slow_hash_v2@Cryptography@Core@@SA?AV?$basic_string@DU?$char_traits@D@std@@V?$allocator@D@2@@std@@V34@@Z 0000000180077d31     turtlecoin-crypto.obj
 0002:0001dd4a       $ip2state$?cn_dark_slow_hash_v0@Cryptography@Core@@SA?AV?$basic_string@DU?$char_traits@D@std@@V?$allocator@D@2@@std@@V34@@Z 0000000180077d4a     turtlecoin-crypto.obj
 0002:0001dd4a       $ip2state$?cn_slow_hash_v0@Cryptography@Core@@SA?AV?$basic_string@DU?$char_traits@D@std@@V?$allocator@D@2@@std@@V34@@Z 0000000180077d4a     turtlecoin-crypto.obj
 0002:0001dd4a       $ip2state$?cn_turtle_slow_hash_v0@Cryptography@Core@@SA?AV?$basic_string@DU?$char_traits@D@std@@V?$allocator@D@2@@std@@V34@@Z 0000000180077d4a     turtlecoin-crypto.obj
 0002:0001dd5c       $unwind$?cn_dark_lite_slow_hash_v0@Cryptography@Core@@SA?AV?$basic_string@DU?$char_traits@D@std@@V?$allocator@D@2@@std@@V34@@Z 0000000180077d5c     turtlecoin-crypto.obj
 0002:0001dd5c       $unwind$?cn_dark_slow_hash_v1@Cryptography@Core@@SA?AV?$basic_string@DU?$char_traits@D@std@@V?$allocator@D@2@@std@@V34@@Z 0000000180077d5c     turtlecoin-crypto.obj
 0002:0001dd5c       $unwind$?cn_dark_slow_hash_v2@Cryptography@Core@@SA?AV?$basic_string@DU?$char_traits@D@std@@V?$allocator@D@2@@std@@V34@@Z 0000000180077d5c     turtlecoin-crypto.obj
 0002:0001dd5c       $unwind$?cn_lite_slow_hash_v0@Cryptography@Core@@SA?AV?$basic_string@DU?$char_traits@D@std@@V?$allocator@D@2@@std@@V34@@Z 0000000180077d5c     turtlecoin-crypto.obj
 0002:0001dd5c       $unwind$?cn_slow_hash_v1@Cryptography@Core@@SA?AV?$basic_string@DU?$char_traits@D@std@@V?$allocator@D@2@@std@@V34@@Z 0000000180077d5c     turtlecoin-crypto.obj
 0002:0001dd5c       $unwind$?cn_slow_hash_v2@Cryptography@Core@@SA?AV?$basic_string@DU?$char_traits@D@std@@V?$allocator@D@2@@std@@V34@@Z 0000000180077d5c     turtlecoin-crypto.obj
 0002:0001dd5c       $unwind$?cn_turtle_lite_slow_hash_v0@Cryptography@Core@@SA?AV?$basic_string@DU?$char_traits@D@std@@V?$allocator@D@2@@std@@V34@@Z 0000000180077d5c     turtlecoin-crypto.obj
 0002:0001dd5c       $unwind$?cn_turtle_slow_hash_v1@Cryptography@Core@@SA?AV?$basic_string@DU?$char_traits@D@std@@V?$allocator@D@2@@std@@V34@@Z 0000000180077d5c     turtlecoin-crypto.obj
 0002:0001dd5c       $unwind$?cn_turtle_slow_hash_v2@Cryptography@Core@@SA?AV?$basic_string@DU?$char_traits@D@std@@V?$allocator@D@2@@std@@V34@@Z 0000000180077d5c     turtlecoin-crypto.obj
 0002:0001dd80       $cppxdata$?cn_dark_lite_slow_hash_v0@Cryptography@Core@@SA?AV?$basic_string@DU?$char_traits@D@std@@V?$allocator@D@2@@std@@V34@@Z 0000000180077d80     turtlecoin-crypto.obj
 0002:0001dd80       $cppxdata$?cn_dark_slow_hash_v1@Cryptography@Core@@SA?AV?$basic_string@DU?$char_traits@D@std@@V?$allocator@D@2@@std@@V34@@Z 0000000180077d80     turtlecoin-crypto.obj
 0002:0001dd80       $cppxdata$?cn_dark_slow_hash_v2@Cryptography@Core@@SA?AV?$basic_string@DU?$char_traits@D@std@@V?$allocator@D@2@@std@@V34@@Z 0000000180077d80     turtlecoin-crypto.obj
 0002:0001dd80       $cppxdata$?cn_lite_slow_hash_v0@Cryptography@Core@@SA?AV?$basic_string@DU?$char_traits@D@std@@V?$allocator@D@2@@std@@V34@@Z 0000000180077d80     turtlecoin-crypto.obj
 0002:0001dd80       $cppxdata$?cn_slow_hash_v1@Cryptography@Core@@SA?AV?$basic_string@DU?$char_traits@D@std@@V?$allocator@D@2@@std@@V34@@Z 0000000180077d80     turtlecoin-crypto.obj
 0002:0001dd80       $cppxdata$?cn_slow_hash_v2@Cryptography@Core@@SA?AV?$basic_string@DU?$char_traits@D@std@@V?$allocator@D@2@@std@@V34@@Z 0000000180077d80     turtlecoin-crypto.obj
 0002:0001dd80       $cppxdata$?cn_turtle_lite_slow_hash_v0@Cryptography@Core@@SA?AV?$basic_string@DU?$char_traits@D@std@@V?$allocator@D@2@@std@@V34@@Z 0000000180077d80     turtlecoin-crypto.obj
 0002:0001dd80       $cppxdata$?cn_turtle_slow_hash_v1@Cryptography@Core@@SA?AV?$basic_string@DU?$char_traits@D@std@@V?$allocator@D@2@@std@@V34@@Z 0000000180077d80     turtlecoin-crypto.obj
 0002:0001dd80       $cppxdata$?cn_turtle_slow_hash_v2@Cryptography@Core@@SA?AV?$basic_string@DU?$char_traits@D@std@@V?$allocator@D@2@@std@@V34@@Z 0000000180077d80     turtlecoin-crypto.obj
 0002:0001dd89       $ip2state$?cn_dark_lite_slow_hash_v0@Cryptography@Core@@SA?AV?$basic_string@DU?$char_traits@D@std@@V?$allocator@D@2@@std@@V34@@Z 0000000180077d89     turtlecoin-crypto.obj
 0002:0001dd89       $ip2state$?cn_dark_slow_hash_v1@Cryptography@Core@@SA?AV?$basic_string@DU?$char_traits@D@std@@V?$allocator@D@2@@std@@V34@@Z 0000000180077d89     turtlecoin-crypto.obj
 0002:0001dd89       $ip2state$?cn_dark_slow_hash_v2@Cryptography@Core@@SA?AV?$basic_string@DU?$char_traits@D@std@@V?$allocator@D@2@@std@@V34@@Z 0000000180077d89     turtlecoin-crypto.obj
 0002:0001dd89       $ip2state$?cn_lite_slow_hash_v0@Cryptography@Core@@SA?AV?$basic_string@DU?$char_traits@D@std@@V?$allocator@D@2@@std@@V34@@Z 0000000180077d89     turtlecoin-crypto.obj
 0002:0001dd89       $ip2state$?cn_slow_hash_v1@Cryptography@Core@@SA?AV?$basic_string@DU?$char_traits@D@std@@V?$allocator@D@2@@std@@V34@@Z 0000000180077d89     turtlecoin-crypto.obj
 0002:0001dd89       $ip2state$?cn_slow_hash_v2@Cryptography@Core@@SA?AV?$basic_string@DU?$char_traits@D@std@@V?$allocator@D@2@@std@@V34@@Z 0000000180077d89     turtlecoin-crypto.obj
 0002:0001dd89       $ip2state$?cn_turtle_lite_slow_hash_v0@Cryptography@Core@@SA?AV?$basic_string@DU?$char_traits@D@std@@V?$allocator@D@2@@std@@V34@@Z 0000000180077d89     turtlecoin-crypto.obj
 0002:0001dd89       $ip2state$?cn_turtle_slow_hash_v1@Cryptography@Core@@SA?AV?$basic_string@DU?$char_traits@D@std@@V?$allocator@D@2@@std@@V34@@Z 0000000180077d89     turtlecoin-crypto.obj
 0002:0001dd89       $ip2state$?cn_turtle_slow_hash_v2@Cryptography@Core@@SA?AV?$basic_string@DU?$char_traits@D@std@@V?$allocator@D@2@@std@@V34@@Z 0000000180077d89     turtlecoin-crypto.obj
 0002:0001dd98       $unwind$?cn_dark_lite_slow_hash_v1@Cryptography@Core@@SA?AV?$basic_string@DU?$char_traits@D@std@@V?$allocator@D@2@@std@@V34@@Z 0000000180077d98     turtlecoin-crypto.obj
 0002:0001dd98       $unwind$?cn_dark_lite_slow_hash_v2@Cryptography@Core@@SA?AV?$basic_string@DU?$char_traits@D@std@@V?$allocator@D@2@@std@@V34@@Z 0000000180077d98     turtlecoin-crypto.obj
 0002:0001dd98       $unwind$?cn_lite_slow_hash_v1@Cryptography@Core@@SA?AV?$basic_string@DU?$char_traits@D@std@@V?$allocator@D@2@@std@@V34@@Z 0000000180077d98     turtlecoin-crypto.obj
 0002:0001dd98       $unwind$?cn_lite_slow_hash_v2@Cryptography@Core@@SA?AV?$basic_string@DU?$char_traits@D@std@@V?$allocator@D@2@@std@@V34@@Z 0000000180077d98     turtlecoin-crypto.obj
 0002:0001dd98       $unwind$?cn_turtle_lite_slow_hash_v1@Cryptography@Core@@SA?AV?$basic_string@DU?$char_traits@D@std@@V?$allocator@D@2@@std@@V34@@Z 0000000180077d98     turtlecoin-crypto.obj
 0002:0001dd98       $unwind$?cn_turtle_lite_slow_hash_v2@Cryptography@Core@@SA?AV?$basic_string@DU?$char_traits@D@std@@V?$allocator@D@2@@std@@V34@@Z 0000000180077d98     turtlecoin-crypto.obj
 0002:0001ddbc       $cppxdata$?cn_dark_lite_slow_hash_v1@Cryptography@Core@@SA?AV?$basic_string@DU?$char_traits@D@std@@V?$allocator@D@2@@std@@V34@@Z 0000000180077dbc     turtlecoin-crypto.obj
 0002:0001ddbc       $cppxdata$?cn_dark_lite_slow_hash_v2@Cryptography@Core@@SA?AV?$basic_string@DU?$char_traits@D@std@@V?$allocator@D@2@@std@@V34@@Z 0000000180077dbc     turtlecoin-crypto.obj
 0002:0001ddbc       $cppxdata$?cn_lite_slow_hash_v1@Cryptography@Core@@SA?AV?$basic_string@DU?$char_traits@D@std@@V?$allocator@D@2@@std@@V34@@Z 0000000180077dbc     turtlecoin-crypto.obj
 0002:0001ddbc       $cppxdata$?cn_lite_slow_hash_v2@Cryptography@Core@@SA?AV?$basic_string@DU?$char_traits@D@std@@V?$allocator@D@2@@std@@V34@@Z 0000000180077dbc     turtlecoin-crypto.obj
 0002:0001ddbc       $cppxdata$?cn_turtle_lite_slow_hash_v1@Cryptography@Core@@SA?AV?$basic_string@DU?$char_traits@D@std@@V?$allocator@D@2@@std@@V34@@Z 0000000180077dbc     turtlecoin-crypto.obj
 0002:0001ddbc       $cppxdata$?cn_turtle_lite_slow_hash_v2@Cryptography@Core@@SA?AV?$basic_string@DU?$char_traits@D@std@@V?$allocator@D@2@@std@@V34@@Z 0000000180077dbc     turtlecoin-crypto.obj
 0002:0001ddc5       $ip2state$?cn_dark_lite_slow_hash_v1@Cryptography@Core@@SA?AV?$basic_string@DU?$char_traits@D@std@@V?$allocator@D@2@@std@@V34@@Z 0000000180077dc5     turtlecoin-crypto.obj
 0002:0001ddc5       $ip2state$?cn_dark_lite_slow_hash_v2@Cryptography@Core@@SA?AV?$basic_string@DU?$char_traits@D@std@@V?$allocator@D@2@@std@@V34@@Z 0000000180077dc5     turtlecoin-crypto.obj
 0002:0001ddc5       $ip2state$?cn_lite_slow_hash_v1@Cryptography@Core@@SA?AV?$basic_string@DU?$char_traits@D@std@@V?$allocator@D@2@@std@@V34@@Z 0000000180077dc5     turtlecoin-crypto.obj
 0002:0001ddc5       $ip2state$?cn_lite_slow_hash_v2@Cryptography@Core@@SA?AV?$basic_string@DU?$char_traits@D@std@@V?$allocator@D@2@@std@@V34@@Z 0000000180077dc5     turtlecoin-crypto.obj
 0002:0001ddc5       $ip2state$?cn_turtle_lite_slow_hash_v1@Cryptography@Core@@SA?AV?$basic_string@DU?$char_traits@D@std@@V?$allocator@D@2@@std@@V34@@Z 0000000180077dc5     turtlecoin-crypto.obj
 0002:0001ddc5       $ip2state$?cn_turtle_lite_slow_hash_v2@Cryptography@Core@@SA?AV?$basic_string@DU?$char_traits@D@std@@V?$allocator@D@2@@std@@V34@@Z 0000000180077dc5     turtlecoin-crypto.obj
 0002:0001ddd4       $unwind$?chukwa_slow_hash@Cryptography@Core@@SA?AV?$basic_string@DU?$char_traits@D@std@@V?$allocator@D@2@@std@@V34@@Z 0000000180077dd4     turtlecoin-crypto.obj
 0002:0001ddfc       $cppxdata$?chukwa_slow_hash@Cryptography@Core@@SA?AV?$basic_string@DU?$char_traits@D@std@@V?$allocator@D@2@@std@@V34@@Z 0000000180077dfc     turtlecoin-crypto.obj
 0002:0001de05       $stateUnwindMap$?chukwa_slow_hash@Cryptography@Core@@SA?AV?$basic_string@DU?$char_traits@D@std@@V?$allocator@D@2@@std@@V34@@Z 0000000180077e05     turtlecoin-crypto.obj
 0002:0001de1f       $ip2state$?chukwa_slow_hash@Cryptography@Core@@SA?AV?$basic_string@DU?$char_traits@D@std@@V?$allocator@D@2@@std@@V34@@Z 0000000180077e1f     turtlecoin-crypto.obj
 0002:0001de30       $unwind$?tree_hash@Cryptography@Core@@SA?AV?$basic_string@DU?$char_traits@D@std@@V?$allocator@D@2@@std@@V?$vector@V?$basic_string@DU?$char_traits@D@std@@V?$allocator@D@2@@std@@V?$allocator@V?$basic_string@DU?$char_traits@D@std@@V?$allocator@D@2@@std@@@2@@4@@Z 0000000180077e30     turtlecoin-crypto.obj
 0002:0001de54       $cppxdata$?tree_hash@Cryptography@Core@@SA?AV?$basic_string@DU?$char_traits@D@std@@V?$allocator@D@2@@std@@V?$vector@V?$basic_string@DU?$char_traits@D@std@@V?$allocator@D@2@@std@@V?$allocator@V?$basic_string@DU?$char_traits@D@std@@V?$allocator@D@2@@std@@@2@@4@@Z 0000000180077e54     turtlecoin-crypto.obj
 0002:0001de5d       $stateUnwindMap$?tree_hash@Cryptography@Core@@SA?AV?$basic_string@DU?$char_traits@D@std@@V?$allocator@D@2@@std@@V?$vector@V?$basic_string@DU?$char_traits@D@std@@V?$allocator@D@2@@std@@V?$allocator@V?$basic_string@DU?$char_traits@D@std@@V?$allocator@D@2@@std@@@2@@4@@Z 0000000180077e5d     turtlecoin-crypto.obj
 0002:0001de6f       $ip2state$?tree_hash@Cryptography@Core@@SA?AV?$basic_string@DU?$char_traits@D@std@@V?$allocator@D@2@@std@@V?$vector@V?$basic_string@DU?$char_traits@D@std@@V?$allocator@D@2@@std@@V?$allocator@V?$basic_string@DU?$char_traits@D@std@@V?$allocator@D@2@@std@@@2@@4@@Z 0000000180077e6f     turtlecoin-crypto.obj
 0002:0001de7c       $unwind$?tree_branch@Cryptography@Core@@SA?AV?$vector@V?$basic_string@DU?$char_traits@D@std@@V?$allocator@D@2@@std@@V?$allocator@V?$basic_string@DU?$char_traits@D@std@@V?$allocator@D@2@@std@@@2@@std@@V34@@Z 0000000180077e7c     turtlecoin-crypto.obj
 0002:0001de9c       $cppxdata$?tree_branch@Cryptography@Core@@SA?AV?$vector@V?$basic_string@DU?$char_traits@D@std@@V?$allocator@D@2@@std@@V?$allocator@V?$basic_string@DU?$char_traits@D@std@@V?$allocator@D@2@@std@@@2@@std@@V34@@Z 0000000180077e9c     turtlecoin-crypto.obj
 0002:0001dea5       $stateUnwindMap$?tree_branch@Cryptography@Core@@SA?AV?$vector@V?$basic_string@DU?$char_traits@D@std@@V?$allocator@D@2@@std@@V?$allocator@V?$basic_string@DU?$char_traits@D@std@@V?$allocator@D@2@@std@@@2@@std@@V34@@Z 0000000180077ea5     turtlecoin-crypto.obj
 0002:0001debe       $ip2state$?tree_branch@Cryptography@Core@@SA?AV?$vector@V?$basic_string@DU?$char_traits@D@std@@V?$allocator@D@2@@std@@V?$allocator@V?$basic_string@DU?$char_traits@D@std@@V?$allocator@D@2@@std@@@2@@std@@V34@@Z 0000000180077ebe     turtlecoin-crypto.obj
 0002:0001dec8       $unwind$?tree_hash_from_branch@Cryptography@Core@@SA?AV?$basic_string@DU?$char_traits@D@std@@V?$allocator@D@2@@std@@V?$vector@V?$basic_string@DU?$char_traits@D@std@@V?$allocator@D@2@@std@@V?$allocator@V?$basic_string@DU?$char_traits@D@std@@V?$allocator@D@2@@std@@@2@@4@V34@1@Z 0000000180077ec8     turtlecoin-crypto.obj
 0002:0001def4       $cppxdata$?tree_hash_from_branch@Cryptography@Core@@SA?AV?$basic_string@DU?$char_traits@D@std@@V?$allocator@D@2@@std@@V?$vector@V?$basic_string@DU?$char_traits@D@std@@V?$allocator@D@2@@std@@V?$allocator@V?$basic_string@DU?$char_traits@D@std@@V?$allocator@D@2@@std@@@2@@4@V34@1@Z 0000000180077ef4     turtlecoin-crypto.obj
 0002:0001defd       $stateUnwindMap$?tree_hash_from_branch@Cryptography@Core@@SA?AV?$basic_string@DU?$char_traits@D@std@@V?$allocator@D@2@@std@@V?$vector@V?$basic_string@DU?$char_traits@D@std@@V?$allocator@D@2@@std@@V?$allocator@V?$basic_string@DU?$char_traits@D@std@@V?$allocator@D@2@@std@@@2@@4@V34@1@Z 0000000180077efd     turtlecoin-crypto.obj
 0002:0001df1d       $ip2state$?tree_hash_from_branch@Cryptography@Core@@SA?AV?$basic_string@DU?$char_traits@D@std@@V?$allocator@D@2@@std@@V?$vector@V?$basic_string@DU?$char_traits@D@std@@V?$allocator@D@2@@std@@V?$allocator@V?$basic_string@DU?$char_traits@D@std@@V?$allocator@D@2@@std@@@2@@4@V34@1@Z 0000000180077f1d     turtlecoin-crypto.obj
 0002:0001df28       $unwind$?generateRingSignatures@Cryptography@Core@@SA_NV?$basic_string@DU?$char_traits@D@std@@V?$allocator@D@2@@std@@0V?$vector@V?$basic_string@DU?$char_traits@D@std@@V?$allocator@D@2@@std@@V?$allocator@V?$basic_string@DU?$char_traits@D@std@@V?$allocator@D@2@@std@@@2@@4@0_KAEAV54@@Z 0000000180077f28     turtlecoin-crypto.obj
 0002:0001df4c       $cppxdata$?generateRingSignatures@Cryptography@Core@@SA_NV?$basic_string@DU?$char_traits@D@std@@V?$allocator@D@2@@std@@0V?$vector@V?$basic_string@DU?$char_traits@D@std@@V?$allocator@D@2@@std@@V?$allocator@V?$basic_string@DU?$char_traits@D@std@@V?$allocator@D@2@@std@@@2@@4@0_KAEAV54@@Z 0000000180077f4c     turtlecoin-crypto.obj
 0002:0001df55       $stateUnwindMap$?generateRingSignatures@Cryptography@Core@@SA_NV?$basic_string@DU?$char_traits@D@std@@V?$allocator@D@2@@std@@0V?$vector@V?$basic_string@DU?$char_traits@D@std@@V?$allocator@D@2@@std@@V?$allocator@V?$basic_string@DU?$char_traits@D@std@@V?$allocator@D@2@@std@@@2@@4@0_KAEAV54@@Z 0000000180077f55     turtlecoin-crypto.obj
 0002:0001df7e       $ip2state$?generateRingSignatures@Cryptography@Core@@SA_NV?$basic_string@DU?$char_traits@D@std@@V?$allocator@D@2@@std@@0V?$vector@V?$basic_string@DU?$char_traits@D@std@@V?$allocator@D@2@@std@@V?$allocator@V?$basic_string@DU?$char_traits@D@std@@V?$allocator@D@2@@std@@@2@@4@0_KAEAV54@@Z 0000000180077f7e     turtlecoin-crypto.obj
 0002:0001df90       $unwind$?checkRingSignature@Cryptography@Core@@SA_NV?$basic_string@DU?$char_traits@D@std@@V?$allocator@D@2@@std@@0V?$vector@V?$basic_string@DU?$char_traits@D@std@@V?$allocator@D@2@@std@@V?$allocator@V?$basic_string@DU?$char_traits@D@std@@V?$allocator@D@2@@std@@@2@@4@1@Z 0000000180077f90     turtlecoin-crypto.obj
 0002:0001dfb4       $cppxdata$?checkRingSignature@Cryptography@Core@@SA_NV?$basic_string@DU?$char_traits@D@std@@V?$allocator@D@2@@std@@0V?$vector@V?$basic_string@DU?$char_traits@D@std@@V?$allocator@D@2@@std@@V?$allocator@V?$basic_string@DU?$char_traits@D@std@@V?$allocator@D@2@@std@@@2@@4@1@Z 0000000180077fb4     turtlecoin-crypto.obj
 0002:0001dfbd       $stateUnwindMap$?checkRingSignature@Cryptography@Core@@SA_NV?$basic_string@DU?$char_traits@D@std@@V?$allocator@D@2@@std@@0V?$vector@V?$basic_string@DU?$char_traits@D@std@@V?$allocator@D@2@@std@@V?$allocator@V?$basic_string@DU?$char_traits@D@std@@V?$allocator@D@2@@std@@@2@@4@1@Z 0000000180077fbd     turtlecoin-crypto.obj
 0002:0001dfed       $ip2state$?checkRingSignature@Cryptography@Core@@SA_NV?$basic_string@DU?$char_traits@D@std@@V?$allocator@D@2@@std@@0V?$vector@V?$basic_string@DU?$char_traits@D@std@@V?$allocator@D@2@@std@@V?$allocator@V?$basic_string@DU?$char_traits@D@std@@V?$allocator@D@2@@std@@@2@@4@1@Z 0000000180077fed     turtlecoin-crypto.obj
 0002:0001e000       $unwind$?generatePrivateViewKeyFromPrivateSpendKey@Cryptography@Core@@SA?AV?$basic_string@DU?$char_traits@D@std@@V?$allocator@D@2@@std@@V34@@Z 0000000180078000     turtlecoin-crypto.obj
 0002:0001e024       $cppxdata$?generatePrivateViewKeyFromPrivateSpendKey@Cryptography@Core@@SA?AV?$basic_string@DU?$char_traits@D@std@@V?$allocator@D@2@@std@@V34@@Z 0000000180078024     turtlecoin-crypto.obj
 0002:0001e02d       $stateUnwindMap$?generatePrivateViewKeyFromPrivateSpendKey@Cryptography@Core@@SA?AV?$basic_string@DU?$char_traits@D@std@@V?$allocator@D@2@@std@@V34@@Z 000000018007802d     turtlecoin-crypto.obj
 0002:0001e039       $ip2state$?generatePrivateViewKeyFromPrivateSpendKey@Cryptography@Core@@SA?AV?$basic_string@DU?$char_traits@D@std@@V?$allocator@D@2@@std@@V34@@Z 0000000180078039     turtlecoin-crypto.obj
 0002:0001e044       $unwind$?generateViewKeysFromPrivateSpendKey@Cryptography@Core@@SAXV?$basic_string@DU?$char_traits@D@std@@V?$allocator@D@2@@std@@AEAV34@1@Z 0000000180078044     turtlecoin-crypto.obj
 0002:0001e068       $cppxdata$?generateViewKeysFromPrivateSpendKey@Cryptography@Core@@SAXV?$basic_string@DU?$char_traits@D@std@@V?$allocator@D@2@@std@@AEAV34@1@Z 0000000180078068     turtlecoin-crypto.obj
 0002:0001e071       $stateUnwindMap$?generateDeterministicSubwalletKeys@Cryptography@Core@@SA_NV?$basic_string@DU?$char_traits@D@std@@V?$allocator@D@2@@std@@_KAEAV34@2@Z 0000000180078071     turtlecoin-crypto.obj
 0002:0001e071       $stateUnwindMap$?generateViewKeysFromPrivateSpendKey@Cryptography@Core@@SAXV?$basic_string@DU?$char_traits@D@std@@V?$allocator@D@2@@std@@AEAV34@1@Z 0000000180078071     turtlecoin-crypto.obj
 0002:0001e07d       $ip2state$?generateViewKeysFromPrivateSpendKey@Cryptography@Core@@SAXV?$basic_string@DU?$char_traits@D@std@@V?$allocator@D@2@@std@@AEAV34@1@Z 000000018007807d     turtlecoin-crypto.obj
 0002:0001e08c       $unwind$?generateKeys@Cryptography@Core@@SAXAEAV?$basic_string@DU?$char_traits@D@std@@V?$allocator@D@2@@std@@0@Z 000000018007808c     turtlecoin-crypto.obj
 0002:0001e0b4       $cppxdata$?generateKeys@Cryptography@Core@@SAXAEAV?$basic_string@DU?$char_traits@D@std@@V?$allocator@D@2@@std@@0@Z 00000001800780b4     turtlecoin-crypto.obj
 0002:0001e0bd       $stateUnwindMap$?generateKeys@Cryptography@Core@@SAXAEAV?$basic_string@DU?$char_traits@D@std@@V?$allocator@D@2@@std@@0@Z 00000001800780bd     turtlecoin-crypto.obj
 0002:0001e0c3       $ip2state$?generateKeys@Cryptography@Core@@SAXAEAV?$basic_string@DU?$char_traits@D@std@@V?$allocator@D@2@@std@@0@Z 00000001800780c3     turtlecoin-crypto.obj
 0002:0001e0cc       $unwind$?checkKey@Cryptography@Core@@SA_NV?$basic_string@DU?$char_traits@D@std@@V?$allocator@D@2@@std@@@Z 00000001800780cc     turtlecoin-crypto.obj
 0002:0001e0e8       $unwind$?secretKeyToPublicKey@Cryptography@Core@@SA_NV?$basic_string@DU?$char_traits@D@std@@V?$allocator@D@2@@std@@AEAV34@@Z 00000001800780e8     turtlecoin-crypto.obj
 0002:0001e108       $cppxdata$?secretKeyToPublicKey@Cryptography@Core@@SA_NV?$basic_string@DU?$char_traits@D@std@@V?$allocator@D@2@@std@@AEAV34@@Z 0000000180078108     turtlecoin-crypto.obj
 0002:0001e111       $stateUnwindMap$?hashToEllipticCurve@Cryptography@Core@@SA?AV?$basic_string@DU?$char_traits@D@std@@V?$allocator@D@2@@std@@V34@@Z 0000000180078111     turtlecoin-crypto.obj
 0002:0001e111       $stateUnwindMap$?scReduce32@Cryptography@Core@@SA?AV?$basic_string@DU?$char_traits@D@std@@V?$allocator@D@2@@std@@V34@@Z 0000000180078111     turtlecoin-crypto.obj
 0002:0001e111       $stateUnwindMap$?secretKeyToPublicKey@Cryptography@Core@@SA_NV?$basic_string@DU?$char_traits@D@std@@V?$allocator@D@2@@std@@AEAV34@@Z 0000000180078111     turtlecoin-crypto.obj
 0002:0001e118       $ip2state$?secretKeyToPublicKey@Cryptography@Core@@SA_NV?$basic_string@DU?$char_traits@D@std@@V?$allocator@D@2@@std@@AEAV34@@Z 0000000180078118     turtlecoin-crypto.obj
 0002:0001e124       $unwind$?generateKeyDerivation@Cryptography@Core@@SA_NV?$basic_string@DU?$char_traits@D@std@@V?$allocator@D@2@@std@@0AEAV34@@Z 0000000180078124     turtlecoin-crypto.obj
 0002:0001e14c       $cppxdata$?generateKeyDerivation@Cryptography@Core@@SA_NV?$basic_string@DU?$char_traits@D@std@@V?$allocator@D@2@@std@@0AEAV34@@Z 000000018007814c     turtlecoin-crypto.obj
 0002:0001e155       $stateUnwindMap$?generateKeyDerivation@Cryptography@Core@@SA_NV?$basic_string@DU?$char_traits@D@std@@V?$allocator@D@2@@std@@0AEAV34@@Z 0000000180078155     turtlecoin-crypto.obj
 0002:0001e167       $ip2state$?generateKeyDerivation@Cryptography@Core@@SA_NV?$basic_string@DU?$char_traits@D@std@@V?$allocator@D@2@@std@@0AEAV34@@Z 0000000180078167     turtlecoin-crypto.obj
 0002:0001e174       $unwind$?derivePublicKey@Cryptography@Core@@SA_NV?$basic_string@DU?$char_traits@D@std@@V?$allocator@D@2@@std@@_K0AEAV34@@Z 0000000180078174     turtlecoin-crypto.obj
 0002:0001e174       $unwind$?underivePublicKey@Cryptography@Core@@SA_NV?$basic_string@DU?$char_traits@D@std@@V?$allocator@D@2@@std@@_K0AEAV34@@Z 0000000180078174     turtlecoin-crypto.obj
 0002:0001e194       $cppxdata$?derivePublicKey@Cryptography@Core@@SA_NV?$basic_string@DU?$char_traits@D@std@@V?$allocator@D@2@@std@@_K0AEAV34@@Z 0000000180078194     turtlecoin-crypto.obj
 0002:0001e194       $cppxdata$?underivePublicKey@Cryptography@Core@@SA_NV?$basic_string@DU?$char_traits@D@std@@V?$allocator@D@2@@std@@_K0AEAV34@@Z 0000000180078194     turtlecoin-crypto.obj
 0002:0001e19d       $stateUnwindMap$?derivePublicKey@Cryptography@Core@@SA_NV?$basic_string@DU?$char_traits@D@std@@V?$allocator@D@2@@std@@_K0AEAV34@@Z 000000018007819d     turtlecoin-crypto.obj
 0002:0001e19d       $stateUnwindMap$?underivePublicKey@Cryptography@Core@@SA_NV?$basic_string@DU?$char_traits@D@std@@V?$allocator@D@2@@std@@_K0AEAV34@@Z 000000018007819d     turtlecoin-crypto.obj
 0002:0001e1ac       $ip2state$?derivePublicKey@Cryptography@Core@@SA_NV?$basic_string@DU?$char_traits@D@std@@V?$allocator@D@2@@std@@_K0AEAV34@@Z 00000001800781ac     turtlecoin-crypto.obj
 0002:0001e1ac       $ip2state$?underivePublicKey@Cryptography@Core@@SA_NV?$basic_string@DU?$char_traits@D@std@@V?$allocator@D@2@@std@@_K0AEAV34@@Z 00000001800781ac     turtlecoin-crypto.obj
 0002:0001e1b8       $unwind$?deriveSecretKey@Cryptography@Core@@SA?AV?$basic_string@DU?$char_traits@D@std@@V?$allocator@D@2@@std@@V34@_K0@Z 00000001800781b8     turtlecoin-crypto.obj
 0002:0001e1dc       $cppxdata$?deriveSecretKey@Cryptography@Core@@SA?AV?$basic_string@DU?$char_traits@D@std@@V?$allocator@D@2@@std@@V34@_K0@Z 00000001800781dc     turtlecoin-crypto.obj
 0002:0001e1e5       $stateUnwindMap$?deriveSecretKey@Cryptography@Core@@SA?AV?$basic_string@DU?$char_traits@D@std@@V?$allocator@D@2@@std@@V34@_K0@Z 00000001800781e5     turtlecoin-crypto.obj
 0002:0001e1f9       $ip2state$?deriveSecretKey@Cryptography@Core@@SA?AV?$basic_string@DU?$char_traits@D@std@@V?$allocator@D@2@@std@@V34@_K0@Z 00000001800781f9     turtlecoin-crypto.obj
 0002:0001e208       $unwind$?generateSignature@Cryptography@Core@@SA?AV?$basic_string@DU?$char_traits@D@std@@V?$allocator@D@2@@std@@V34@00@Z 0000000180078208     turtlecoin-crypto.obj
 0002:0001e22c       $cppxdata$?generateSignature@Cryptography@Core@@SA?AV?$basic_string@DU?$char_traits@D@std@@V?$allocator@D@2@@std@@V34@00@Z 000000018007822c     turtlecoin-crypto.obj
 0002:0001e235       $stateUnwindMap$?generateSignature@Cryptography@Core@@SA?AV?$basic_string@DU?$char_traits@D@std@@V?$allocator@D@2@@std@@V34@00@Z 0000000180078235     turtlecoin-crypto.obj
 0002:0001e24b       $ip2state$?generateSignature@Cryptography@Core@@SA?AV?$basic_string@DU?$char_traits@D@std@@V?$allocator@D@2@@std@@V34@00@Z 000000018007824b     turtlecoin-crypto.obj
 0002:0001e258       $unwind$?checkSignature@Cryptography@Core@@SA_NV?$basic_string@DU?$char_traits@D@std@@V?$allocator@D@2@@std@@00@Z 0000000180078258     turtlecoin-crypto.obj
 0002:0001e270       $chain$0$?checkSignature@Cryptography@Core@@SA_NV?$basic_string@DU?$char_traits@D@std@@V?$allocator@D@2@@std@@00@Z 0000000180078270     turtlecoin-crypto.obj
 0002:0001e284       $unwind$?generateKeyImage@Cryptography@Core@@SA?AV?$basic_string@DU?$char_traits@D@std@@V?$allocator@D@2@@std@@V34@0@Z 0000000180078284     turtlecoin-crypto.obj
 0002:0001e2a4       $cppxdata$?generateKeyImage@Cryptography@Core@@SA?AV?$basic_string@DU?$char_traits@D@std@@V?$allocator@D@2@@std@@V34@0@Z 00000001800782a4     turtlecoin-crypto.obj
 0002:0001e2ad       $stateUnwindMap$?generateKeyImage@Cryptography@Core@@SA?AV?$basic_string@DU?$char_traits@D@std@@V?$allocator@D@2@@std@@V34@0@Z 00000001800782ad     turtlecoin-crypto.obj
 0002:0001e2ad       $stateUnwindMap$?scalarmultKey@Cryptography@Core@@SA?AV?$basic_string@DU?$char_traits@D@std@@V?$allocator@D@2@@std@@V34@0@Z 00000001800782ad     turtlecoin-crypto.obj
 0002:0001e2ba       $ip2state$?generateKeyImage@Cryptography@Core@@SA?AV?$basic_string@DU?$char_traits@D@std@@V?$allocator@D@2@@std@@V34@0@Z 00000001800782ba     turtlecoin-crypto.obj
 0002:0001e2c4       $unwind$?scalarmultKey@Cryptography@Core@@SA?AV?$basic_string@DU?$char_traits@D@std@@V?$allocator@D@2@@std@@V34@0@Z 00000001800782c4     turtlecoin-crypto.obj
 0002:0001e2e4       $cppxdata$?scalarmultKey@Cryptography@Core@@SA?AV?$basic_string@DU?$char_traits@D@std@@V?$allocator@D@2@@std@@V34@0@Z 00000001800782e4     turtlecoin-crypto.obj
 0002:0001e2ed       $ip2state$?scalarmultKey@Cryptography@Core@@SA?AV?$basic_string@DU?$char_traits@D@std@@V?$allocator@D@2@@std@@V34@0@Z 00000001800782ed     turtlecoin-crypto.obj
 0002:0001e2f8       $unwind$?hashToEllipticCurve@Cryptography@Core@@SA?AV?$basic_string@DU?$char_traits@D@std@@V?$allocator@D@2@@std@@V34@@Z 00000001800782f8     turtlecoin-crypto.obj
 0002:0001e318       $cppxdata$?hashToEllipticCurve@Cryptography@Core@@SA?AV?$basic_string@DU?$char_traits@D@std@@V?$allocator@D@2@@std@@V34@@Z 0000000180078318     turtlecoin-crypto.obj
 0002:0001e321       $ip2state$?hashToEllipticCurve@Cryptography@Core@@SA?AV?$basic_string@DU?$char_traits@D@std@@V?$allocator@D@2@@std@@V34@@Z 0000000180078321     turtlecoin-crypto.obj
 0002:0001e328       $unwind$?scReduce32@Cryptography@Core@@SA?AV?$basic_string@DU?$char_traits@D@std@@V?$allocator@D@2@@std@@V34@@Z 0000000180078328     turtlecoin-crypto.obj
 0002:0001e344       $cppxdata$?scReduce32@Cryptography@Core@@SA?AV?$basic_string@DU?$char_traits@D@std@@V?$allocator@D@2@@std@@V34@@Z 0000000180078344     turtlecoin-crypto.obj
 0002:0001e34d       $ip2state$?scReduce32@Cryptography@Core@@SA?AV?$basic_string@DU?$char_traits@D@std@@V?$allocator@D@2@@std@@V34@@Z 000000018007834d     turtlecoin-crypto.obj
 0002:0001e354       $unwind$?hashToScalar@Cryptography@Core@@SA?AV?$basic_string@DU?$char_traits@D@std@@V?$allocator@D@2@@std@@V34@@Z 0000000180078354     turtlecoin-crypto.obj
 0002:0001e374       $cppxdata$?hashToScalar@Cryptography@Core@@SA?AV?$basic_string@DU?$char_traits@D@std@@V?$allocator@D@2@@std@@V34@@Z 0000000180078374     turtlecoin-crypto.obj
 0002:0001e37d       $stateUnwindMap$?hashToScalar@Cryptography@Core@@SA?AV?$basic_string@DU?$char_traits@D@std@@V?$allocator@D@2@@std@@V34@@Z 000000018007837d     turtlecoin-crypto.obj
 0002:0001e391       $ip2state$?hashToScalar@Cryptography@Core@@SA?AV?$basic_string@DU?$char_traits@D@std@@V?$allocator@D@2@@std@@V34@@Z 0000000180078391     turtlecoin-crypto.obj
 0002:0001e3a0       $unwind$?generateDeterministicSubwalletKeys@Cryptography@Core@@SA_NV?$basic_string@DU?$char_traits@D@std@@V?$allocator@D@2@@std@@_KAEAV34@2@Z 00000001800783a0     turtlecoin-crypto.obj
 0002:0001e3c4       $cppxdata$?generateDeterministicSubwalletKeys@Cryptography@Core@@SA_NV?$basic_string@DU?$char_traits@D@std@@V?$allocator@D@2@@std@@_KAEAV34@2@Z 00000001800783c4     turtlecoin-crypto.obj
 0002:0001e3cd       $ip2state$?generateDeterministicSubwalletKeys@Cryptography@Core@@SA_NV?$basic_string@DU?$char_traits@D@std@@V?$allocator@D@2@@std@@_KAEAV34@2@Z 00000001800783cd     turtlecoin-crypto.obj
 0002:0001e3dc       $unwind$?restoreKeyImage@Cryptography@Core@@SA?AV?$basic_string@DU?$char_traits@D@std@@V?$allocator@D@2@@std@@AEBV34@0_KAEBV?$vector@V?$basic_string@DU?$char_traits@D@std@@V?$allocator@D@2@@std@@V?$allocator@V?$basic_string@DU?$char_traits@D@std@@V?$allocator@D@2@@std@@@2@@4@@Z 00000001800783dc     turtlecoin-crypto.obj
 0002:0001e404       $cppxdata$?restoreKeyImage@Cryptography@Core@@SA?AV?$basic_string@DU?$char_traits@D@std@@V?$allocator@D@2@@std@@AEBV34@0_KAEBV?$vector@V?$basic_string@DU?$char_traits@D@std@@V?$allocator@D@2@@std@@V?$allocator@V?$basic_string@DU?$char_traits@D@std@@V?$allocator@D@2@@std@@@2@@4@@Z 0000000180078404     turtlecoin-crypto.obj
 0002:0001e40d       $ip2state$?restoreKeyImage@Cryptography@Core@@SA?AV?$basic_string@DU?$char_traits@D@std@@V?$allocator@D@2@@std@@AEBV34@0_KAEBV?$vector@V?$basic_string@DU?$char_traits@D@std@@V?$allocator@D@2@@std@@V?$allocator@V?$basic_string@DU?$char_traits@D@std@@V?$allocator@D@2@@std@@@2@@4@@Z 000000018007840d     turtlecoin-crypto.obj
 0002:0001e414       $unwind$?restoreRingSignatures@Cryptography@Core@@SA_NAEBV?$basic_string@DU?$char_traits@D@std@@V?$allocator@D@2@@std@@_KAEBV?$vector@V?$basic_string@DU?$char_traits@D@std@@V?$allocator@D@2@@std@@V?$allocator@V?$basic_string@DU?$char_traits@D@std@@V?$allocator@D@2@@std@@@2@@4@10AEAV54@@Z 0000000180078414     turtlecoin-crypto.obj
 0002:0001e438       $cppxdata$?restoreRingSignatures@Cryptography@Core@@SA_NAEBV?$basic_string@DU?$char_traits@D@std@@V?$allocator@D@2@@std@@_KAEBV?$vector@V?$basic_string@DU?$char_traits@D@std@@V?$allocator@D@2@@std@@V?$allocator@V?$basic_string@DU?$char_traits@D@std@@V?$allocator@D@2@@std@@@2@@4@10AEAV54@@Z 0000000180078438     turtlecoin-crypto.obj
 0002:0001e441       $stateUnwindMap$?restoreRingSignatures@Cryptography@Core@@SA_NAEBV?$basic_string@DU?$char_traits@D@std@@V?$allocator@D@2@@std@@_KAEBV?$vector@V?$basic_string@DU?$char_traits@D@std@@V?$allocator@D@2@@std@@V?$allocator@V?$basic_string@DU?$char_traits@D@std@@V?$allocator@D@2@@std@@@2@@4@10AEAV54@@Z 0000000180078441     turtlecoin-crypto.obj
 0002:0001e44e       $ip2state$?restoreRingSignatures@Cryptography@Core@@SA_NAEBV?$basic_string@DU?$char_traits@D@std@@V?$allocator@D@2@@std@@_KAEBV?$vector@V?$basic_string@DU?$char_traits@D@std@@V?$allocator@D@2@@std@@V?$allocator@V?$basic_string@DU?$char_traits@D@std@@V?$allocator@D@2@@std@@@2@@4@10AEAV54@@Z 000000018007844e     turtlecoin-crypto.obj
 0002:0001e45c       $unwind$?generatePartialSigningKey@Cryptography@Core@@SA?AV?$basic_string@DU?$char_traits@D@std@@V?$allocator@D@2@@std@@AEBV34@0@Z 000000018007845c     turtlecoin-crypto.obj
 0002:0001e480       $cppxdata$?generatePartialSigningKey@Cryptography@Core@@SA?AV?$basic_string@DU?$char_traits@D@std@@V?$allocator@D@2@@std@@AEBV34@0@Z 0000000180078480     turtlecoin-crypto.obj
 0002:0001e489       $stateUnwindMap$?generatePartialSigningKey@Cryptography@Core@@SA?AV?$basic_string@DU?$char_traits@D@std@@V?$allocator@D@2@@std@@AEBV34@0@Z 0000000180078489     turtlecoin-crypto.obj
 0002:0001e48f       $ip2state$?generatePartialSigningKey@Cryptography@Core@@SA?AV?$basic_string@DU?$char_traits@D@std@@V?$allocator@D@2@@std@@AEBV34@0@Z 000000018007848f     turtlecoin-crypto.obj
 0002:0001e498       $unwind$?prepareRingSignatures@Cryptography@Core@@SA_NV?$basic_string@DU?$char_traits@D@std@@V?$allocator@D@2@@std@@0V?$vector@V?$basic_string@DU?$char_traits@D@std@@V?$allocator@D@2@@std@@V?$allocator@V?$basic_string@DU?$char_traits@D@std@@V?$allocator@D@2@@std@@@2@@4@_KAEAV54@AEAV34@@Z 0000000180078498     turtlecoin-crypto.obj
 0002:0001e4bc       $cppxdata$?prepareRingSignatures@Cryptography@Core@@SA_NV?$basic_string@DU?$char_traits@D@std@@V?$allocator@D@2@@std@@0V?$vector@V?$basic_string@DU?$char_traits@D@std@@V?$allocator@D@2@@std@@V?$allocator@V?$basic_string@DU?$char_traits@D@std@@V?$allocator@D@2@@std@@@2@@4@_KAEAV54@AEAV34@@Z 00000001800784bc     turtlecoin-crypto.obj
 0002:0001e4c5       $stateUnwindMap$?prepareRingSignatures@Cryptography@Core@@SA_NV?$basic_string@DU?$char_traits@D@std@@V?$allocator@D@2@@std@@0V?$vector@V?$basic_string@DU?$char_traits@D@std@@V?$allocator@D@2@@std@@V?$allocator@V?$basic_string@DU?$char_traits@D@std@@V?$allocator@D@2@@std@@@2@@4@_KAEAV54@AEAV34@@Z 00000001800784c5     turtlecoin-crypto.obj
 0002:0001e4ed       $ip2state$?prepareRingSignatures@Cryptography@Core@@SA_NV?$basic_string@DU?$char_traits@D@std@@V?$allocator@D@2@@std@@0V?$vector@V?$basic_string@DU?$char_traits@D@std@@V?$allocator@D@2@@std@@V?$allocator@V?$basic_string@DU?$char_traits@D@std@@V?$allocator@D@2@@std@@@2@@4@_KAEAV54@AEAV34@@Z 00000001800784ed     turtlecoin-crypto.obj
 0002:0001e500       $unwind$?prepareRingSignatures@Cryptography@Core@@SA_NV?$basic_string@DU?$char_traits@D@std@@V?$allocator@D@2@@std@@0V?$vector@V?$basic_string@DU?$char_traits@D@std@@V?$allocator@D@2@@std@@V?$allocator@V?$basic_string@DU?$char_traits@D@std@@V?$allocator@D@2@@std@@@2@@4@_K0AEAV54@@Z 0000000180078500     turtlecoin-crypto.obj
 0002:0001e524       $cppxdata$?prepareRingSignatures@Cryptography@Core@@SA_NV?$basic_string@DU?$char_traits@D@std@@V?$allocator@D@2@@std@@0V?$vector@V?$basic_string@DU?$char_traits@D@std@@V?$allocator@D@2@@std@@V?$allocator@V?$basic_string@DU?$char_traits@D@std@@V?$allocator@D@2@@std@@@2@@4@_K0AEAV54@@Z 0000000180078524     turtlecoin-crypto.obj
 0002:0001e52d       $stateUnwindMap$?prepareRingSignatures@Cryptography@Core@@SA_NV?$basic_string@DU?$char_traits@D@std@@V?$allocator@D@2@@std@@0V?$vector@V?$basic_string@DU?$char_traits@D@std@@V?$allocator@D@2@@std@@V?$allocator@V?$basic_string@DU?$char_traits@D@std@@V?$allocator@D@2@@std@@@2@@4@_K0AEAV54@@Z 000000018007852d     turtlecoin-crypto.obj
 0002:0001e556       $ip2state$?prepareRingSignatures@Cryptography@Core@@SA_NV?$basic_string@DU?$char_traits@D@std@@V?$allocator@D@2@@std@@0V?$vector@V?$basic_string@DU?$char_traits@D@std@@V?$allocator@D@2@@std@@V?$allocator@V?$basic_string@DU?$char_traits@D@std@@V?$allocator@D@2@@std@@@2@@4@_K0AEAV54@@Z 0000000180078556     turtlecoin-crypto.obj
 0002:0001e568       $unwind$?completeRingSignatures@Cryptography@Core@@SA_NV?$basic_string@DU?$char_traits@D@std@@V?$allocator@D@2@@std@@_KAEBV34@AEAV?$vector@V?$basic_string@DU?$char_traits@D@std@@V?$allocator@D@2@@std@@V?$allocator@V?$basic_string@DU?$char_traits@D@std@@V?$allocator@D@2@@std@@@2@@4@@Z 0000000180078568     turtlecoin-crypto.obj
 0002:0001e588       $cppxdata$?completeRingSignatures@Cryptography@Core@@SA_NV?$basic_string@DU?$char_traits@D@std@@V?$allocator@D@2@@std@@_KAEBV34@AEAV?$vector@V?$basic_string@DU?$char_traits@D@std@@V?$allocator@D@2@@std@@V?$allocator@V?$basic_string@DU?$char_traits@D@std@@V?$allocator@D@2@@std@@@2@@4@@Z 0000000180078588     turtlecoin-crypto.obj
 0002:0001e591       $stateUnwindMap$?completeRingSignatures@Cryptography@Core@@SA_NV?$basic_string@DU?$char_traits@D@std@@V?$allocator@D@2@@std@@_KAEBV34@AEAV?$vector@V?$basic_string@DU?$char_traits@D@std@@V?$allocator@D@2@@std@@V?$allocator@V?$basic_string@DU?$char_traits@D@std@@V?$allocator@D@2@@std@@@2@@4@@Z 0000000180078591     turtlecoin-crypto.obj
 0002:0001e59e       $ip2state$?completeRingSignatures@Cryptography@Core@@SA_NV?$basic_string@DU?$char_traits@D@std@@V?$allocator@D@2@@std@@_KAEBV34@AEAV?$vector@V?$basic_string@DU?$char_traits@D@std@@V?$allocator@D@2@@std@@V?$allocator@V?$basic_string@DU?$char_traits@D@std@@V?$allocator@D@2@@std@@@2@@4@@Z 000000018007859e     turtlecoin-crypto.obj
 0002:0001e5a8       $unwind$?calculateMultisigPrivateKeys@Cryptography@Core@@SA?AV?$vector@V?$basic_string@DU?$char_traits@D@std@@V?$allocator@D@2@@std@@V?$allocator@V?$basic_string@DU?$char_traits@D@std@@V?$allocator@D@2@@std@@@2@@std@@AEBV?$basic_string@DU?$char_traits@D@std@@V?$allocator@D@2@@4@AEBV34@@Z 00000001800785a8     turtlecoin-crypto.obj
 0002:0001e5cc       $cppxdata$?calculateMultisigPrivateKeys@Cryptography@Core@@SA?AV?$vector@V?$basic_string@DU?$char_traits@D@std@@V?$allocator@D@2@@std@@V?$allocator@V?$basic_string@DU?$char_traits@D@std@@V?$allocator@D@2@@std@@@2@@std@@AEBV?$basic_string@DU?$char_traits@D@std@@V?$allocator@D@2@@4@AEBV34@@Z 00000001800785cc     turtlecoin-crypto.obj
 0002:0001e5d5       $stateUnwindMap$?calculateMultisigPrivateKeys@Cryptography@Core@@SA?AV?$vector@V?$basic_string@DU?$char_traits@D@std@@V?$allocator@D@2@@std@@V?$allocator@V?$basic_string@DU?$char_traits@D@std@@V?$allocator@D@2@@std@@@2@@std@@AEBV?$basic_string@DU?$char_traits@D@std@@V?$allocator@D@2@@4@AEBV34@@Z 00000001800785d5     turtlecoin-crypto.obj
 0002:0001e5e7       $ip2state$?calculateMultisigPrivateKeys@Cryptography@Core@@SA?AV?$vector@V?$basic_string@DU?$char_traits@D@std@@V?$allocator@D@2@@std@@V?$allocator@V?$basic_string@DU?$char_traits@D@std@@V?$allocator@D@2@@std@@@2@@std@@AEBV?$basic_string@DU?$char_traits@D@std@@V?$allocator@D@2@@4@AEBV34@@Z 00000001800785e7     turtlecoin-crypto.obj
 0002:0001e5f4       $unwind$?calculateSharedPrivateKey@Cryptography@Core@@SA?AV?$basic_string@DU?$char_traits@D@std@@V?$allocator@D@2@@std@@AEBV?$vector@V?$basic_string@DU?$char_traits@D@std@@V?$allocator@D@2@@std@@V?$allocator@V?$basic_string@DU?$char_traits@D@std@@V?$allocator@D@2@@std@@@2@@4@@Z 00000001800785f4     turtlecoin-crypto.obj
 0002:0001e614       $cppxdata$?calculateSharedPrivateKey@Cryptography@Core@@SA?AV?$basic_string@DU?$char_traits@D@std@@V?$allocator@D@2@@std@@AEBV?$vector@V?$basic_string@DU?$char_traits@D@std@@V?$allocator@D@2@@std@@V?$allocator@V?$basic_string@DU?$char_traits@D@std@@V?$allocator@D@2@@std@@@2@@4@@Z 0000000180078614     turtlecoin-crypto.obj
 0002:0001e61d       $stateUnwindMap$?calculateSharedPrivateKey@Cryptography@Core@@SA?AV?$basic_string@DU?$char_traits@D@std@@V?$allocator@D@2@@std@@AEBV?$vector@V?$basic_string@DU?$char_traits@D@std@@V?$allocator@D@2@@std@@V?$allocator@V?$basic_string@DU?$char_traits@D@std@@V?$allocator@D@2@@std@@@2@@4@@Z 000000018007861d     turtlecoin-crypto.obj
 0002:0001e62f       $ip2state$?calculateSharedPrivateKey@Cryptography@Core@@SA?AV?$basic_string@DU?$char_traits@D@std@@V?$allocator@D@2@@std@@AEBV?$vector@V?$basic_string@DU?$char_traits@D@std@@V?$allocator@D@2@@std@@V?$allocator@V?$basic_string@DU?$char_traits@D@std@@V?$allocator@D@2@@std@@@2@@4@@Z 000000018007862f     turtlecoin-crypto.obj
 0002:0001e640       $unwind$??0?$vector@V?$basic_string@DU?$char_traits@D@std@@V?$allocator@D@2@@std@@V?$allocator@V?$basic_string@DU?$char_traits@D@std@@V?$allocator@D@2@@std@@@2@@std@@QEAA@AEBV01@@Z 0000000180078640     turtlecoin-crypto.obj
 0002:0001e65c       $cppxdata$??0?$vector@V?$basic_string@DU?$char_traits@D@std@@V?$allocator@D@2@@std@@V?$allocator@V?$basic_string@DU?$char_traits@D@std@@V?$allocator@D@2@@std@@@2@@std@@QEAA@AEBV01@@Z 000000018007865c     turtlecoin-crypto.obj
 0002:0001e665       $stateUnwindMap$??0?$vector@V?$basic_string@DU?$char_traits@D@std@@V?$allocator@D@2@@std@@V?$allocator@V?$basic_string@DU?$char_traits@D@std@@V?$allocator@D@2@@std@@@2@@std@@QEAA@AEBV01@@Z 0000000180078665     turtlecoin-crypto.obj
 0002:0001e672       $ip2state$??0?$vector@V?$basic_string@DU?$char_traits@D@std@@V?$allocator@D@2@@std@@V?$allocator@V?$basic_string@DU?$char_traits@D@std@@V?$allocator@D@2@@std@@@2@@std@@QEAA@AEBV01@@Z 0000000180078672     turtlecoin-crypto.obj
 0002:0001e67c       $unwind$??$podToHex@UEllipticCurveScalar@Crypto@@@Common@@YA?AV?$basic_string@DU?$char_traits@D@std@@V?$allocator@D@2@@std@@AEBUEllipticCurveScalar@Crypto@@@Z 000000018007867c     turtlecoin-crypto.obj
 0002:0001e67c       $unwind$??$podToHex@UKeyImage@Crypto@@@Common@@YA?AV?$basic_string@DU?$char_traits@D@std@@V?$allocator@D@2@@std@@AEBUKeyImage@Crypto@@@Z 000000018007867c     turtlecoin-crypto.obj
 0002:0001e67c       $unwind$??$podToHex@UPublicKey@Crypto@@@Common@@YA?AV?$basic_string@DU?$char_traits@D@std@@V?$allocator@D@2@@std@@AEBUPublicKey@Crypto@@@Z 000000018007867c     turtlecoin-crypto.obj
 0002:0001e67c       $unwind$??$podToHex@USignature@Crypto@@@Common@@YA?AV?$basic_string@DU?$char_traits@D@std@@V?$allocator@D@2@@std@@AEBUSignature@Crypto@@@Z 000000018007867c     turtlecoin-crypto.obj
 0002:0001e698       $cppxdata$??$podToHex@UEllipticCurveScalar@Crypto@@@Common@@YA?AV?$basic_string@DU?$char_traits@D@std@@V?$allocator@D@2@@std@@AEBUEllipticCurveScalar@Crypto@@@Z 0000000180078698     turtlecoin-crypto.obj
 0002:0001e698       $cppxdata$??$podToHex@UKeyImage@Crypto@@@Common@@YA?AV?$basic_string@DU?$char_traits@D@std@@V?$allocator@D@2@@std@@AEBUKeyImage@Crypto@@@Z 0000000180078698     turtlecoin-crypto.obj
 0002:0001e698       $cppxdata$??$podToHex@UPublicKey@Crypto@@@Common@@YA?AV?$basic_string@DU?$char_traits@D@std@@V?$allocator@D@2@@std@@AEBUPublicKey@Crypto@@@Z 0000000180078698     turtlecoin-crypto.obj
 0002:0001e698       $cppxdata$??$podToHex@USignature@Crypto@@@Common@@YA?AV?$basic_string@DU?$char_traits@D@std@@V?$allocator@D@2@@std@@AEBUSignature@Crypto@@@Z 0000000180078698     turtlecoin-crypto.obj
 0002:0001e6a1       $stateUnwindMap$??$podToHex@UEllipticCurveScalar@Crypto@@@Common@@YA?AV?$basic_string@DU?$char_traits@D@std@@V?$allocator@D@2@@std@@AEBUEllipticCurveScalar@Crypto@@@Z 00000001800786a1     turtlecoin-crypto.obj
 0002:0001e6a1       $stateUnwindMap$??$podToHex@UKeyImage@Crypto@@@Common@@YA?AV?$basic_string@DU?$char_traits@D@std@@V?$allocator@D@2@@std@@AEBUKeyImage@Crypto@@@Z 00000001800786a1     turtlecoin-crypto.obj
 0002:0001e6a1       $stateUnwindMap$??$podToHex@UPublicKey@Crypto@@@Common@@YA?AV?$basic_string@DU?$char_traits@D@std@@V?$allocator@D@2@@std@@AEBUPublicKey@Crypto@@@Z 00000001800786a1     turtlecoin-crypto.obj
 0002:0001e6a1       $stateUnwindMap$??$podToHex@USignature@Crypto@@@Common@@YA?AV?$basic_string@DU?$char_traits@D@std@@V?$allocator@D@2@@std@@AEBUSignature@Crypto@@@Z 00000001800786a1     turtlecoin-crypto.obj
 0002:0001e6a7       $ip2state$??$podToHex@UEllipticCurveScalar@Crypto@@@Common@@YA?AV?$basic_string@DU?$char_traits@D@std@@V?$allocator@D@2@@std@@AEBUEllipticCurveScalar@Crypto@@@Z 00000001800786a7     turtlecoin-crypto.obj
 0002:0001e6a7       $ip2state$??$podToHex@UKeyImage@Crypto@@@Common@@YA?AV?$basic_string@DU?$char_traits@D@std@@V?$allocator@D@2@@std@@AEBUKeyImage@Crypto@@@Z 00000001800786a7     turtlecoin-crypto.obj
 0002:0001e6a7       $ip2state$??$podToHex@UPublicKey@Crypto@@@Common@@YA?AV?$basic_string@DU?$char_traits@D@std@@V?$allocator@D@2@@std@@AEBUPublicKey@Crypto@@@Z 00000001800786a7     turtlecoin-crypto.obj
 0002:0001e6a7       $ip2state$??$podToHex@USignature@Crypto@@@Common@@YA?AV?$basic_string@DU?$char_traits@D@std@@V?$allocator@D@2@@std@@AEBUSignature@Crypto@@@Z 00000001800786a7     turtlecoin-crypto.obj
 0002:0001e6b0       $unwind$??$toTypedVector@UHash@Crypto@@@Core@@YAXAEBV?$vector@V?$basic_string@DU?$char_traits@D@std@@V?$allocator@D@2@@std@@V?$allocator@V?$basic_string@DU?$char_traits@D@std@@V?$allocator@D@2@@std@@@2@@std@@AEAV?$vector@UHash@Crypto@@V?$allocator@UHash@Crypto@@@std@@@2@@Z 00000001800786b0     turtlecoin-crypto.obj
 0002:0001e6b0       $unwind$??$toTypedVector@UKeyImage@Crypto@@@Core@@YAXAEBV?$vector@V?$basic_string@DU?$char_traits@D@std@@V?$allocator@D@2@@std@@V?$allocator@V?$basic_string@DU?$char_traits@D@std@@V?$allocator@D@2@@std@@@2@@std@@AEAV?$vector@UKeyImage@Crypto@@V?$allocator@UKeyImage@Crypto@@@std@@@2@@Z 00000001800786b0     turtlecoin-crypto.obj
 0002:0001e6b0       $unwind$??$toTypedVector@UPublicKey@Crypto@@@Core@@YAXAEBV?$vector@V?$basic_string@DU?$char_traits@D@std@@V?$allocator@D@2@@std@@V?$allocator@V?$basic_string@DU?$char_traits@D@std@@V?$allocator@D@2@@std@@@2@@std@@AEAV?$vector@UPublicKey@Crypto@@V?$allocator@UPublicKey@Crypto@@@std@@@2@@Z 00000001800786b0     turtlecoin-crypto.obj
 0002:0001e6b0       $unwind$??$toTypedVector@USecretKey@Crypto@@@Core@@YAXAEBV?$vector@V?$basic_string@DU?$char_traits@D@std@@V?$allocator@D@2@@std@@V?$allocator@V?$basic_string@DU?$char_traits@D@std@@V?$allocator@D@2@@std@@@2@@std@@AEAV?$vector@USecretKey@Crypto@@V?$allocator@USecretKey@Crypto@@@std@@@2@@Z 00000001800786b0     turtlecoin-crypto.obj
 0002:0001e6d4       $cppxdata$??$toTypedVector@UHash@Crypto@@@Core@@YAXAEBV?$vector@V?$basic_string@DU?$char_traits@D@std@@V?$allocator@D@2@@std@@V?$allocator@V?$basic_string@DU?$char_traits@D@std@@V?$allocator@D@2@@std@@@2@@std@@AEAV?$vector@UHash@Crypto@@V?$allocator@UHash@Crypto@@@std@@@2@@Z 00000001800786d4     turtlecoin-crypto.obj
 0002:0001e6d4       $cppxdata$??$toTypedVector@UKeyImage@Crypto@@@Core@@YAXAEBV?$vector@V?$basic_string@DU?$char_traits@D@std@@V?$allocator@D@2@@std@@V?$allocator@V?$basic_string@DU?$char_traits@D@std@@V?$allocator@D@2@@std@@@2@@std@@AEAV?$vector@UKeyImage@Crypto@@V?$allocator@UKeyImage@Crypto@@@std@@@2@@Z 00000001800786d4     turtlecoin-crypto.obj
 0002:0001e6d4       $cppxdata$??$toTypedVector@UPublicKey@Crypto@@@Core@@YAXAEBV?$vector@V?$basic_string@DU?$char_traits@D@std@@V?$allocator@D@2@@std@@V?$allocator@V?$basic_string@DU?$char_traits@D@std@@V?$allocator@D@2@@std@@@2@@std@@AEAV?$vector@UPublicKey@Crypto@@V?$allocator@UPublicKey@Crypto@@@std@@@2@@Z 00000001800786d4     turtlecoin-crypto.obj
 0002:0001e6d4       $cppxdata$??$toTypedVector@USecretKey@Crypto@@@Core@@YAXAEBV?$vector@V?$basic_string@DU?$char_traits@D@std@@V?$allocator@D@2@@std@@V?$allocator@V?$basic_string@DU?$char_traits@D@std@@V?$allocator@D@2@@std@@@2@@std@@AEAV?$vector@USecretKey@Crypto@@V?$allocator@USecretKey@Crypto@@@std@@@2@@Z 00000001800786d4     turtlecoin-crypto.obj
 0002:0001e6dd       $stateUnwindMap$??$toTypedVector@UHash@Crypto@@@Core@@YAXAEBV?$vector@V?$basic_string@DU?$char_traits@D@std@@V?$allocator@D@2@@std@@V?$allocator@V?$basic_string@DU?$char_traits@D@std@@V?$allocator@D@2@@std@@@2@@std@@AEAV?$vector@UHash@Crypto@@V?$allocator@UHash@Crypto@@@std@@@2@@Z 00000001800786dd     turtlecoin-crypto.obj
 0002:0001e6dd       $stateUnwindMap$??$toTypedVector@UKeyImage@Crypto@@@Core@@YAXAEBV?$vector@V?$basic_string@DU?$char_traits@D@std@@V?$allocator@D@2@@std@@V?$allocator@V?$basic_string@DU?$char_traits@D@std@@V?$allocator@D@2@@std@@@2@@std@@AEAV?$vector@UKeyImage@Crypto@@V?$allocator@UKeyImage@Crypto@@@std@@@2@@Z 00000001800786dd     turtlecoin-crypto.obj
 0002:0001e6dd       $stateUnwindMap$??$toTypedVector@UPublicKey@Crypto@@@Core@@YAXAEBV?$vector@V?$basic_string@DU?$char_traits@D@std@@V?$allocator@D@2@@std@@V?$allocator@V?$basic_string@DU?$char_traits@D@std@@V?$allocator@D@2@@std@@@2@@std@@AEAV?$vector@UPublicKey@Crypto@@V?$allocator@UPublicKey@Crypto@@@std@@@2@@Z 00000001800786dd     turtlecoin-crypto.obj
 0002:0001e6dd       $stateUnwindMap$??$toTypedVector@USecretKey@Crypto@@@Core@@YAXAEBV?$vector@V?$basic_string@DU?$char_traits@D@std@@V?$allocator@D@2@@std@@V?$allocator@V?$basic_string@DU?$char_traits@D@std@@V?$allocator@D@2@@std@@@2@@std@@AEAV?$vector@USecretKey@Crypto@@V?$allocator@USecretKey@Crypto@@@std@@@2@@Z 00000001800786dd     turtlecoin-crypto.obj
 0002:0001e6e4       $ip2state$??$toTypedVector@UHash@Crypto@@@Core@@YAXAEBV?$vector@V?$basic_string@DU?$char_traits@D@std@@V?$allocator@D@2@@std@@V?$allocator@V?$basic_string@DU?$char_traits@D@std@@V?$allocator@D@2@@std@@@2@@std@@AEAV?$vector@UHash@Crypto@@V?$allocator@UHash@Crypto@@@std@@@2@@Z 00000001800786e4     turtlecoin-crypto.obj
 0002:0001e6e4       $ip2state$??$toTypedVector@UKeyImage@Crypto@@@Core@@YAXAEBV?$vector@V?$basic_string@DU?$char_traits@D@std@@V?$allocator@D@2@@std@@V?$allocator@V?$basic_string@DU?$char_traits@D@std@@V?$allocator@D@2@@std@@@2@@std@@AEAV?$vector@UKeyImage@Crypto@@V?$allocator@UKeyImage@Crypto@@@std@@@2@@Z 00000001800786e4     turtlecoin-crypto.obj
 0002:0001e6e4       $ip2state$??$toTypedVector@UPublicKey@Crypto@@@Core@@YAXAEBV?$vector@V?$basic_string@DU?$char_traits@D@std@@V?$allocator@D@2@@std@@V?$allocator@V?$basic_string@DU?$char_traits@D@std@@V?$allocator@D@2@@std@@@2@@std@@AEAV?$vector@UPublicKey@Crypto@@V?$allocator@UPublicKey@Crypto@@@std@@@2@@Z 00000001800786e4     turtlecoin-crypto.obj
 0002:0001e6e4       $ip2state$??$toTypedVector@USecretKey@Crypto@@@Core@@YAXAEBV?$vector@V?$basic_string@DU?$char_traits@D@std@@V?$allocator@D@2@@std@@V?$allocator@V?$basic_string@DU?$char_traits@D@std@@V?$allocator@D@2@@std@@@2@@std@@AEAV?$vector@USecretKey@Crypto@@V?$allocator@USecretKey@Crypto@@@std@@@2@@Z 00000001800786e4     turtlecoin-crypto.obj
 0002:0001e6ec       $unwind$??$toStringVector@UHash@Crypto@@@Core@@YAXAEBV?$vector@UHash@Crypto@@V?$allocator@UHash@Crypto@@@std@@@std@@AEAV?$vector@V?$basic_string@DU?$char_traits@D@std@@V?$allocator@D@2@@std@@V?$allocator@V?$basic_string@DU?$char_traits@D@std@@V?$allocator@D@2@@std@@@2@@2@@Z 00000001800786ec     turtlecoin-crypto.obj
 0002:0001e6ec       $unwind$??$toStringVector@USecretKey@Crypto@@@Core@@YAXAEBV?$vector@USecretKey@Crypto@@V?$allocator@USecretKey@Crypto@@@std@@@std@@AEAV?$vector@V?$basic_string@DU?$char_traits@D@std@@V?$allocator@D@2@@std@@V?$allocator@V?$basic_string@DU?$char_traits@D@std@@V?$allocator@D@2@@std@@@2@@2@@Z 00000001800786ec     turtlecoin-crypto.obj
 0002:0001e714       $cppxdata$??$toStringVector@UHash@Crypto@@@Core@@YAXAEBV?$vector@UHash@Crypto@@V?$allocator@UHash@Crypto@@@std@@@std@@AEAV?$vector@V?$basic_string@DU?$char_traits@D@std@@V?$allocator@D@2@@std@@V?$allocator@V?$basic_string@DU?$char_traits@D@std@@V?$allocator@D@2@@std@@@2@@2@@Z 0000000180078714     turtlecoin-crypto.obj
 0002:0001e714       $cppxdata$??$toStringVector@USecretKey@Crypto@@@Core@@YAXAEBV?$vector@USecretKey@Crypto@@V?$allocator@USecretKey@Crypto@@@std@@@std@@AEAV?$vector@V?$basic_string@DU?$char_traits@D@std@@V?$allocator@D@2@@std@@V?$allocator@V?$basic_string@DU?$char_traits@D@std@@V?$allocator@D@2@@std@@@2@@2@@Z 0000000180078714     turtlecoin-crypto.obj
 0002:0001e71d       $stateUnwindMap$??$toStringVector@UHash@Crypto@@@Core@@YAXAEBV?$vector@UHash@Crypto@@V?$allocator@UHash@Crypto@@@std@@@std@@AEAV?$vector@V?$basic_string@DU?$char_traits@D@std@@V?$allocator@D@2@@std@@V?$allocator@V?$basic_string@DU?$char_traits@D@std@@V?$allocator@D@2@@std@@@2@@2@@Z 000000018007871d     turtlecoin-crypto.obj
 0002:0001e71d       $stateUnwindMap$??$toStringVector@USecretKey@Crypto@@@Core@@YAXAEBV?$vector@USecretKey@Crypto@@V?$allocator@USecretKey@Crypto@@@std@@@std@@AEAV?$vector@V?$basic_string@DU?$char_traits@D@std@@V?$allocator@D@2@@std@@V?$allocator@V?$basic_string@DU?$char_traits@D@std@@V?$allocator@D@2@@std@@@2@@2@@Z 000000018007871d     turtlecoin-crypto.obj
 0002:0001e72a       $ip2state$??$toStringVector@UHash@Crypto@@@Core@@YAXAEBV?$vector@UHash@Crypto@@V?$allocator@UHash@Crypto@@@std@@@std@@AEAV?$vector@V?$basic_string@DU?$char_traits@D@std@@V?$allocator@D@2@@std@@V?$allocator@V?$basic_string@DU?$char_traits@D@std@@V?$allocator@D@2@@std@@@2@@2@@Z 000000018007872a     turtlecoin-crypto.obj
 0002:0001e72a       $ip2state$??$toStringVector@USecretKey@Crypto@@@Core@@YAXAEBV?$vector@USecretKey@Crypto@@V?$allocator@USecretKey@Crypto@@@std@@@std@@AEAV?$vector@V?$basic_string@DU?$char_traits@D@std@@V?$allocator@D@2@@std@@V?$allocator@V?$basic_string@DU?$char_traits@D@std@@V?$allocator@D@2@@std@@@2@@2@@Z 000000018007872a     turtlecoin-crypto.obj
 0002:0001e734       $unwind$??$toStringVector@USignature@Crypto@@@Core@@YAXAEBV?$vector@USignature@Crypto@@V?$allocator@USignature@Crypto@@@std@@@std@@AEAV?$vector@V?$basic_string@DU?$char_traits@D@std@@V?$allocator@D@2@@std@@V?$allocator@V?$basic_string@DU?$char_traits@D@std@@V?$allocator@D@2@@std@@@2@@2@@Z 0000000180078734     turtlecoin-crypto.obj
 0002:0001e760       $cppxdata$??$toStringVector@USignature@Crypto@@@Core@@YAXAEBV?$vector@USignature@Crypto@@V?$allocator@USignature@Crypto@@@std@@@std@@AEAV?$vector@V?$basic_string@DU?$char_traits@D@std@@V?$allocator@D@2@@std@@V?$allocator@V?$basic_string@DU?$char_traits@D@std@@V?$allocator@D@2@@std@@@2@@2@@Z 0000000180078760     turtlecoin-crypto.obj
 0002:0001e769       $stateUnwindMap$??$toStringVector@USignature@Crypto@@@Core@@YAXAEBV?$vector@USignature@Crypto@@V?$allocator@USignature@Crypto@@@std@@@std@@AEAV?$vector@V?$basic_string@DU?$char_traits@D@std@@V?$allocator@D@2@@std@@V?$allocator@V?$basic_string@DU?$char_traits@D@std@@V?$allocator@D@2@@std@@@2@@2@@Z 0000000180078769     turtlecoin-crypto.obj
 0002:0001e771       $ip2state$??$toStringVector@USignature@Crypto@@@Core@@YAXAEBV?$vector@USignature@Crypto@@V?$allocator@USignature@Crypto@@@std@@@std@@AEAV?$vector@V?$basic_string@DU?$char_traits@D@std@@V?$allocator@D@2@@std@@V?$allocator@V?$basic_string@DU?$char_traits@D@std@@V?$allocator@D@2@@std@@@2@@2@@Z 0000000180078771     turtlecoin-crypto.obj
 0002:0001e778       $unwind$??$toTypedVector@USignature@Crypto@@@Core@@YAXAEBV?$vector@V?$basic_string@DU?$char_traits@D@std@@V?$allocator@D@2@@std@@V?$allocator@V?$basic_string@DU?$char_traits@D@std@@V?$allocator@D@2@@std@@@2@@std@@AEAV?$vector@USignature@Crypto@@V?$allocator@USignature@Crypto@@@std@@@2@@Z 0000000180078778     turtlecoin-crypto.obj
 0002:0001e7a0       $cppxdata$??$toTypedVector@USignature@Crypto@@@Core@@YAXAEBV?$vector@V?$basic_string@DU?$char_traits@D@std@@V?$allocator@D@2@@std@@V?$allocator@V?$basic_string@DU?$char_traits@D@std@@V?$allocator@D@2@@std@@@2@@std@@AEAV?$vector@USignature@Crypto@@V?$allocator@USignature@Crypto@@@std@@@2@@Z 00000001800787a0     turtlecoin-crypto.obj
 0002:0001e7a9       $stateUnwindMap$??$toTypedVector@USignature@Crypto@@@Core@@YAXAEBV?$vector@V?$basic_string@DU?$char_traits@D@std@@V?$allocator@D@2@@std@@V?$allocator@V?$basic_string@DU?$char_traits@D@std@@V?$allocator@D@2@@std@@@2@@std@@AEAV?$vector@USignature@Crypto@@V?$allocator@USignature@Crypto@@@std@@@2@@Z 00000001800787a9     turtlecoin-crypto.obj
 0002:0001e7b0       $ip2state$??$toTypedVector@USignature@Crypto@@@Core@@YAXAEBV?$vector@V?$basic_string@DU?$char_traits@D@std@@V?$allocator@D@2@@std@@V?$allocator@V?$basic_string@DU?$char_traits@D@std@@V?$allocator@D@2@@std@@@2@@std@@AEAV?$vector@USignature@Crypto@@V?$allocator@USignature@Crypto@@@std@@@2@@Z 00000001800787b0     turtlecoin-crypto.obj
 0002:0001e7b8       $unwind$??$_Destroy_range@V?$allocator@V?$basic_string@DU?$char_traits@D@std@@V?$allocator@D@2@@std@@@std@@@std@@YAXPEAV?$basic_string@DU?$char_traits@D@std@@V?$allocator@D@2@@0@QEAV10@AEAV?$allocator@V?$basic_string@DU?$char_traits@D@std@@V?$allocator@D@2@@std@@@0@@Z 00000001800787b8     turtlecoin-crypto.obj
 0002:0001e7c4       $chain$0$??$_Destroy_range@V?$allocator@V?$basic_string@DU?$char_traits@D@std@@V?$allocator@D@2@@std@@@std@@@std@@YAXPEAV?$basic_string@DU?$char_traits@D@std@@V?$allocator@D@2@@0@QEAV10@AEAV?$allocator@V?$basic_string@DU?$char_traits@D@std@@V?$allocator@D@2@@std@@@0@@Z 00000001800787c4     turtlecoin-crypto.obj
 0002:0001e7d8       $chain$1$??$_Destroy_range@V?$allocator@V?$basic_string@DU?$char_traits@D@std@@V?$allocator@D@2@@std@@@std@@@std@@YAXPEAV?$basic_string@DU?$char_traits@D@std@@V?$allocator@D@2@@0@QEAV10@AEAV?$allocator@V?$basic_string@DU?$char_traits@D@std@@V?$allocator@D@2@@std@@@0@@Z 00000001800787d8     turtlecoin-crypto.obj
 0002:0001e7e8       $chain$2$??$_Destroy_range@V?$allocator@V?$basic_string@DU?$char_traits@D@std@@V?$allocator@D@2@@std@@@std@@@std@@YAXPEAV?$basic_string@DU?$char_traits@D@std@@V?$allocator@D@2@@0@QEAV10@AEAV?$allocator@V?$basic_string@DU?$char_traits@D@std@@V?$allocator@D@2@@std@@@0@@Z 00000001800787e8     turtlecoin-crypto.obj
 0002:0001e7fc       $chain$2$??$_Emplace_reallocate@AEBUSignature@Crypto@@@?$vector@USignature@Crypto@@V?$allocator@USignature@Crypto@@@std@@@std@@QEAAPEAUSignature@Crypto@@QEAU23@AEBU23@@Z 00000001800787fc     turtlecoin-crypto.obj
 0002:0001e818       $chain$3$??$_Emplace_reallocate@AEBUSignature@Crypto@@@?$vector@USignature@Crypto@@V?$allocator@USignature@Crypto@@@std@@@std@@QEAAPEAUSignature@Crypto@@QEAU23@AEBU23@@Z 0000000180078818     turtlecoin-crypto.obj
 0002:0001e828       $unwind$??$_Emplace_reallocate@V?$basic_string@DU?$char_traits@D@std@@V?$allocator@D@2@@std@@@?$vector@V?$basic_string@DU?$char_traits@D@std@@V?$allocator@D@2@@std@@V?$allocator@V?$basic_string@DU?$char_traits@D@std@@V?$allocator@D@2@@std@@@2@@std@@QEAAPEAV?$basic_string@DU?$char_traits@D@std@@V?$allocator@D@2@@1@QEAV21@$$QEAV21@@Z 0000000180078828     turtlecoin-crypto.obj
 0002:0001e838       $chain$3$??$_Emplace_reallocate@V?$basic_string@DU?$char_traits@D@std@@V?$allocator@D@2@@std@@@?$vector@V?$basic_string@DU?$char_traits@D@std@@V?$allocator@D@2@@std@@V?$allocator@V?$basic_string@DU?$char_traits@D@std@@V?$allocator@D@2@@std@@@2@@std@@QEAAPEAV?$basic_string@DU?$char_traits@D@std@@V?$allocator@D@2@@1@QEAV21@$$QEAV21@@Z 0000000180078838     turtlecoin-crypto.obj
 0002:0001e858       $chain$5$??$_Emplace_reallocate@V?$basic_string@DU?$char_traits@D@std@@V?$allocator@D@2@@std@@@?$vector@V?$basic_string@DU?$char_traits@D@std@@V?$allocator@D@2@@std@@V?$allocator@V?$basic_string@DU?$char_traits@D@std@@V?$allocator@D@2@@std@@@2@@std@@QEAAPEAV?$basic_string@DU?$char_traits@D@std@@V?$allocator@D@2@@1@QEAV21@$$QEAV21@@Z 0000000180078858     turtlecoin-crypto.obj
 0002:0001e878       $chain$6$??$_Emplace_reallocate@V?$basic_string@DU?$char_traits@D@std@@V?$allocator@D@2@@std@@@?$vector@V?$basic_string@DU?$char_traits@D@std@@V?$allocator@D@2@@std@@V?$allocator@V?$basic_string@DU?$char_traits@D@std@@V?$allocator@D@2@@std@@@2@@std@@QEAAPEAV?$basic_string@DU?$char_traits@D@std@@V?$allocator@D@2@@1@QEAV21@$$QEAV21@@Z 0000000180078878     turtlecoin-crypto.obj
 0002:0001e888       $unwind$?FunctionCallbackWrapper@imp@Nan@@YAXAEBV?$FunctionCallbackInfo@VValue@v8@@@v8@@@Z 0000000180078888     turtlecoin-crypto-node.obj
 0002:0001e89c       $unwind$??0Utf8String@Nan@@QEAA@V?$Local@VValue@v8@@@v8@@@Z 000000018007889c     turtlecoin-crypto-node.obj
 0002:0001e8b4       $cppxdata$??0Utf8String@Nan@@QEAA@V?$Local@VValue@v8@@@v8@@@Z 00000001800788b4     turtlecoin-crypto-node.obj
 0002:0001e8bd       $stateUnwindMap$??0Utf8String@Nan@@QEAA@V?$Local@VValue@v8@@@v8@@@Z 00000001800788bd     turtlecoin-crypto-node.obj
 0002:0001e8c4       $ip2state$??0Utf8String@Nan@@QEAA@V?$Local@VValue@v8@@@v8@@@Z 00000001800788c4     turtlecoin-crypto-node.obj
 0002:0001e8cc       $unwind$??1Utf8String@Nan@@QEAA@XZ 00000001800788cc     turtlecoin-crypto-node.obj
 0002:0001e8dc       $cppxdata$??1Utf8String@Nan@@QEAA@XZ 00000001800788dc     turtlecoin-crypto-node.obj
 0002:0001e8e1       $ip2state$??1Utf8String@Nan@@QEAA@XZ 00000001800788e1     turtlecoin-crypto-node.obj
 0002:0001e8e4       $unwind$?prepareResult@@YA?AV?$Local@VArray@v8@@@v8@@_NV?$Local@VValue@v8@@@2@@Z 00000001800788e4     turtlecoin-crypto-node.obj
 0002:0001e900       $cppxdata$?prepareResult@@YA?AV?$Local@VArray@v8@@@v8@@_NV?$Local@VValue@v8@@@2@@Z 0000000180078900     turtlecoin-crypto-node.obj
 0002:0001e909       $stateUnwindMap$?prepareResult@@YA?AV?$Local@VArray@v8@@@v8@@_NV?$Local@VValue@v8@@@2@@Z 0000000180078909     turtlecoin-crypto-node.obj
 0002:0001e910       $ip2state$?prepareResult@@YA?AV?$Local@VArray@v8@@@v8@@_NV?$Local@VValue@v8@@@2@@Z 0000000180078910     turtlecoin-crypto-node.obj
 0002:0001e91c       $unwind$?getString@@YA?AV?$basic_string@DU?$char_traits@D@std@@V?$allocator@D@2@@std@@AEBV?$FunctionCallbackInfo@VValue@v8@@@Nan@@E@Z 000000018007891c     turtlecoin-crypto-node.obj
 0002:0001e940       $cppxdata$?getString@@YA?AV?$basic_string@DU?$char_traits@D@std@@V?$allocator@D@2@@std@@AEBV?$FunctionCallbackInfo@VValue@v8@@@Nan@@E@Z 0000000180078940     turtlecoin-crypto-node.obj
 0002:0001e949       $stateUnwindMap$?getString@@YA?AV?$basic_string@DU?$char_traits@D@std@@V?$allocator@D@2@@std@@AEBV?$FunctionCallbackInfo@VValue@v8@@@Nan@@E@Z 0000000180078949     turtlecoin-crypto-node.obj
 0002:0001e95a       $ip2state$?getString@@YA?AV?$basic_string@DU?$char_traits@D@std@@V?$allocator@D@2@@std@@AEBV?$FunctionCallbackInfo@VValue@v8@@@Nan@@E@Z 000000018007895a     turtlecoin-crypto-node.obj
 0002:0001e968       $unwind$?toStringVector@@YA?AV?$vector@V?$basic_string@DU?$char_traits@D@std@@V?$allocator@D@2@@std@@V?$allocator@V?$basic_string@DU?$char_traits@D@std@@V?$allocator@D@2@@std@@@2@@std@@AEBV?$FunctionCallbackInfo@VValue@v8@@@Nan@@E@Z 0000000180078968     turtlecoin-crypto-node.obj
 0002:0001e98c       $cppxdata$?toStringVector@@YA?AV?$vector@V?$basic_string@DU?$char_traits@D@std@@V?$allocator@D@2@@std@@V?$allocator@V?$basic_string@DU?$char_traits@D@std@@V?$allocator@D@2@@std@@@2@@std@@AEBV?$FunctionCallbackInfo@VValue@v8@@@Nan@@E@Z 000000018007898c     turtlecoin-crypto-node.obj
 0002:0001e995       $stateUnwindMap$?toStringVector@@YA?AV?$vector@V?$basic_string@DU?$char_traits@D@std@@V?$allocator@D@2@@std@@V?$allocator@V?$basic_string@DU?$char_traits@D@std@@V?$allocator@D@2@@std@@@2@@std@@AEBV?$FunctionCallbackInfo@VValue@v8@@@Nan@@E@Z 0000000180078995     turtlecoin-crypto-node.obj
 0002:0001e9b9       $ip2state$?toStringVector@@YA?AV?$vector@V?$basic_string@DU?$char_traits@D@std@@V?$allocator@D@2@@std@@V?$allocator@V?$basic_string@DU?$char_traits@D@std@@V?$allocator@D@2@@std@@@2@@std@@AEBV?$FunctionCallbackInfo@VValue@v8@@@Nan@@E@Z 00000001800789b9     turtlecoin-crypto-node.obj
 0002:0001e9c8       $unwind$?getUInt32@@YAIAEBV?$FunctionCallbackInfo@VValue@v8@@@Nan@@E@Z 00000001800789c8     turtlecoin-crypto-node.obj
 0002:0001e9c8       $unwind$?getUInt64@@YA_KAEBV?$FunctionCallbackInfo@VValue@v8@@@Nan@@E@Z 00000001800789c8     turtlecoin-crypto-node.obj
 0002:0001e9e0       $cppxdata$?getUInt32@@YAIAEBV?$FunctionCallbackInfo@VValue@v8@@@Nan@@E@Z 00000001800789e0     turtlecoin-crypto-node.obj
 0002:0001e9e0       $cppxdata$?getUInt64@@YA_KAEBV?$FunctionCallbackInfo@VValue@v8@@@Nan@@E@Z 00000001800789e0     turtlecoin-crypto-node.obj
 0002:0001e9e9       $stateUnwindMap$?getUInt32@@YAIAEBV?$FunctionCallbackInfo@VValue@v8@@@Nan@@E@Z 00000001800789e9     turtlecoin-crypto-node.obj
 0002:0001e9e9       $stateUnwindMap$?getUInt64@@YA_KAEBV?$FunctionCallbackInfo@VValue@v8@@@Nan@@E@Z 00000001800789e9     turtlecoin-crypto-node.obj
 0002:0001e9f0       $ip2state$?getUInt32@@YAIAEBV?$FunctionCallbackInfo@VValue@v8@@@Nan@@E@Z 00000001800789f0     turtlecoin-crypto-node.obj
 0002:0001e9f0       $ip2state$?getUInt64@@YA_KAEBV?$FunctionCallbackInfo@VValue@v8@@@Nan@@E@Z 00000001800789f0     turtlecoin-crypto-node.obj
 0002:0001e9f8       $unwind$?toV8Array@@YA?AV?$Local@VArray@v8@@@v8@@AEBV?$vector@V?$basic_string@DU?$char_traits@D@std@@V?$allocator@D@2@@std@@V?$allocator@V?$basic_string@DU?$char_traits@D@std@@V?$allocator@D@2@@std@@@2@@std@@@Z 00000001800789f8     turtlecoin-crypto-node.obj
 0002:0001ea18       $cppxdata$?toV8Array@@YA?AV?$Local@VArray@v8@@@v8@@AEBV?$vector@V?$basic_string@DU?$char_traits@D@std@@V?$allocator@D@2@@std@@V?$allocator@V?$basic_string@DU?$char_traits@D@std@@V?$allocator@D@2@@std@@@2@@std@@@Z 0000000180078a18     turtlecoin-crypto-node.obj
 0002:0001ea21       $stateUnwindMap$?toV8Array@@YA?AV?$Local@VArray@v8@@@v8@@AEBV?$vector@V?$basic_string@DU?$char_traits@D@std@@V?$allocator@D@2@@std@@V?$allocator@V?$basic_string@DU?$char_traits@D@std@@V?$allocator@D@2@@std@@@2@@std@@@Z 0000000180078a21     turtlecoin-crypto-node.obj
 0002:0001ea2f       $ip2state$?toV8Array@@YA?AV?$Local@VArray@v8@@@v8@@AEBV?$vector@V?$basic_string@DU?$char_traits@D@std@@V?$allocator@D@2@@std@@V?$allocator@V?$basic_string@DU?$char_traits@D@std@@V?$allocator@D@2@@std@@@2@@std@@@Z 0000000180078a2f     turtlecoin-crypto-node.obj
 0002:0001ea3c       $unwind$?calculateMultisigPrivateKeys@@YAXAEBV?$FunctionCallbackInfo@VValue@v8@@@Nan@@@Z 0000000180078a3c     turtlecoin-crypto-node.obj
 0002:0001ea5c       $cppxdata$?calculateMultisigPrivateKeys@@YAXAEBV?$FunctionCallbackInfo@VValue@v8@@@Nan@@@Z 0000000180078a5c     turtlecoin-crypto-node.obj
 0002:0001ea69       $stateUnwindMap$?calculateMultisigPrivateKeys@@YAXAEBV?$FunctionCallbackInfo@VValue@v8@@@Nan@@@Z 0000000180078a69     turtlecoin-crypto-node.obj
 0002:0001ea7f       $tryMap$?calculateMultisigPrivateKeys@@YAXAEBV?$FunctionCallbackInfo@VValue@v8@@@Nan@@@Z 0000000180078a7f     turtlecoin-crypto-node.obj
 0002:0001ea87       $handlerMap$?calculateMultisigPrivateKeys@@YAXAEBV?$FunctionCallbackInfo@VValue@v8@@@Nan@@@Z 0000000180078a87     turtlecoin-crypto-node.obj
 0002:0001ea94       $ip2state$?calculateMultisigPrivateKeys@@YAXAEBV?$FunctionCallbackInfo@VValue@v8@@@Nan@@@Z 0000000180078a94     turtlecoin-crypto-node.obj
 0002:0001eaa4       $unwind$?catch$10@?0??restoreKeyImage@@YAXAEBV?$FunctionCallbackInfo@VValue@v8@@@Nan@@@Z@4HA 0000000180078aa4     turtlecoin-crypto-node.obj
 0002:0001eaa4       $unwind$?catch$11@?0??scalarmultKey@@YAXAEBV?$FunctionCallbackInfo@VValue@v8@@@Nan@@@Z@4HA 0000000180078aa4     turtlecoin-crypto-node.obj
 0002:0001eaa4       $unwind$?catch$11@?0??secretKeyToPublicKey@@YAXAEBV?$FunctionCallbackInfo@VValue@v8@@@Nan@@@Z@4HA 0000000180078aa4     turtlecoin-crypto-node.obj
 0002:0001eaa4       $unwind$?catch$12@?0??generateRingSignatures@@YAXAEBV?$FunctionCallbackInfo@VValue@v8@@@Nan@@@Z@4HA 0000000180078aa4     turtlecoin-crypto-node.obj
 0002:0001eaa4       $unwind$?catch$14@?0??derivePublicKey@@YAXAEBV?$FunctionCallbackInfo@VValue@v8@@@Nan@@@Z@4HA 0000000180078aa4     turtlecoin-crypto-node.obj
 0002:0001eaa4       $unwind$?catch$14@?0??generateKeyDerivation@@YAXAEBV?$FunctionCallbackInfo@VValue@v8@@@Nan@@@Z@4HA 0000000180078aa4     turtlecoin-crypto-node.obj
 0002:0001eaa4       $unwind$?catch$14@?0??underivePublicKey@@YAXAEBV?$FunctionCallbackInfo@VValue@v8@@@Nan@@@Z@4HA 0000000180078aa4     turtlecoin-crypto-node.obj
 0002:0001eaa4       $unwind$?catch$16@?0??deriveSecretKey@@YAXAEBV?$FunctionCallbackInfo@VValue@v8@@@Nan@@@Z@4HA 0000000180078aa4     turtlecoin-crypto-node.obj
 0002:0001eaa4       $unwind$?catch$16@?0??generateKeyImage@@YAXAEBV?$FunctionCallbackInfo@VValue@v8@@@Nan@@@Z@4HA 0000000180078aa4     turtlecoin-crypto-node.obj
 0002:0001eaa4       $unwind$?catch$18@?0??generateKeys@@YAXAEBV?$FunctionCallbackInfo@VValue@v8@@@Nan@@@Z@4HA 0000000180078aa4     turtlecoin-crypto-node.obj
 0002:0001eaa4       $unwind$?catch$19@?0??generateSignature@@YAXAEBV?$FunctionCallbackInfo@VValue@v8@@@Nan@@@Z@4HA 0000000180078aa4     turtlecoin-crypto-node.obj
 0002:0001eaa4       $unwind$?catch$19@?0??tree_hash_from_branch@@YAXAEBV?$FunctionCallbackInfo@VValue@v8@@@Nan@@@Z@4HA 0000000180078aa4     turtlecoin-crypto-node.obj
 0002:0001eaa4       $unwind$?catch$20@?0??prepareRingSignatures@@YAXAEBV?$FunctionCallbackInfo@VValue@v8@@@Nan@@@Z@4HA 0000000180078aa4     turtlecoin-crypto-node.obj
 0002:0001eaa4       $unwind$?catch$21@?0??generateDeterministicSubwalletKeys@@YAXAEBV?$FunctionCallbackInfo@VValue@v8@@@Nan@@@Z@4HA 0000000180078aa4     turtlecoin-crypto-node.obj
 0002:0001eaa4       $unwind$?catch$21@?0??generateViewKeysFromPrivateSpendKey@@YAXAEBV?$FunctionCallbackInfo@VValue@v8@@@Nan@@@Z@4HA 0000000180078aa4     turtlecoin-crypto-node.obj
 0002:0001eaa4       $unwind$?catch$2@?0??tree_depth@@YAXAEBV?$FunctionCallbackInfo@VValue@v8@@@Nan@@@Z@4HA 0000000180078aa4     turtlecoin-crypto-node.obj
 0002:0001eaa4       $unwind$?catch$4@?0??calculateMultisigPrivateKeys@@YAXAEBV?$FunctionCallbackInfo@VValue@v8@@@Nan@@@Z@4HA 0000000180078aa4     turtlecoin-crypto-node.obj
 0002:0001eaa4       $unwind$?catch$6@?0??calculateSharedPrivateKey@@YAXAEBV?$FunctionCallbackInfo@VValue@v8@@@Nan@@@Z@4HA 0000000180078aa4     turtlecoin-crypto-node.obj
 0002:0001eaa4       $unwind$?catch$6@?0??completeRingSignatures@@YAXAEBV?$FunctionCallbackInfo@VValue@v8@@@Nan@@@Z@4HA 0000000180078aa4     turtlecoin-crypto-node.obj
 0002:0001eaa4       $unwind$?catch$6@?0??restoreRingSignatures@@YAXAEBV?$FunctionCallbackInfo@VValue@v8@@@Nan@@@Z@4HA 0000000180078aa4     turtlecoin-crypto-node.obj
 0002:0001eaa4       $unwind$?catch$7@?0??tree_branch@@YAXAEBV?$FunctionCallbackInfo@VValue@v8@@@Nan@@@Z@4HA 0000000180078aa4     turtlecoin-crypto-node.obj
 0002:0001eaa4       $unwind$?catch$7@?0??tree_hash@@YAXAEBV?$FunctionCallbackInfo@VValue@v8@@@Nan@@@Z@4HA 0000000180078aa4     turtlecoin-crypto-node.obj
 0002:0001eaa4       $unwind$?catch$8@?0??calculateSharedPublicKey@@YAXAEBV?$FunctionCallbackInfo@VValue@v8@@@Nan@@@Z@4HA 0000000180078aa4     turtlecoin-crypto-node.obj
 0002:0001eaa4       $unwind$?catch$8@?0??chukwa_slow_hash@@YAXAEBV?$FunctionCallbackInfo@VValue@v8@@@Nan@@@Z@4HA 0000000180078aa4     turtlecoin-crypto-node.obj
 0002:0001eaa4       $unwind$?catch$8@?0??cn_dark_lite_slow_hash_v0@@YAXAEBV?$FunctionCallbackInfo@VValue@v8@@@Nan@@@Z@4HA 0000000180078aa4     turtlecoin-crypto-node.obj
 0002:0001eaa4       $unwind$?catch$8@?0??cn_dark_lite_slow_hash_v1@@YAXAEBV?$FunctionCallbackInfo@VValue@v8@@@Nan@@@Z@4HA 0000000180078aa4     turtlecoin-crypto-node.obj
 0002:0001eaa4       $unwind$?catch$8@?0??cn_dark_lite_slow_hash_v2@@YAXAEBV?$FunctionCallbackInfo@VValue@v8@@@Nan@@@Z@4HA 0000000180078aa4     turtlecoin-crypto-node.obj
 0002:0001eaa4       $unwind$?catch$8@?0??cn_dark_slow_hash_v0@@YAXAEBV?$FunctionCallbackInfo@VValue@v8@@@Nan@@@Z@4HA 0000000180078aa4     turtlecoin-crypto-node.obj
 0002:0001eaa4       $unwind$?catch$8@?0??cn_dark_slow_hash_v1@@YAXAEBV?$FunctionCallbackInfo@VValue@v8@@@Nan@@@Z@4HA 0000000180078aa4     turtlecoin-crypto-node.obj
 0002:0001eaa4       $unwind$?catch$8@?0??cn_dark_slow_hash_v2@@YAXAEBV?$FunctionCallbackInfo@VValue@v8@@@Nan@@@Z@4HA 0000000180078aa4     turtlecoin-crypto-node.obj
 0002:0001eaa4       $unwind$?catch$8@?0??cn_fast_hash@@YAXAEBV?$FunctionCallbackInfo@VValue@v8@@@Nan@@@Z@4HA 0000000180078aa4     turtlecoin-crypto-node.obj
 0002:0001eaa4       $unwind$?catch$8@?0??cn_lite_slow_hash_v0@@YAXAEBV?$FunctionCallbackInfo@VValue@v8@@@Nan@@@Z@4HA 0000000180078aa4     turtlecoin-crypto-node.obj
 0002:0001eaa4       $unwind$?catch$8@?0??cn_lite_slow_hash_v1@@YAXAEBV?$FunctionCallbackInfo@VValue@v8@@@Nan@@@Z@4HA 0000000180078aa4     turtlecoin-crypto-node.obj
 0002:0001eaa4       $unwind$?catch$8@?0??cn_lite_slow_hash_v2@@YAXAEBV?$FunctionCallbackInfo@VValue@v8@@@Nan@@@Z@4HA 0000000180078aa4     turtlecoin-crypto-node.obj
 0002:0001eaa4       $unwind$?catch$8@?0??cn_slow_hash_v0@@YAXAEBV?$FunctionCallbackInfo@VValue@v8@@@Nan@@@Z@4HA 0000000180078aa4     turtlecoin-crypto-node.obj
 0002:0001eaa4       $unwind$?catch$8@?0??cn_slow_hash_v1@@YAXAEBV?$FunctionCallbackInfo@VValue@v8@@@Nan@@@Z@4HA 0000000180078aa4     turtlecoin-crypto-node.obj
 0002:0001eaa4       $unwind$?catch$8@?0??cn_slow_hash_v2@@YAXAEBV?$FunctionCallbackInfo@VValue@v8@@@Nan@@@Z@4HA 0000000180078aa4     turtlecoin-crypto-node.obj
 0002:0001eaa4       $unwind$?catch$8@?0??cn_turtle_lite_slow_hash_v0@@YAXAEBV?$FunctionCallbackInfo@VValue@v8@@@Nan@@@Z@4HA 0000000180078aa4     turtlecoin-crypto-node.obj
 0002:0001eaa4       $unwind$?catch$8@?0??cn_turtle_lite_slow_hash_v1@@YAXAEBV?$FunctionCallbackInfo@VValue@v8@@@Nan@@@Z@4HA 0000000180078aa4     turtlecoin-crypto-node.obj
 0002:0001eaa4       $unwind$?catch$8@?0??cn_turtle_lite_slow_hash_v2@@YAXAEBV?$FunctionCallbackInfo@VValue@v8@@@Nan@@@Z@4HA 0000000180078aa4     turtlecoin-crypto-node.obj
 0002:0001eaa4       $unwind$?catch$8@?0??cn_turtle_slow_hash_v0@@YAXAEBV?$FunctionCallbackInfo@VValue@v8@@@Nan@@@Z@4HA 0000000180078aa4     turtlecoin-crypto-node.obj
 0002:0001eaa4       $unwind$?catch$8@?0??cn_turtle_slow_hash_v1@@YAXAEBV?$FunctionCallbackInfo@VValue@v8@@@Nan@@@Z@4HA 0000000180078aa4     turtlecoin-crypto-node.obj
 0002:0001eaa4       $unwind$?catch$8@?0??cn_turtle_slow_hash_v2@@YAXAEBV?$FunctionCallbackInfo@VValue@v8@@@Nan@@@Z@4HA 0000000180078aa4     turtlecoin-crypto-node.obj
 0002:0001eaa4       $unwind$?catch$8@?0??generatePrivateViewKeyFromPrivateSpendKey@@YAXAEBV?$FunctionCallbackInfo@VValue@v8@@@Nan@@@Z@4HA 0000000180078aa4     turtlecoin-crypto-node.obj
 0002:0001eaa4       $unwind$?catch$8@?0??hashToEllipticCurve@@YAXAEBV?$FunctionCallbackInfo@VValue@v8@@@Nan@@@Z@4HA 0000000180078aa4     turtlecoin-crypto-node.obj
 0002:0001eaa4       $unwind$?catch$8@?0??hashToScalar@@YAXAEBV?$FunctionCallbackInfo@VValue@v8@@@Nan@@@Z@4HA 0000000180078aa4     turtlecoin-crypto-node.obj
 0002:0001eaa4       $unwind$?catch$8@?0??scReduce32@@YAXAEBV?$FunctionCallbackInfo@VValue@v8@@@Nan@@@Z@4HA 0000000180078aa4     turtlecoin-crypto-node.obj
 0002:0001eaa4       $unwind$?catch$9@?0??generatePartialSigningKey@@YAXAEBV?$FunctionCallbackInfo@VValue@v8@@@Nan@@@Z@4HA 0000000180078aa4     turtlecoin-crypto-node.obj
 0002:0001eaac       $unwind$?calculateSharedPrivateKey@@YAXAEBV?$FunctionCallbackInfo@VValue@v8@@@Nan@@@Z 0000000180078aac     turtlecoin-crypto-node.obj
 0002:0001eacc       $cppxdata$?calculateSharedPrivateKey@@YAXAEBV?$FunctionCallbackInfo@VValue@v8@@@Nan@@@Z 0000000180078acc     turtlecoin-crypto-node.obj
 0002:0001ead9       $stateUnwindMap$?calculateSharedPrivateKey@@YAXAEBV?$FunctionCallbackInfo@VValue@v8@@@Nan@@@Z 0000000180078ad9     turtlecoin-crypto-node.obj
 0002:0001eaef       $tryMap$?calculateSharedPrivateKey@@YAXAEBV?$FunctionCallbackInfo@VValue@v8@@@Nan@@@Z 0000000180078aef     turtlecoin-crypto-node.obj
 0002:0001eaf7       $handlerMap$?calculateSharedPrivateKey@@YAXAEBV?$FunctionCallbackInfo@VValue@v8@@@Nan@@@Z 0000000180078af7     turtlecoin-crypto-node.obj
 0002:0001eb04       $ip2state$?calculateSharedPrivateKey@@YAXAEBV?$FunctionCallbackInfo@VValue@v8@@@Nan@@@Z 0000000180078b04     turtlecoin-crypto-node.obj
 0002:0001eb18       $unwind$?calculateSharedPublicKey@@YAXAEBV?$FunctionCallbackInfo@VValue@v8@@@Nan@@@Z 0000000180078b18     turtlecoin-crypto-node.obj
 0002:0001eb38       $cppxdata$?calculateSharedPublicKey@@YAXAEBV?$FunctionCallbackInfo@VValue@v8@@@Nan@@@Z 0000000180078b38     turtlecoin-crypto-node.obj
 0002:0001eb45       $stateUnwindMap$?calculateSharedPublicKey@@YAXAEBV?$FunctionCallbackInfo@VValue@v8@@@Nan@@@Z 0000000180078b45     turtlecoin-crypto-node.obj
 0002:0001eb61       $tryMap$?calculateSharedPublicKey@@YAXAEBV?$FunctionCallbackInfo@VValue@v8@@@Nan@@@Z 0000000180078b61     turtlecoin-crypto-node.obj
 0002:0001eb69       $handlerMap$?calculateSharedPublicKey@@YAXAEBV?$FunctionCallbackInfo@VValue@v8@@@Nan@@@Z 0000000180078b69     turtlecoin-crypto-node.obj
 0002:0001eb76       $ip2state$?calculateSharedPublicKey@@YAXAEBV?$FunctionCallbackInfo@VValue@v8@@@Nan@@@Z 0000000180078b76     turtlecoin-crypto-node.obj
 0002:0001eb8c       $unwind$?prepareRingSignatures@@YAXAEBV?$FunctionCallbackInfo@VValue@v8@@@Nan@@@Z 0000000180078b8c     turtlecoin-crypto-node.obj
 0002:0001ebb4       $cppxdata$?prepareRingSignatures@@YAXAEBV?$FunctionCallbackInfo@VValue@v8@@@Nan@@@Z 0000000180078bb4     turtlecoin-crypto-node.obj
 0002:0001ebc1       $stateUnwindMap$?prepareRingSignatures@@YAXAEBV?$FunctionCallbackInfo@VValue@v8@@@Nan@@@Z 0000000180078bc1     turtlecoin-crypto-node.obj
 0002:0001ec15       $tryMap$?prepareRingSignatures@@YAXAEBV?$FunctionCallbackInfo@VValue@v8@@@Nan@@@Z 0000000180078c15     turtlecoin-crypto-node.obj
 0002:0001ec1d       $handlerMap$?prepareRingSignatures@@YAXAEBV?$FunctionCallbackInfo@VValue@v8@@@Nan@@@Z 0000000180078c1d     turtlecoin-crypto-node.obj
 0002:0001ec2a       $ip2state$?prepareRingSignatures@@YAXAEBV?$FunctionCallbackInfo@VValue@v8@@@Nan@@@Z 0000000180078c2a     turtlecoin-crypto-node.obj
 0002:0001ec58       $unwind$?completeRingSignatures@@YAXAEBV?$FunctionCallbackInfo@VValue@v8@@@Nan@@@Z 0000000180078c58     turtlecoin-crypto-node.obj
 0002:0001ec7c       $cppxdata$?completeRingSignatures@@YAXAEBV?$FunctionCallbackInfo@VValue@v8@@@Nan@@@Z 0000000180078c7c     turtlecoin-crypto-node.obj
 0002:0001ec89       $stateUnwindMap$?completeRingSignatures@@YAXAEBV?$FunctionCallbackInfo@VValue@v8@@@Nan@@@Z 0000000180078c89     turtlecoin-crypto-node.obj
 0002:0001eca0       $tryMap$?completeRingSignatures@@YAXAEBV?$FunctionCallbackInfo@VValue@v8@@@Nan@@@Z 0000000180078ca0     turtlecoin-crypto-node.obj
 0002:0001eca8       $handlerMap$?completeRingSignatures@@YAXAEBV?$FunctionCallbackInfo@VValue@v8@@@Nan@@@Z 0000000180078ca8     turtlecoin-crypto-node.obj
 0002:0001ecb5       $ip2state$?completeRingSignatures@@YAXAEBV?$FunctionCallbackInfo@VValue@v8@@@Nan@@@Z 0000000180078cb5     turtlecoin-crypto-node.obj
 0002:0001ecc8       $unwind$?restoreRingSignatures@@YAXAEBV?$FunctionCallbackInfo@VValue@v8@@@Nan@@@Z 0000000180078cc8     turtlecoin-crypto-node.obj
 0002:0001ecec       $cppxdata$?restoreRingSignatures@@YAXAEBV?$FunctionCallbackInfo@VValue@v8@@@Nan@@@Z 0000000180078cec     turtlecoin-crypto-node.obj
 0002:0001ecf9       $stateUnwindMap$?restoreRingSignatures@@YAXAEBV?$FunctionCallbackInfo@VValue@v8@@@Nan@@@Z 0000000180078cf9     turtlecoin-crypto-node.obj
 0002:0001ed16       $tryMap$?restoreRingSignatures@@YAXAEBV?$FunctionCallbackInfo@VValue@v8@@@Nan@@@Z 0000000180078d16     turtlecoin-crypto-node.obj
 0002:0001ed1e       $handlerMap$?restoreRingSignatures@@YAXAEBV?$FunctionCallbackInfo@VValue@v8@@@Nan@@@Z 0000000180078d1e     turtlecoin-crypto-node.obj
 0002:0001ed2b       $ip2state$?restoreRingSignatures@@YAXAEBV?$FunctionCallbackInfo@VValue@v8@@@Nan@@@Z 0000000180078d2b     turtlecoin-crypto-node.obj
 0002:0001ed40       $unwind$?generatePartialSigningKey@@YAXAEBV?$FunctionCallbackInfo@VValue@v8@@@Nan@@@Z 0000000180078d40     turtlecoin-crypto-node.obj
 0002:0001ed64       $cppxdata$?generatePartialSigningKey@@YAXAEBV?$FunctionCallbackInfo@VValue@v8@@@Nan@@@Z 0000000180078d64     turtlecoin-crypto-node.obj
 0002:0001ed71       $stateUnwindMap$?generatePartialSigningKey@@YAXAEBV?$FunctionCallbackInfo@VValue@v8@@@Nan@@@Z 0000000180078d71     turtlecoin-crypto-node.obj
 0002:0001ed8e       $tryMap$?generatePartialSigningKey@@YAXAEBV?$FunctionCallbackInfo@VValue@v8@@@Nan@@@Z 0000000180078d8e     turtlecoin-crypto-node.obj
 0002:0001ed96       $handlerMap$?generatePartialSigningKey@@YAXAEBV?$FunctionCallbackInfo@VValue@v8@@@Nan@@@Z 0000000180078d96     turtlecoin-crypto-node.obj
 0002:0001eda3       $ip2state$?generatePartialSigningKey@@YAXAEBV?$FunctionCallbackInfo@VValue@v8@@@Nan@@@Z 0000000180078da3     turtlecoin-crypto-node.obj
 0002:0001edbc       $unwind$?restoreKeyImage@@YAXAEBV?$FunctionCallbackInfo@VValue@v8@@@Nan@@@Z 0000000180078dbc     turtlecoin-crypto-node.obj
 0002:0001ede0       $cppxdata$?restoreKeyImage@@YAXAEBV?$FunctionCallbackInfo@VValue@v8@@@Nan@@@Z 0000000180078de0     turtlecoin-crypto-node.obj
 0002:0001eded       $stateUnwindMap$?restoreKeyImage@@YAXAEBV?$FunctionCallbackInfo@VValue@v8@@@Nan@@@Z 0000000180078ded     turtlecoin-crypto-node.obj
 0002:0001ee11       $tryMap$?restoreKeyImage@@YAXAEBV?$FunctionCallbackInfo@VValue@v8@@@Nan@@@Z 0000000180078e11     turtlecoin-crypto-node.obj
 0002:0001ee19       $handlerMap$?restoreKeyImage@@YAXAEBV?$FunctionCallbackInfo@VValue@v8@@@Nan@@@Z 0000000180078e19     turtlecoin-crypto-node.obj
 0002:0001ee26       $ip2state$?restoreKeyImage@@YAXAEBV?$FunctionCallbackInfo@VValue@v8@@@Nan@@@Z 0000000180078e26     turtlecoin-crypto-node.obj
 0002:0001ee40       $unwind$?checkKey@@YAXAEBV?$FunctionCallbackInfo@VValue@v8@@@Nan@@@Z 0000000180078e40     turtlecoin-crypto-node.obj
 0002:0001ee58       $cppxdata$?checkKey@@YAXAEBV?$FunctionCallbackInfo@VValue@v8@@@Nan@@@Z 0000000180078e58     turtlecoin-crypto-node.obj
 0002:0001ee65       $stateUnwindMap$?checkKey@@YAXAEBV?$FunctionCallbackInfo@VValue@v8@@@Nan@@@Z 0000000180078e65     turtlecoin-crypto-node.obj
 0002:0001ee6e       $tryMap$?checkKey@@YAXAEBV?$FunctionCallbackInfo@VValue@v8@@@Nan@@@Z 0000000180078e6e     turtlecoin-crypto-node.obj
 0002:0001ee76       $handlerMap$?checkKey@@YAXAEBV?$FunctionCallbackInfo@VValue@v8@@@Nan@@@Z 0000000180078e76     turtlecoin-crypto-node.obj
 0002:0001ee82       $ip2state$?checkKey@@YAXAEBV?$FunctionCallbackInfo@VValue@v8@@@Nan@@@Z 0000000180078e82     turtlecoin-crypto-node.obj
 0002:0001ee90       $unwind$?catch$10@?0??checkRingSignature@@YAXAEBV?$FunctionCallbackInfo@VValue@v8@@@Nan@@@Z@4HA 0000000180078e90     turtlecoin-crypto-node.obj
 0002:0001ee90       $unwind$?catch$3@?0??checkKey@@YAXAEBV?$FunctionCallbackInfo@VValue@v8@@@Nan@@@Z@4HA 0000000180078e90     turtlecoin-crypto-node.obj
 0002:0001ee90       $unwind$?catch$9@?0??checkSignature@@YAXAEBV?$FunctionCallbackInfo@VValue@v8@@@Nan@@@Z@4HA 0000000180078e90     turtlecoin-crypto-node.obj
 0002:0001ee98       $unwind$?checkRingSignature@@YAXAEBV?$FunctionCallbackInfo@VValue@v8@@@Nan@@@Z 0000000180078e98     turtlecoin-crypto-node.obj
 0002:0001eebc       $cppxdata$?checkRingSignature@@YAXAEBV?$FunctionCallbackInfo@VValue@v8@@@Nan@@@Z 0000000180078ebc     turtlecoin-crypto-node.obj
 0002:0001eec9       $stateUnwindMap$?checkRingSignature@@YAXAEBV?$FunctionCallbackInfo@VValue@v8@@@Nan@@@Z 0000000180078ec9     turtlecoin-crypto-node.obj
 0002:0001eef8       $tryMap$?checkRingSignature@@YAXAEBV?$FunctionCallbackInfo@VValue@v8@@@Nan@@@Z 0000000180078ef8     turtlecoin-crypto-node.obj
 0002:0001ef00       $handlerMap$?checkRingSignature@@YAXAEBV?$FunctionCallbackInfo@VValue@v8@@@Nan@@@Z 0000000180078f00     turtlecoin-crypto-node.obj
 0002:0001ef0d       $ip2state$?checkRingSignature@@YAXAEBV?$FunctionCallbackInfo@VValue@v8@@@Nan@@@Z 0000000180078f0d     turtlecoin-crypto-node.obj
 0002:0001ef28       $unwind$?checkSignature@@YAXAEBV?$FunctionCallbackInfo@VValue@v8@@@Nan@@@Z 0000000180078f28     turtlecoin-crypto-node.obj
 0002:0001ef48       $cppxdata$?checkSignature@@YAXAEBV?$FunctionCallbackInfo@VValue@v8@@@Nan@@@Z 0000000180078f48     turtlecoin-crypto-node.obj
 0002:0001ef55       $stateUnwindMap$?checkSignature@@YAXAEBV?$FunctionCallbackInfo@VValue@v8@@@Nan@@@Z 0000000180078f55     turtlecoin-crypto-node.obj
 0002:0001ef79       $tryMap$?checkSignature@@YAXAEBV?$FunctionCallbackInfo@VValue@v8@@@Nan@@@Z 0000000180078f79     turtlecoin-crypto-node.obj
 0002:0001ef81       $handlerMap$?checkSignature@@YAXAEBV?$FunctionCallbackInfo@VValue@v8@@@Nan@@@Z 0000000180078f81     turtlecoin-crypto-node.obj
 0002:0001ef8e       $ip2state$?checkSignature@@YAXAEBV?$FunctionCallbackInfo@VValue@v8@@@Nan@@@Z 0000000180078f8e     turtlecoin-crypto-node.obj
 0002:0001efa4       $unwind$?derivePublicKey@@YAXAEBV?$FunctionCallbackInfo@VValue@v8@@@Nan@@@Z 0000000180078fa4     turtlecoin-crypto-node.obj
 0002:0001efc8       $cppxdata$?derivePublicKey@@YAXAEBV?$FunctionCallbackInfo@VValue@v8@@@Nan@@@Z 0000000180078fc8     turtlecoin-crypto-node.obj
 0002:0001efd5       $stateUnwindMap$?derivePublicKey@@YAXAEBV?$FunctionCallbackInfo@VValue@v8@@@Nan@@@Z 0000000180078fd5     turtlecoin-crypto-node.obj
 0002:0001efd5       $stateUnwindMap$?generateKeyDerivation@@YAXAEBV?$FunctionCallbackInfo@VValue@v8@@@Nan@@@Z 0000000180078fd5     turtlecoin-crypto-node.obj
 0002:0001efd5       $stateUnwindMap$?underivePublicKey@@YAXAEBV?$FunctionCallbackInfo@VValue@v8@@@Nan@@@Z 0000000180078fd5     turtlecoin-crypto-node.obj
 0002:0001eff9       $tryMap$?derivePublicKey@@YAXAEBV?$FunctionCallbackInfo@VValue@v8@@@Nan@@@Z 0000000180078ff9     turtlecoin-crypto-node.obj
 0002:0001f001       $handlerMap$?derivePublicKey@@YAXAEBV?$FunctionCallbackInfo@VValue@v8@@@Nan@@@Z 0000000180079001     turtlecoin-crypto-node.obj
 0002:0001f00e       $ip2state$?derivePublicKey@@YAXAEBV?$FunctionCallbackInfo@VValue@v8@@@Nan@@@Z 000000018007900e     turtlecoin-crypto-node.obj
 0002:0001f028       $unwind$?deriveSecretKey@@YAXAEBV?$FunctionCallbackInfo@VValue@v8@@@Nan@@@Z 0000000180079028     turtlecoin-crypto-node.obj
 0002:0001f04c       $cppxdata$?deriveSecretKey@@YAXAEBV?$FunctionCallbackInfo@VValue@v8@@@Nan@@@Z 000000018007904c     turtlecoin-crypto-node.obj
 0002:0001f059       $stateUnwindMap$?deriveSecretKey@@YAXAEBV?$FunctionCallbackInfo@VValue@v8@@@Nan@@@Z 0000000180079059     turtlecoin-crypto-node.obj
 0002:0001f059       $stateUnwindMap$?generateKeyImage@@YAXAEBV?$FunctionCallbackInfo@VValue@v8@@@Nan@@@Z 0000000180079059     turtlecoin-crypto-node.obj
 0002:0001f07d       $tryMap$?deriveSecretKey@@YAXAEBV?$FunctionCallbackInfo@VValue@v8@@@Nan@@@Z 000000018007907d     turtlecoin-crypto-node.obj
 0002:0001f085       $handlerMap$?deriveSecretKey@@YAXAEBV?$FunctionCallbackInfo@VValue@v8@@@Nan@@@Z 0000000180079085     turtlecoin-crypto-node.obj
 0002:0001f092       $ip2state$?deriveSecretKey@@YAXAEBV?$FunctionCallbackInfo@VValue@v8@@@Nan@@@Z 0000000180079092     turtlecoin-crypto-node.obj
 0002:0001f0ac       $unwind$?generateKeys@@YAXAEBV?$FunctionCallbackInfo@VValue@v8@@@Nan@@@Z 00000001800790ac     turtlecoin-crypto-node.obj
 0002:0001f0d4       $cppxdata$?generateKeys@@YAXAEBV?$FunctionCallbackInfo@VValue@v8@@@Nan@@@Z 00000001800790d4     turtlecoin-crypto-node.obj
 0002:0001f0e1       $stateUnwindMap$?generateKeys@@YAXAEBV?$FunctionCallbackInfo@VValue@v8@@@Nan@@@Z 00000001800790e1     turtlecoin-crypto-node.obj
 0002:0001f0fd       $tryMap$?generateKeys@@YAXAEBV?$FunctionCallbackInfo@VValue@v8@@@Nan@@@Z 00000001800790fd     turtlecoin-crypto-node.obj
 0002:0001f105       $handlerMap$?generateKeys@@YAXAEBV?$FunctionCallbackInfo@VValue@v8@@@Nan@@@Z 0000000180079105     turtlecoin-crypto-node.obj
 0002:0001f112       $ip2state$?generateKeys@@YAXAEBV?$FunctionCallbackInfo@VValue@v8@@@Nan@@@Z 0000000180079112     turtlecoin-crypto-node.obj
 0002:0001f130       $unwind$?generateKeyDerivation@@YAXAEBV?$FunctionCallbackInfo@VValue@v8@@@Nan@@@Z 0000000180079130     turtlecoin-crypto-node.obj
 0002:0001f154       $cppxdata$?generateKeyDerivation@@YAXAEBV?$FunctionCallbackInfo@VValue@v8@@@Nan@@@Z 0000000180079154     turtlecoin-crypto-node.obj
 0002:0001f161       $tryMap$?generateKeyDerivation@@YAXAEBV?$FunctionCallbackInfo@VValue@v8@@@Nan@@@Z 0000000180079161     turtlecoin-crypto-node.obj
 0002:0001f169       $handlerMap$?generateKeyDerivation@@YAXAEBV?$FunctionCallbackInfo@VValue@v8@@@Nan@@@Z 0000000180079169     turtlecoin-crypto-node.obj
 0002:0001f176       $ip2state$?generateKeyDerivation@@YAXAEBV?$FunctionCallbackInfo@VValue@v8@@@Nan@@@Z 0000000180079176     turtlecoin-crypto-node.obj
 0002:0001f190       $unwind$?generateKeyImage@@YAXAEBV?$FunctionCallbackInfo@VValue@v8@@@Nan@@@Z 0000000180079190     turtlecoin-crypto-node.obj
 0002:0001f1b0       $cppxdata$?generateKeyImage@@YAXAEBV?$FunctionCallbackInfo@VValue@v8@@@Nan@@@Z 00000001800791b0     turtlecoin-crypto-node.obj
 0002:0001f1bd       $tryMap$?generateKeyImage@@YAXAEBV?$FunctionCallbackInfo@VValue@v8@@@Nan@@@Z 00000001800791bd     turtlecoin-crypto-node.obj
 0002:0001f1c5       $handlerMap$?generateKeyImage@@YAXAEBV?$FunctionCallbackInfo@VValue@v8@@@Nan@@@Z 00000001800791c5     turtlecoin-crypto-node.obj
 0002:0001f1d2       $ip2state$?generateKeyImage@@YAXAEBV?$FunctionCallbackInfo@VValue@v8@@@Nan@@@Z 00000001800791d2     turtlecoin-crypto-node.obj
 0002:0001f1ec       $unwind$?chukwa_slow_hash@@YAXAEBV?$FunctionCallbackInfo@VValue@v8@@@Nan@@@Z 00000001800791ec     turtlecoin-crypto-node.obj
 0002:0001f1ec       $unwind$?cn_dark_lite_slow_hash_v0@@YAXAEBV?$FunctionCallbackInfo@VValue@v8@@@Nan@@@Z 00000001800791ec     turtlecoin-crypto-node.obj
 0002:0001f1ec       $unwind$?cn_dark_lite_slow_hash_v1@@YAXAEBV?$FunctionCallbackInfo@VValue@v8@@@Nan@@@Z 00000001800791ec     turtlecoin-crypto-node.obj
 0002:0001f1ec       $unwind$?cn_dark_lite_slow_hash_v2@@YAXAEBV?$FunctionCallbackInfo@VValue@v8@@@Nan@@@Z 00000001800791ec     turtlecoin-crypto-node.obj
 0002:0001f1ec       $unwind$?cn_dark_slow_hash_v0@@YAXAEBV?$FunctionCallbackInfo@VValue@v8@@@Nan@@@Z 00000001800791ec     turtlecoin-crypto-node.obj
 0002:0001f1ec       $unwind$?cn_dark_slow_hash_v1@@YAXAEBV?$FunctionCallbackInfo@VValue@v8@@@Nan@@@Z 00000001800791ec     turtlecoin-crypto-node.obj
 0002:0001f1ec       $unwind$?cn_dark_slow_hash_v2@@YAXAEBV?$FunctionCallbackInfo@VValue@v8@@@Nan@@@Z 00000001800791ec     turtlecoin-crypto-node.obj
 0002:0001f1ec       $unwind$?cn_fast_hash@@YAXAEBV?$FunctionCallbackInfo@VValue@v8@@@Nan@@@Z 00000001800791ec     turtlecoin-crypto-node.obj
 0002:0001f1ec       $unwind$?cn_lite_slow_hash_v0@@YAXAEBV?$FunctionCallbackInfo@VValue@v8@@@Nan@@@Z 00000001800791ec     turtlecoin-crypto-node.obj
 0002:0001f1ec       $unwind$?cn_lite_slow_hash_v1@@YAXAEBV?$FunctionCallbackInfo@VValue@v8@@@Nan@@@Z 00000001800791ec     turtlecoin-crypto-node.obj
 0002:0001f1ec       $unwind$?cn_lite_slow_hash_v2@@YAXAEBV?$FunctionCallbackInfo@VValue@v8@@@Nan@@@Z 00000001800791ec     turtlecoin-crypto-node.obj
 0002:0001f1ec       $unwind$?cn_slow_hash_v0@@YAXAEBV?$FunctionCallbackInfo@VValue@v8@@@Nan@@@Z 00000001800791ec     turtlecoin-crypto-node.obj
 0002:0001f1ec       $unwind$?cn_slow_hash_v1@@YAXAEBV?$FunctionCallbackInfo@VValue@v8@@@Nan@@@Z 00000001800791ec     turtlecoin-crypto-node.obj
 0002:0001f1ec       $unwind$?cn_slow_hash_v2@@YAXAEBV?$FunctionCallbackInfo@VValue@v8@@@Nan@@@Z 00000001800791ec     turtlecoin-crypto-node.obj
 0002:0001f1ec       $unwind$?cn_turtle_lite_slow_hash_v0@@YAXAEBV?$FunctionCallbackInfo@VValue@v8@@@Nan@@@Z 00000001800791ec     turtlecoin-crypto-node.obj
 0002:0001f1ec       $unwind$?cn_turtle_lite_slow_hash_v1@@YAXAEBV?$FunctionCallbackInfo@VValue@v8@@@Nan@@@Z 00000001800791ec     turtlecoin-crypto-node.obj
 0002:0001f1ec       $unwind$?cn_turtle_lite_slow_hash_v2@@YAXAEBV?$FunctionCallbackInfo@VValue@v8@@@Nan@@@Z 00000001800791ec     turtlecoin-crypto-node.obj
 0002:0001f1ec       $unwind$?cn_turtle_slow_hash_v0@@YAXAEBV?$FunctionCallbackInfo@VValue@v8@@@Nan@@@Z 00000001800791ec     turtlecoin-crypto-node.obj
 0002:0001f1ec       $unwind$?cn_turtle_slow_hash_v1@@YAXAEBV?$FunctionCallbackInfo@VValue@v8@@@Nan@@@Z 00000001800791ec     turtlecoin-crypto-node.obj
 0002:0001f1ec       $unwind$?cn_turtle_slow_hash_v2@@YAXAEBV?$FunctionCallbackInfo@VValue@v8@@@Nan@@@Z 00000001800791ec     turtlecoin-crypto-node.obj
 0002:0001f1ec       $unwind$?generatePrivateViewKeyFromPrivateSpendKey@@YAXAEBV?$FunctionCallbackInfo@VValue@v8@@@Nan@@@Z 00000001800791ec     turtlecoin-crypto-node.obj
 0002:0001f1ec       $unwind$?hashToEllipticCurve@@YAXAEBV?$FunctionCallbackInfo@VValue@v8@@@Nan@@@Z 00000001800791ec     turtlecoin-crypto-node.obj
 0002:0001f1ec       $unwind$?hashToScalar@@YAXAEBV?$FunctionCallbackInfo@VValue@v8@@@Nan@@@Z 00000001800791ec     turtlecoin-crypto-node.obj
 0002:0001f1ec       $unwind$?scReduce32@@YAXAEBV?$FunctionCallbackInfo@VValue@v8@@@Nan@@@Z 00000001800791ec     turtlecoin-crypto-node.obj
 0002:0001f20c       $cppxdata$?chukwa_slow_hash@@YAXAEBV?$FunctionCallbackInfo@VValue@v8@@@Nan@@@Z 000000018007920c     turtlecoin-crypto-node.obj
 0002:0001f20c       $cppxdata$?cn_dark_lite_slow_hash_v0@@YAXAEBV?$FunctionCallbackInfo@VValue@v8@@@Nan@@@Z 000000018007920c     turtlecoin-crypto-node.obj
 0002:0001f20c       $cppxdata$?cn_dark_lite_slow_hash_v1@@YAXAEBV?$FunctionCallbackInfo@VValue@v8@@@Nan@@@Z 000000018007920c     turtlecoin-crypto-node.obj
 0002:0001f20c       $cppxdata$?cn_dark_lite_slow_hash_v2@@YAXAEBV?$FunctionCallbackInfo@VValue@v8@@@Nan@@@Z 000000018007920c     turtlecoin-crypto-node.obj
 0002:0001f20c       $cppxdata$?cn_dark_slow_hash_v0@@YAXAEBV?$FunctionCallbackInfo@VValue@v8@@@Nan@@@Z 000000018007920c     turtlecoin-crypto-node.obj
 0002:0001f20c       $cppxdata$?cn_dark_slow_hash_v1@@YAXAEBV?$FunctionCallbackInfo@VValue@v8@@@Nan@@@Z 000000018007920c     turtlecoin-crypto-node.obj
 0002:0001f20c       $cppxdata$?cn_dark_slow_hash_v2@@YAXAEBV?$FunctionCallbackInfo@VValue@v8@@@Nan@@@Z 000000018007920c     turtlecoin-crypto-node.obj
 0002:0001f20c       $cppxdata$?cn_fast_hash@@YAXAEBV?$FunctionCallbackInfo@VValue@v8@@@Nan@@@Z 000000018007920c     turtlecoin-crypto-node.obj
 0002:0001f20c       $cppxdata$?cn_lite_slow_hash_v0@@YAXAEBV?$FunctionCallbackInfo@VValue@v8@@@Nan@@@Z 000000018007920c     turtlecoin-crypto-node.obj
 0002:0001f20c       $cppxdata$?cn_lite_slow_hash_v1@@YAXAEBV?$FunctionCallbackInfo@VValue@v8@@@Nan@@@Z 000000018007920c     turtlecoin-crypto-node.obj
 0002:0001f20c       $cppxdata$?cn_lite_slow_hash_v2@@YAXAEBV?$FunctionCallbackInfo@VValue@v8@@@Nan@@@Z 000000018007920c     turtlecoin-crypto-node.obj
 0002:0001f20c       $cppxdata$?cn_slow_hash_v0@@YAXAEBV?$FunctionCallbackInfo@VValue@v8@@@Nan@@@Z 000000018007920c     turtlecoin-crypto-node.obj
 0002:0001f20c       $cppxdata$?cn_slow_hash_v1@@YAXAEBV?$FunctionCallbackInfo@VValue@v8@@@Nan@@@Z 000000018007920c     turtlecoin-crypto-node.obj
 0002:0001f20c       $cppxdata$?cn_slow_hash_v2@@YAXAEBV?$FunctionCallbackInfo@VValue@v8@@@Nan@@@Z 000000018007920c     turtlecoin-crypto-node.obj
 0002:0001f20c       $cppxdata$?cn_turtle_lite_slow_hash_v0@@YAXAEBV?$FunctionCallbackInfo@VValue@v8@@@Nan@@@Z 000000018007920c     turtlecoin-crypto-node.obj
 0002:0001f20c       $cppxdata$?cn_turtle_lite_slow_hash_v1@@YAXAEBV?$FunctionCallbackInfo@VValue@v8@@@Nan@@@Z 000000018007920c     turtlecoin-crypto-node.obj
 0002:0001f20c       $cppxdata$?cn_turtle_lite_slow_hash_v2@@YAXAEBV?$FunctionCallbackInfo@VValue@v8@@@Nan@@@Z 000000018007920c     turtlecoin-crypto-node.obj
 0002:0001f20c       $cppxdata$?cn_turtle_slow_hash_v0@@YAXAEBV?$FunctionCallbackInfo@VValue@v8@@@Nan@@@Z 000000018007920c     turtlecoin-crypto-node.obj
 0002:0001f20c       $cppxdata$?cn_turtle_slow_hash_v1@@YAXAEBV?$FunctionCallbackInfo@VValue@v8@@@Nan@@@Z 000000018007920c     turtlecoin-crypto-node.obj
 0002:0001f20c       $cppxdata$?cn_turtle_slow_hash_v2@@YAXAEBV?$FunctionCallbackInfo@VValue@v8@@@Nan@@@Z 000000018007920c     turtlecoin-crypto-node.obj
 0002:0001f20c       $cppxdata$?generatePrivateViewKeyFromPrivateSpendKey@@YAXAEBV?$FunctionCallbackInfo@VValue@v8@@@Nan@@@Z 000000018007920c     turtlecoin-crypto-node.obj
 0002:0001f20c       $cppxdata$?hashToEllipticCurve@@YAXAEBV?$FunctionCallbackInfo@VValue@v8@@@Nan@@@Z 000000018007920c     turtlecoin-crypto-node.obj
 0002:0001f20c       $cppxdata$?hashToScalar@@YAXAEBV?$FunctionCallbackInfo@VValue@v8@@@Nan@@@Z 000000018007920c     turtlecoin-crypto-node.obj
 0002:0001f20c       $cppxdata$?scReduce32@@YAXAEBV?$FunctionCallbackInfo@VValue@v8@@@Nan@@@Z 000000018007920c     turtlecoin-crypto-node.obj
 0002:0001f219       $stateUnwindMap$?chukwa_slow_hash@@YAXAEBV?$FunctionCallbackInfo@VValue@v8@@@Nan@@@Z 0000000180079219     turtlecoin-crypto-node.obj
 0002:0001f219       $stateUnwindMap$?cn_dark_lite_slow_hash_v0@@YAXAEBV?$FunctionCallbackInfo@VValue@v8@@@Nan@@@Z 0000000180079219     turtlecoin-crypto-node.obj
 0002:0001f219       $stateUnwindMap$?cn_dark_lite_slow_hash_v1@@YAXAEBV?$FunctionCallbackInfo@VValue@v8@@@Nan@@@Z 0000000180079219     turtlecoin-crypto-node.obj
 0002:0001f219       $stateUnwindMap$?cn_dark_lite_slow_hash_v2@@YAXAEBV?$FunctionCallbackInfo@VValue@v8@@@Nan@@@Z 0000000180079219     turtlecoin-crypto-node.obj
 0002:0001f219       $stateUnwindMap$?cn_dark_slow_hash_v0@@YAXAEBV?$FunctionCallbackInfo@VValue@v8@@@Nan@@@Z 0000000180079219     turtlecoin-crypto-node.obj
 0002:0001f219       $stateUnwindMap$?cn_dark_slow_hash_v1@@YAXAEBV?$FunctionCallbackInfo@VValue@v8@@@Nan@@@Z 0000000180079219     turtlecoin-crypto-node.obj
 0002:0001f219       $stateUnwindMap$?cn_dark_slow_hash_v2@@YAXAEBV?$FunctionCallbackInfo@VValue@v8@@@Nan@@@Z 0000000180079219     turtlecoin-crypto-node.obj
 0002:0001f219       $stateUnwindMap$?cn_fast_hash@@YAXAEBV?$FunctionCallbackInfo@VValue@v8@@@Nan@@@Z 0000000180079219     turtlecoin-crypto-node.obj
 0002:0001f219       $stateUnwindMap$?cn_lite_slow_hash_v0@@YAXAEBV?$FunctionCallbackInfo@VValue@v8@@@Nan@@@Z 0000000180079219     turtlecoin-crypto-node.obj
 0002:0001f219       $stateUnwindMap$?cn_lite_slow_hash_v1@@YAXAEBV?$FunctionCallbackInfo@VValue@v8@@@Nan@@@Z 0000000180079219     turtlecoin-crypto-node.obj
 0002:0001f219       $stateUnwindMap$?cn_lite_slow_hash_v2@@YAXAEBV?$FunctionCallbackInfo@VValue@v8@@@Nan@@@Z 0000000180079219     turtlecoin-crypto-node.obj
 0002:0001f219       $stateUnwindMap$?cn_slow_hash_v0@@YAXAEBV?$FunctionCallbackInfo@VValue@v8@@@Nan@@@Z 0000000180079219     turtlecoin-crypto-node.obj
 0002:0001f219       $stateUnwindMap$?cn_slow_hash_v1@@YAXAEBV?$FunctionCallbackInfo@VValue@v8@@@Nan@@@Z 0000000180079219     turtlecoin-crypto-node.obj
 0002:0001f219       $stateUnwindMap$?cn_slow_hash_v2@@YAXAEBV?$FunctionCallbackInfo@VValue@v8@@@Nan@@@Z 0000000180079219     turtlecoin-crypto-node.obj
 0002:0001f219       $stateUnwindMap$?cn_turtle_lite_slow_hash_v0@@YAXAEBV?$FunctionCallbackInfo@VValue@v8@@@Nan@@@Z 0000000180079219     turtlecoin-crypto-node.obj
 0002:0001f219       $stateUnwindMap$?cn_turtle_lite_slow_hash_v1@@YAXAEBV?$FunctionCallbackInfo@VValue@v8@@@Nan@@@Z 0000000180079219     turtlecoin-crypto-node.obj
 0002:0001f219       $stateUnwindMap$?cn_turtle_lite_slow_hash_v2@@YAXAEBV?$FunctionCallbackInfo@VValue@v8@@@Nan@@@Z 0000000180079219     turtlecoin-crypto-node.obj
 0002:0001f219       $stateUnwindMap$?cn_turtle_slow_hash_v0@@YAXAEBV?$FunctionCallbackInfo@VValue@v8@@@Nan@@@Z 0000000180079219     turtlecoin-crypto-node.obj
 0002:0001f219       $stateUnwindMap$?cn_turtle_slow_hash_v1@@YAXAEBV?$FunctionCallbackInfo@VValue@v8@@@Nan@@@Z 0000000180079219     turtlecoin-crypto-node.obj
 0002:0001f219       $stateUnwindMap$?cn_turtle_slow_hash_v2@@YAXAEBV?$FunctionCallbackInfo@VValue@v8@@@Nan@@@Z 0000000180079219     turtlecoin-crypto-node.obj
 0002:0001f219       $stateUnwindMap$?generatePrivateViewKeyFromPrivateSpendKey@@YAXAEBV?$FunctionCallbackInfo@VValue@v8@@@Nan@@@Z 0000000180079219     turtlecoin-crypto-node.obj
 0002:0001f219       $stateUnwindMap$?hashToEllipticCurve@@YAXAEBV?$FunctionCallbackInfo@VValue@v8@@@Nan@@@Z 0000000180079219     turtlecoin-crypto-node.obj
 0002:0001f219       $stateUnwindMap$?hashToScalar@@YAXAEBV?$FunctionCallbackInfo@VValue@v8@@@Nan@@@Z 0000000180079219     turtlecoin-crypto-node.obj
 0002:0001f219       $stateUnwindMap$?scReduce32@@YAXAEBV?$FunctionCallbackInfo@VValue@v8@@@Nan@@@Z 0000000180079219     turtlecoin-crypto-node.obj
 0002:0001f230       $tryMap$?chukwa_slow_hash@@YAXAEBV?$FunctionCallbackInfo@VValue@v8@@@Nan@@@Z 0000000180079230     turtlecoin-crypto-node.obj
 0002:0001f230       $tryMap$?cn_dark_lite_slow_hash_v0@@YAXAEBV?$FunctionCallbackInfo@VValue@v8@@@Nan@@@Z 0000000180079230     turtlecoin-crypto-node.obj
 0002:0001f230       $tryMap$?cn_dark_lite_slow_hash_v1@@YAXAEBV?$FunctionCallbackInfo@VValue@v8@@@Nan@@@Z 0000000180079230     turtlecoin-crypto-node.obj
 0002:0001f230       $tryMap$?cn_dark_lite_slow_hash_v2@@YAXAEBV?$FunctionCallbackInfo@VValue@v8@@@Nan@@@Z 0000000180079230     turtlecoin-crypto-node.obj
 0002:0001f230       $tryMap$?cn_dark_slow_hash_v0@@YAXAEBV?$FunctionCallbackInfo@VValue@v8@@@Nan@@@Z 0000000180079230     turtlecoin-crypto-node.obj
 0002:0001f230       $tryMap$?cn_dark_slow_hash_v1@@YAXAEBV?$FunctionCallbackInfo@VValue@v8@@@Nan@@@Z 0000000180079230     turtlecoin-crypto-node.obj
 0002:0001f230       $tryMap$?cn_dark_slow_hash_v2@@YAXAEBV?$FunctionCallbackInfo@VValue@v8@@@Nan@@@Z 0000000180079230     turtlecoin-crypto-node.obj
 0002:0001f230       $tryMap$?cn_fast_hash@@YAXAEBV?$FunctionCallbackInfo@VValue@v8@@@Nan@@@Z 0000000180079230     turtlecoin-crypto-node.obj
 0002:0001f230       $tryMap$?cn_lite_slow_hash_v0@@YAXAEBV?$FunctionCallbackInfo@VValue@v8@@@Nan@@@Z 0000000180079230     turtlecoin-crypto-node.obj
 0002:0001f230       $tryMap$?cn_lite_slow_hash_v1@@YAXAEBV?$FunctionCallbackInfo@VValue@v8@@@Nan@@@Z 0000000180079230     turtlecoin-crypto-node.obj
 0002:0001f230       $tryMap$?cn_lite_slow_hash_v2@@YAXAEBV?$FunctionCallbackInfo@VValue@v8@@@Nan@@@Z 0000000180079230     turtlecoin-crypto-node.obj
 0002:0001f230       $tryMap$?cn_slow_hash_v0@@YAXAEBV?$FunctionCallbackInfo@VValue@v8@@@Nan@@@Z 0000000180079230     turtlecoin-crypto-node.obj
 0002:0001f230       $tryMap$?cn_slow_hash_v1@@YAXAEBV?$FunctionCallbackInfo@VValue@v8@@@Nan@@@Z 0000000180079230     turtlecoin-crypto-node.obj
 0002:0001f230       $tryMap$?cn_slow_hash_v2@@YAXAEBV?$FunctionCallbackInfo@VValue@v8@@@Nan@@@Z 0000000180079230     turtlecoin-crypto-node.obj
 0002:0001f230       $tryMap$?cn_turtle_lite_slow_hash_v0@@YAXAEBV?$FunctionCallbackInfo@VValue@v8@@@Nan@@@Z 0000000180079230     turtlecoin-crypto-node.obj
 0002:0001f230       $tryMap$?cn_turtle_lite_slow_hash_v1@@YAXAEBV?$FunctionCallbackInfo@VValue@v8@@@Nan@@@Z 0000000180079230     turtlecoin-crypto-node.obj
 0002:0001f230       $tryMap$?cn_turtle_lite_slow_hash_v2@@YAXAEBV?$FunctionCallbackInfo@VValue@v8@@@Nan@@@Z 0000000180079230     turtlecoin-crypto-node.obj
 0002:0001f230       $tryMap$?cn_turtle_slow_hash_v0@@YAXAEBV?$FunctionCallbackInfo@VValue@v8@@@Nan@@@Z 0000000180079230     turtlecoin-crypto-node.obj
 0002:0001f230       $tryMap$?cn_turtle_slow_hash_v1@@YAXAEBV?$FunctionCallbackInfo@VValue@v8@@@Nan@@@Z 0000000180079230     turtlecoin-crypto-node.obj
 0002:0001f230       $tryMap$?cn_turtle_slow_hash_v2@@YAXAEBV?$FunctionCallbackInfo@VValue@v8@@@Nan@@@Z 0000000180079230     turtlecoin-crypto-node.obj
 0002:0001f230       $tryMap$?generatePrivateViewKeyFromPrivateSpendKey@@YAXAEBV?$FunctionCallbackInfo@VValue@v8@@@Nan@@@Z 0000000180079230     turtlecoin-crypto-node.obj
 0002:0001f230       $tryMap$?hashToEllipticCurve@@YAXAEBV?$FunctionCallbackInfo@VValue@v8@@@Nan@@@Z 0000000180079230     turtlecoin-crypto-node.obj
 0002:0001f230       $tryMap$?hashToScalar@@YAXAEBV?$FunctionCallbackInfo@VValue@v8@@@Nan@@@Z 0000000180079230     turtlecoin-crypto-node.obj
 0002:0001f230       $tryMap$?scReduce32@@YAXAEBV?$FunctionCallbackInfo@VValue@v8@@@Nan@@@Z 0000000180079230     turtlecoin-crypto-node.obj
 0002:0001f238       $handlerMap$?chukwa_slow_hash@@YAXAEBV?$FunctionCallbackInfo@VValue@v8@@@Nan@@@Z 0000000180079238     turtlecoin-crypto-node.obj
 0002:0001f238       $handlerMap$?cn_dark_lite_slow_hash_v0@@YAXAEBV?$FunctionCallbackInfo@VValue@v8@@@Nan@@@Z 0000000180079238     turtlecoin-crypto-node.obj
 0002:0001f238       $handlerMap$?cn_dark_lite_slow_hash_v1@@YAXAEBV?$FunctionCallbackInfo@VValue@v8@@@Nan@@@Z 0000000180079238     turtlecoin-crypto-node.obj
 0002:0001f238       $handlerMap$?cn_dark_lite_slow_hash_v2@@YAXAEBV?$FunctionCallbackInfo@VValue@v8@@@Nan@@@Z 0000000180079238     turtlecoin-crypto-node.obj
 0002:0001f238       $handlerMap$?cn_dark_slow_hash_v0@@YAXAEBV?$FunctionCallbackInfo@VValue@v8@@@Nan@@@Z 0000000180079238     turtlecoin-crypto-node.obj
 0002:0001f238       $handlerMap$?cn_dark_slow_hash_v1@@YAXAEBV?$FunctionCallbackInfo@VValue@v8@@@Nan@@@Z 0000000180079238     turtlecoin-crypto-node.obj
 0002:0001f238       $handlerMap$?cn_dark_slow_hash_v2@@YAXAEBV?$FunctionCallbackInfo@VValue@v8@@@Nan@@@Z 0000000180079238     turtlecoin-crypto-node.obj
 0002:0001f238       $handlerMap$?cn_fast_hash@@YAXAEBV?$FunctionCallbackInfo@VValue@v8@@@Nan@@@Z 0000000180079238     turtlecoin-crypto-node.obj
 0002:0001f238       $handlerMap$?cn_lite_slow_hash_v0@@YAXAEBV?$FunctionCallbackInfo@VValue@v8@@@Nan@@@Z 0000000180079238     turtlecoin-crypto-node.obj
 0002:0001f238       $handlerMap$?cn_lite_slow_hash_v1@@YAXAEBV?$FunctionCallbackInfo@VValue@v8@@@Nan@@@Z 0000000180079238     turtlecoin-crypto-node.obj
 0002:0001f238       $handlerMap$?cn_lite_slow_hash_v2@@YAXAEBV?$FunctionCallbackInfo@VValue@v8@@@Nan@@@Z 0000000180079238     turtlecoin-crypto-node.obj
 0002:0001f238       $handlerMap$?cn_slow_hash_v0@@YAXAEBV?$FunctionCallbackInfo@VValue@v8@@@Nan@@@Z 0000000180079238     turtlecoin-crypto-node.obj
 0002:0001f238       $handlerMap$?cn_slow_hash_v1@@YAXAEBV?$FunctionCallbackInfo@VValue@v8@@@Nan@@@Z 0000000180079238     turtlecoin-crypto-node.obj
 0002:0001f238       $handlerMap$?cn_slow_hash_v2@@YAXAEBV?$FunctionCallbackInfo@VValue@v8@@@Nan@@@Z 0000000180079238     turtlecoin-crypto-node.obj
 0002:0001f238       $handlerMap$?cn_turtle_lite_slow_hash_v0@@YAXAEBV?$FunctionCallbackInfo@VValue@v8@@@Nan@@@Z 0000000180079238     turtlecoin-crypto-node.obj
 0002:0001f238       $handlerMap$?cn_turtle_lite_slow_hash_v1@@YAXAEBV?$FunctionCallbackInfo@VValue@v8@@@Nan@@@Z 0000000180079238     turtlecoin-crypto-node.obj
 0002:0001f238       $handlerMap$?cn_turtle_lite_slow_hash_v2@@YAXAEBV?$FunctionCallbackInfo@VValue@v8@@@Nan@@@Z 0000000180079238     turtlecoin-crypto-node.obj
 0002:0001f238       $handlerMap$?cn_turtle_slow_hash_v0@@YAXAEBV?$FunctionCallbackInfo@VValue@v8@@@Nan@@@Z 0000000180079238     turtlecoin-crypto-node.obj
 0002:0001f238       $handlerMap$?cn_turtle_slow_hash_v1@@YAXAEBV?$FunctionCallbackInfo@VValue@v8@@@Nan@@@Z 0000000180079238     turtlecoin-crypto-node.obj
 0002:0001f238       $handlerMap$?cn_turtle_slow_hash_v2@@YAXAEBV?$FunctionCallbackInfo@VValue@v8@@@Nan@@@Z 0000000180079238     turtlecoin-crypto-node.obj
 0002:0001f238       $handlerMap$?generatePrivateViewKeyFromPrivateSpendKey@@YAXAEBV?$FunctionCallbackInfo@VValue@v8@@@Nan@@@Z 0000000180079238     turtlecoin-crypto-node.obj
 0002:0001f238       $handlerMap$?hashToEllipticCurve@@YAXAEBV?$FunctionCallbackInfo@VValue@v8@@@Nan@@@Z 0000000180079238     turtlecoin-crypto-node.obj
 0002:0001f238       $handlerMap$?hashToScalar@@YAXAEBV?$FunctionCallbackInfo@VValue@v8@@@Nan@@@Z 0000000180079238     turtlecoin-crypto-node.obj
 0002:0001f238       $handlerMap$?scReduce32@@YAXAEBV?$FunctionCallbackInfo@VValue@v8@@@Nan@@@Z 0000000180079238     turtlecoin-crypto-node.obj
 0002:0001f245       $ip2state$?chukwa_slow_hash@@YAXAEBV?$FunctionCallbackInfo@VValue@v8@@@Nan@@@Z 0000000180079245     turtlecoin-crypto-node.obj
 0002:0001f245       $ip2state$?cn_dark_lite_slow_hash_v0@@YAXAEBV?$FunctionCallbackInfo@VValue@v8@@@Nan@@@Z 0000000180079245     turtlecoin-crypto-node.obj
 0002:0001f245       $ip2state$?cn_dark_lite_slow_hash_v1@@YAXAEBV?$FunctionCallbackInfo@VValue@v8@@@Nan@@@Z 0000000180079245     turtlecoin-crypto-node.obj
 0002:0001f245       $ip2state$?cn_dark_lite_slow_hash_v2@@YAXAEBV?$FunctionCallbackInfo@VValue@v8@@@Nan@@@Z 0000000180079245     turtlecoin-crypto-node.obj
 0002:0001f245       $ip2state$?cn_dark_slow_hash_v0@@YAXAEBV?$FunctionCallbackInfo@VValue@v8@@@Nan@@@Z 0000000180079245     turtlecoin-crypto-node.obj
 0002:0001f245       $ip2state$?cn_dark_slow_hash_v1@@YAXAEBV?$FunctionCallbackInfo@VValue@v8@@@Nan@@@Z 0000000180079245     turtlecoin-crypto-node.obj
 0002:0001f245       $ip2state$?cn_dark_slow_hash_v2@@YAXAEBV?$FunctionCallbackInfo@VValue@v8@@@Nan@@@Z 0000000180079245     turtlecoin-crypto-node.obj
 0002:0001f245       $ip2state$?cn_fast_hash@@YAXAEBV?$FunctionCallbackInfo@VValue@v8@@@Nan@@@Z 0000000180079245     turtlecoin-crypto-node.obj
 0002:0001f245       $ip2state$?cn_lite_slow_hash_v0@@YAXAEBV?$FunctionCallbackInfo@VValue@v8@@@Nan@@@Z 0000000180079245     turtlecoin-crypto-node.obj
 0002:0001f245       $ip2state$?cn_lite_slow_hash_v1@@YAXAEBV?$FunctionCallbackInfo@VValue@v8@@@Nan@@@Z 0000000180079245     turtlecoin-crypto-node.obj
 0002:0001f245       $ip2state$?cn_lite_slow_hash_v2@@YAXAEBV?$FunctionCallbackInfo@VValue@v8@@@Nan@@@Z 0000000180079245     turtlecoin-crypto-node.obj
 0002:0001f245       $ip2state$?cn_slow_hash_v0@@YAXAEBV?$FunctionCallbackInfo@VValue@v8@@@Nan@@@Z 0000000180079245     turtlecoin-crypto-node.obj
 0002:0001f245       $ip2state$?cn_slow_hash_v1@@YAXAEBV?$FunctionCallbackInfo@VValue@v8@@@Nan@@@Z 0000000180079245     turtlecoin-crypto-node.obj
 0002:0001f245       $ip2state$?cn_slow_hash_v2@@YAXAEBV?$FunctionCallbackInfo@VValue@v8@@@Nan@@@Z 0000000180079245     turtlecoin-crypto-node.obj
 0002:0001f245       $ip2state$?cn_turtle_lite_slow_hash_v0@@YAXAEBV?$FunctionCallbackInfo@VValue@v8@@@Nan@@@Z 0000000180079245     turtlecoin-crypto-node.obj
 0002:0001f245       $ip2state$?cn_turtle_lite_slow_hash_v1@@YAXAEBV?$FunctionCallbackInfo@VValue@v8@@@Nan@@@Z 0000000180079245     turtlecoin-crypto-node.obj
 0002:0001f245       $ip2state$?cn_turtle_lite_slow_hash_v2@@YAXAEBV?$FunctionCallbackInfo@VValue@v8@@@Nan@@@Z 0000000180079245     turtlecoin-crypto-node.obj
 0002:0001f245       $ip2state$?cn_turtle_slow_hash_v0@@YAXAEBV?$FunctionCallbackInfo@VValue@v8@@@Nan@@@Z 0000000180079245     turtlecoin-crypto-node.obj
 0002:0001f245       $ip2state$?cn_turtle_slow_hash_v1@@YAXAEBV?$FunctionCallbackInfo@VValue@v8@@@Nan@@@Z 0000000180079245     turtlecoin-crypto-node.obj
 0002:0001f245       $ip2state$?cn_turtle_slow_hash_v2@@YAXAEBV?$FunctionCallbackInfo@VValue@v8@@@Nan@@@Z 0000000180079245     turtlecoin-crypto-node.obj
 0002:0001f245       $ip2state$?generatePrivateViewKeyFromPrivateSpendKey@@YAXAEBV?$FunctionCallbackInfo@VValue@v8@@@Nan@@@Z 0000000180079245     turtlecoin-crypto-node.obj
 0002:0001f245       $ip2state$?hashToEllipticCurve@@YAXAEBV?$FunctionCallbackInfo@VValue@v8@@@Nan@@@Z 0000000180079245     turtlecoin-crypto-node.obj
 0002:0001f245       $ip2state$?hashToScalar@@YAXAEBV?$FunctionCallbackInfo@VValue@v8@@@Nan@@@Z 0000000180079245     turtlecoin-crypto-node.obj
 0002:0001f245       $ip2state$?scReduce32@@YAXAEBV?$FunctionCallbackInfo@VValue@v8@@@Nan@@@Z 0000000180079245     turtlecoin-crypto-node.obj
 0002:0001f258       $unwind$?generateDeterministicSubwalletKeys@@YAXAEBV?$FunctionCallbackInfo@VValue@v8@@@Nan@@@Z 0000000180079258     turtlecoin-crypto-node.obj
 0002:0001f280       $cppxdata$?generateDeterministicSubwalletKeys@@YAXAEBV?$FunctionCallbackInfo@VValue@v8@@@Nan@@@Z 0000000180079280     turtlecoin-crypto-node.obj
 0002:0001f28d       $stateUnwindMap$?generateDeterministicSubwalletKeys@@YAXAEBV?$FunctionCallbackInfo@VValue@v8@@@Nan@@@Z 000000018007928d     turtlecoin-crypto-node.obj
 0002:0001f2b1       $tryMap$?generateDeterministicSubwalletKeys@@YAXAEBV?$FunctionCallbackInfo@VValue@v8@@@Nan@@@Z 00000001800792b1     turtlecoin-crypto-node.obj
 0002:0001f2b9       $handlerMap$?generateDeterministicSubwalletKeys@@YAXAEBV?$FunctionCallbackInfo@VValue@v8@@@Nan@@@Z 00000001800792b9     turtlecoin-crypto-node.obj
 0002:0001f2c6       $ip2state$?generateDeterministicSubwalletKeys@@YAXAEBV?$FunctionCallbackInfo@VValue@v8@@@Nan@@@Z 00000001800792c6     turtlecoin-crypto-node.obj
 0002:0001f2e8       $unwind$?generateViewKeysFromPrivateSpendKey@@YAXAEBV?$FunctionCallbackInfo@VValue@v8@@@Nan@@@Z 00000001800792e8     turtlecoin-crypto-node.obj
 0002:0001f310       $cppxdata$?generateViewKeysFromPrivateSpendKey@@YAXAEBV?$FunctionCallbackInfo@VValue@v8@@@Nan@@@Z 0000000180079310     turtlecoin-crypto-node.obj
 0002:0001f31d       $stateUnwindMap$?generateViewKeysFromPrivateSpendKey@@YAXAEBV?$FunctionCallbackInfo@VValue@v8@@@Nan@@@Z 000000018007931d     turtlecoin-crypto-node.obj
 0002:0001f341       $tryMap$?generateViewKeysFromPrivateSpendKey@@YAXAEBV?$FunctionCallbackInfo@VValue@v8@@@Nan@@@Z 0000000180079341     turtlecoin-crypto-node.obj
 0002:0001f349       $handlerMap$?generateViewKeysFromPrivateSpendKey@@YAXAEBV?$FunctionCallbackInfo@VValue@v8@@@Nan@@@Z 0000000180079349     turtlecoin-crypto-node.obj
 0002:0001f356       $ip2state$?generateViewKeysFromPrivateSpendKey@@YAXAEBV?$FunctionCallbackInfo@VValue@v8@@@Nan@@@Z 0000000180079356     turtlecoin-crypto-node.obj
 0002:0001f374       $unwind$?generateRingSignatures@@YAXAEBV?$FunctionCallbackInfo@VValue@v8@@@Nan@@@Z 0000000180079374     turtlecoin-crypto-node.obj
 0002:0001f39c       $cppxdata$?generateRingSignatures@@YAXAEBV?$FunctionCallbackInfo@VValue@v8@@@Nan@@@Z 000000018007939c     turtlecoin-crypto-node.obj
 0002:0001f3a9       $stateUnwindMap$?generateRingSignatures@@YAXAEBV?$FunctionCallbackInfo@VValue@v8@@@Nan@@@Z 00000001800793a9     turtlecoin-crypto-node.obj
 0002:0001f3e3       $tryMap$?generateRingSignatures@@YAXAEBV?$FunctionCallbackInfo@VValue@v8@@@Nan@@@Z 00000001800793e3     turtlecoin-crypto-node.obj
 0002:0001f3eb       $handlerMap$?generateRingSignatures@@YAXAEBV?$FunctionCallbackInfo@VValue@v8@@@Nan@@@Z 00000001800793eb     turtlecoin-crypto-node.obj
 0002:0001f3f8       $ip2state$?generateRingSignatures@@YAXAEBV?$FunctionCallbackInfo@VValue@v8@@@Nan@@@Z 00000001800793f8     turtlecoin-crypto-node.obj
 0002:0001f418       $unwind$?generateSignature@@YAXAEBV?$FunctionCallbackInfo@VValue@v8@@@Nan@@@Z 0000000180079418     turtlecoin-crypto-node.obj
 0002:0001f43c       $cppxdata$?generateSignature@@YAXAEBV?$FunctionCallbackInfo@VValue@v8@@@Nan@@@Z 000000018007943c     turtlecoin-crypto-node.obj
 0002:0001f449       $stateUnwindMap$?generateSignature@@YAXAEBV?$FunctionCallbackInfo@VValue@v8@@@Nan@@@Z 0000000180079449     turtlecoin-crypto-node.obj
 0002:0001f47a       $tryMap$?generateSignature@@YAXAEBV?$FunctionCallbackInfo@VValue@v8@@@Nan@@@Z 000000018007947a     turtlecoin-crypto-node.obj
 0002:0001f482       $handlerMap$?generateSignature@@YAXAEBV?$FunctionCallbackInfo@VValue@v8@@@Nan@@@Z 0000000180079482     turtlecoin-crypto-node.obj
 0002:0001f48f       $ip2state$?generateSignature@@YAXAEBV?$FunctionCallbackInfo@VValue@v8@@@Nan@@@Z 000000018007948f     turtlecoin-crypto-node.obj
 0002:0001f4ac       $unwind$?scalarmultKey@@YAXAEBV?$FunctionCallbackInfo@VValue@v8@@@Nan@@@Z 00000001800794ac     turtlecoin-crypto-node.obj
 0002:0001f4cc       $cppxdata$?scalarmultKey@@YAXAEBV?$FunctionCallbackInfo@VValue@v8@@@Nan@@@Z 00000001800794cc     turtlecoin-crypto-node.obj
 0002:0001f4d9       $stateUnwindMap$?scalarmultKey@@YAXAEBV?$FunctionCallbackInfo@VValue@v8@@@Nan@@@Z 00000001800794d9     turtlecoin-crypto-node.obj
 0002:0001f4fd       $tryMap$?scalarmultKey@@YAXAEBV?$FunctionCallbackInfo@VValue@v8@@@Nan@@@Z 00000001800794fd     turtlecoin-crypto-node.obj
 0002:0001f505       $handlerMap$?scalarmultKey@@YAXAEBV?$FunctionCallbackInfo@VValue@v8@@@Nan@@@Z 0000000180079505     turtlecoin-crypto-node.obj
 0002:0001f512       $ip2state$?scalarmultKey@@YAXAEBV?$FunctionCallbackInfo@VValue@v8@@@Nan@@@Z 0000000180079512     turtlecoin-crypto-node.obj
 0002:0001f52c       $unwind$?secretKeyToPublicKey@@YAXAEBV?$FunctionCallbackInfo@VValue@v8@@@Nan@@@Z 000000018007952c     turtlecoin-crypto-node.obj
 0002:0001f54c       $cppxdata$?secretKeyToPublicKey@@YAXAEBV?$FunctionCallbackInfo@VValue@v8@@@Nan@@@Z 000000018007954c     turtlecoin-crypto-node.obj
 0002:0001f559       $stateUnwindMap$?secretKeyToPublicKey@@YAXAEBV?$FunctionCallbackInfo@VValue@v8@@@Nan@@@Z 0000000180079559     turtlecoin-crypto-node.obj
 0002:0001f56f       $tryMap$?secretKeyToPublicKey@@YAXAEBV?$FunctionCallbackInfo@VValue@v8@@@Nan@@@Z 000000018007956f     turtlecoin-crypto-node.obj
 0002:0001f577       $handlerMap$?secretKeyToPublicKey@@YAXAEBV?$FunctionCallbackInfo@VValue@v8@@@Nan@@@Z 0000000180079577     turtlecoin-crypto-node.obj
 0002:0001f584       $ip2state$?secretKeyToPublicKey@@YAXAEBV?$FunctionCallbackInfo@VValue@v8@@@Nan@@@Z 0000000180079584     turtlecoin-crypto-node.obj
 0002:0001f598       $unwind$?tree_depth@@YAXAEBV?$FunctionCallbackInfo@VValue@v8@@@Nan@@@Z 0000000180079598     turtlecoin-crypto-node.obj
 0002:0001f5ac       $cppxdata$?tree_depth@@YAXAEBV?$FunctionCallbackInfo@VValue@v8@@@Nan@@@Z 00000001800795ac     turtlecoin-crypto-node.obj
 0002:0001f5b9       $stateUnwindMap$?tree_depth@@YAXAEBV?$FunctionCallbackInfo@VValue@v8@@@Nan@@@Z 00000001800795b9     turtlecoin-crypto-node.obj
 0002:0001f5c2       $tryMap$?tree_depth@@YAXAEBV?$FunctionCallbackInfo@VValue@v8@@@Nan@@@Z 00000001800795c2     turtlecoin-crypto-node.obj
 0002:0001f5ca       $handlerMap$?tree_depth@@YAXAEBV?$FunctionCallbackInfo@VValue@v8@@@Nan@@@Z 00000001800795ca     turtlecoin-crypto-node.obj
 0002:0001f5d7       $ip2state$?tree_depth@@YAXAEBV?$FunctionCallbackInfo@VValue@v8@@@Nan@@@Z 00000001800795d7     turtlecoin-crypto-node.obj
 0002:0001f5e4       $unwind$?tree_hash@@YAXAEBV?$FunctionCallbackInfo@VValue@v8@@@Nan@@@Z 00000001800795e4     turtlecoin-crypto-node.obj
 0002:0001f604       $cppxdata$?tree_hash@@YAXAEBV?$FunctionCallbackInfo@VValue@v8@@@Nan@@@Z 0000000180079604     turtlecoin-crypto-node.obj
 0002:0001f611       $stateUnwindMap$?tree_hash@@YAXAEBV?$FunctionCallbackInfo@VValue@v8@@@Nan@@@Z 0000000180079611     turtlecoin-crypto-node.obj
 0002:0001f627       $tryMap$?tree_hash@@YAXAEBV?$FunctionCallbackInfo@VValue@v8@@@Nan@@@Z 0000000180079627     turtlecoin-crypto-node.obj
 0002:0001f62f       $handlerMap$?tree_hash@@YAXAEBV?$FunctionCallbackInfo@VValue@v8@@@Nan@@@Z 000000018007962f     turtlecoin-crypto-node.obj
 0002:0001f63c       $ip2state$?tree_hash@@YAXAEBV?$FunctionCallbackInfo@VValue@v8@@@Nan@@@Z 000000018007963c     turtlecoin-crypto-node.obj
 0002:0001f650       $unwind$?tree_branch@@YAXAEBV?$FunctionCallbackInfo@VValue@v8@@@Nan@@@Z 0000000180079650     turtlecoin-crypto-node.obj
 0002:0001f66c       $cppxdata$?tree_branch@@YAXAEBV?$FunctionCallbackInfo@VValue@v8@@@Nan@@@Z 000000018007966c     turtlecoin-crypto-node.obj
 0002:0001f679       $stateUnwindMap$?tree_branch@@YAXAEBV?$FunctionCallbackInfo@VValue@v8@@@Nan@@@Z 0000000180079679     turtlecoin-crypto-node.obj
 0002:0001f694       $tryMap$?tree_branch@@YAXAEBV?$FunctionCallbackInfo@VValue@v8@@@Nan@@@Z 0000000180079694     turtlecoin-crypto-node.obj
 0002:0001f69c       $handlerMap$?tree_branch@@YAXAEBV?$FunctionCallbackInfo@VValue@v8@@@Nan@@@Z 000000018007969c     turtlecoin-crypto-node.obj
 0002:0001f6a9       $ip2state$?tree_branch@@YAXAEBV?$FunctionCallbackInfo@VValue@v8@@@Nan@@@Z 00000001800796a9     turtlecoin-crypto-node.obj
 0002:0001f6c0       $unwind$?tree_hash_from_branch@@YAXAEBV?$FunctionCallbackInfo@VValue@v8@@@Nan@@@Z 00000001800796c0     turtlecoin-crypto-node.obj
 0002:0001f6e0       $cppxdata$?tree_hash_from_branch@@YAXAEBV?$FunctionCallbackInfo@VValue@v8@@@Nan@@@Z 00000001800796e0     turtlecoin-crypto-node.obj
 0002:0001f6ed       $stateUnwindMap$?tree_hash_from_branch@@YAXAEBV?$FunctionCallbackInfo@VValue@v8@@@Nan@@@Z 00000001800796ed     turtlecoin-crypto-node.obj
 0002:0001f71e       $tryMap$?tree_hash_from_branch@@YAXAEBV?$FunctionCallbackInfo@VValue@v8@@@Nan@@@Z 000000018007971e     turtlecoin-crypto-node.obj
 0002:0001f726       $handlerMap$?tree_hash_from_branch@@YAXAEBV?$FunctionCallbackInfo@VValue@v8@@@Nan@@@Z 0000000180079726     turtlecoin-crypto-node.obj
 0002:0001f733       $ip2state$?tree_hash_from_branch@@YAXAEBV?$FunctionCallbackInfo@VValue@v8@@@Nan@@@Z 0000000180079733     turtlecoin-crypto-node.obj
 0002:0001f754       $unwind$?underivePublicKey@@YAXAEBV?$FunctionCallbackInfo@VValue@v8@@@Nan@@@Z 0000000180079754     turtlecoin-crypto-node.obj
 0002:0001f778       $cppxdata$?underivePublicKey@@YAXAEBV?$FunctionCallbackInfo@VValue@v8@@@Nan@@@Z 0000000180079778     turtlecoin-crypto-node.obj
 0002:0001f785       $tryMap$?underivePublicKey@@YAXAEBV?$FunctionCallbackInfo@VValue@v8@@@Nan@@@Z 0000000180079785     turtlecoin-crypto-node.obj
 0002:0001f78d       $handlerMap$?underivePublicKey@@YAXAEBV?$FunctionCallbackInfo@VValue@v8@@@Nan@@@Z 000000018007978d     turtlecoin-crypto-node.obj
 0002:0001f79a       $ip2state$?underivePublicKey@@YAXAEBV?$FunctionCallbackInfo@VValue@v8@@@Nan@@@Z 000000018007979a     turtlecoin-crypto-node.obj
 0002:0001f7b4       $unwind$?InitModule@@YAXV?$Local@VObject@v8@@@v8@@@Z 00000001800797b4     turtlecoin-crypto-node.obj
 0002:0001f7d0       $cppxdata$?InitModule@@YAXV?$Local@VObject@v8@@@v8@@@Z 00000001800797d0     turtlecoin-crypto-node.obj
 0002:0001f7d9       $stateUnwindMap$?InitModule@@YAXV?$Local@VObject@v8@@@v8@@@Z 00000001800797d9     turtlecoin-crypto-node.obj
 0002:0001f7e6       $ip2state$?InitModule@@YAXV?$Local@VObject@v8@@@v8@@@Z 00000001800797e6     turtlecoin-crypto-node.obj
 0002:0001f98c       $unwind$??$New@VFunctionTemplate@v8@@@Nan@@YA?AV?$Local@VFunctionTemplate@v8@@@v8@@P6AXAEBV?$FunctionCallbackInfo@VValue@v8@@@0@@ZV?$Local@VValue@v8@@@2@@Z 000000018007998c     turtlecoin-crypto-node.obj
 0002:0001f9ac       $cppxdata$??$New@VFunctionTemplate@v8@@@Nan@@YA?AV?$Local@VFunctionTemplate@v8@@@v8@@P6AXAEBV?$FunctionCallbackInfo@VValue@v8@@@0@@ZV?$Local@VValue@v8@@@2@@Z 00000001800799ac     turtlecoin-crypto-node.obj
 0002:0001f9b5       $stateUnwindMap$??$New@VFunctionTemplate@v8@@@Nan@@YA?AV?$Local@VFunctionTemplate@v8@@@v8@@P6AXAEBV?$FunctionCallbackInfo@VValue@v8@@@0@@ZV?$Local@VValue@v8@@@2@@Z 00000001800799b5     turtlecoin-crypto-node.obj
 0002:0001f9c2       $ip2state$??$New@VFunctionTemplate@v8@@@Nan@@YA?AV?$Local@VFunctionTemplate@v8@@@v8@@P6AXAEBV?$FunctionCallbackInfo@VValue@v8@@@0@@ZV?$Local@VValue@v8@@@2@@Z 00000001800799c2     turtlecoin-crypto-node.obj
 0002:0001f9d0       $unwind$??$_Emplace_reallocate@AEBV?$basic_string@DU?$char_traits@D@std@@V?$allocator@D@2@@std@@@?$vector@V?$basic_string@DU?$char_traits@D@std@@V?$allocator@D@2@@std@@V?$allocator@V?$basic_string@DU?$char_traits@D@std@@V?$allocator@D@2@@std@@@2@@std@@QEAAPEAV?$basic_string@DU?$char_traits@D@std@@V?$allocator@D@2@@1@QEAV21@AEBV21@@Z 00000001800799d0     turtlecoin-crypto-node.obj
 0002:0001f9e0       $chain$3$??$_Emplace_reallocate@AEBV?$basic_string@DU?$char_traits@D@std@@V?$allocator@D@2@@std@@@?$vector@V?$basic_string@DU?$char_traits@D@std@@V?$allocator@D@2@@std@@V?$allocator@V?$basic_string@DU?$char_traits@D@std@@V?$allocator@D@2@@std@@@2@@std@@QEAAPEAV?$basic_string@DU?$char_traits@D@std@@V?$allocator@D@2@@1@QEAV21@AEBV21@@Z 00000001800799e0     turtlecoin-crypto-node.obj
 0002:0001fa00       $chain$5$??$_Emplace_reallocate@AEBV?$basic_string@DU?$char_traits@D@std@@V?$allocator@D@2@@std@@@?$vector@V?$basic_string@DU?$char_traits@D@std@@V?$allocator@D@2@@std@@V?$allocator@V?$basic_string@DU?$char_traits@D@std@@V?$allocator@D@2@@std@@@2@@std@@QEAAPEAV?$basic_string@DU?$char_traits@D@std@@V?$allocator@D@2@@1@QEAV21@AEBV21@@Z 0000000180079a00     turtlecoin-crypto-node.obj
 0002:0001fa20       $chain$6$??$_Emplace_reallocate@AEBV?$basic_string@DU?$char_traits@D@std@@V?$allocator@D@2@@std@@@?$vector@V?$basic_string@DU?$char_traits@D@std@@V?$allocator@D@2@@std@@V?$allocator@V?$basic_string@DU?$char_traits@D@std@@V?$allocator@D@2@@std@@@2@@std@@QEAAPEAV?$basic_string@DU?$char_traits@D@std@@V?$allocator@D@2@@1@QEAV21@AEBV21@@Z 0000000180079a20     turtlecoin-crypto-node.obj
 0002:0001fa30       xdata                      0000000180079a30     node:node.exe
 0002:0001fa38       $xdatasym                  0000000180079a38     LIBCMT:amdsecgs.obj
 0002:0001fa3c       $unwind$__dyn_tls_init     0000000180079a3c     LIBCMT:tlsdyn.obj
 0002:0001fa50       $cppxdata$__dyn_tls_init   0000000180079a50     LIBCMT:tlsdyn.obj
 0002:0001fa55       $ip2state$__dyn_tls_init   0000000180079a55     LIBCMT:tlsdyn.obj
 0002:0001fa58       $unwind$?dllmain_crt_process_attach@@YAHQEAUHINSTANCE__@@QEAX@Z 0000000180079a58     LIBCMT:dll_dllmain.obj
 0002:0001fa94       $unwind$?dllmain_crt_process_detach@@YAH_N@Z 0000000180079a94     LIBCMT:dll_dllmain.obj
 0002:0001fae8       $unwind$?dllmain_dispatch@@YAHQEAUHINSTANCE__@@KQEAX@Z 0000000180079ae8     LIBCMT:dll_dllmain.obj
 0002:0001fb10       $unwind$?filt$0@?0??dllmain_dispatch@@YAHQEAUHINSTANCE__@@KQEAX@Z@4HA 0000000180079b10     LIBCMT:dll_dllmain.obj
 0002:0001fb10       $unwind$?filt$0@?0??FrameUnwindToState@__FrameHandler4@@SAXPEA_KPEAU_xDISPATCHER_CONTEXT@@PEAUFuncInfo4@FH4@@H@Z@4HA 0000000180079b10     libvcruntime:frame.obj
 0002:0001fb10       $unwind$?fin$1@?0??FrameUnwindToState@__FrameHandler4@@SAXPEA_KPEAU_xDISPATCHER_CONTEXT@@PEAUFuncInfo4@FH4@@H@Z@4HA 0000000180079b10     libvcruntime:frame.obj
 0002:0001fb10       $unwind$?fin$0@?0???$common_getenv_s@_W@@YAHQEA_KQEA_W_KQEB_W@Z@4HA 0000000180079b10     libucrt:getenv.obj
 0002:0001fb18       $unwind$__report_securityfailure 0000000180079b18     LIBCMT:gs_report.obj
 0002:0001fb20       $unwind$__report_gsfailure 0000000180079b20     LIBCMT:gs_report.obj
 0002:0001fb28       $unwind$capture_current_context 0000000180079b28     LIBCMT:gs_report.obj
 0002:0001fb34       $unwind$capture_previous_context 0000000180079b34     LIBCMT:gs_report.obj
 0002:0001fb40       $unwind$?__scrt_throw_std_bad_alloc@@YAXXZ 0000000180079b40     LIBCMT:throw_bad_alloc.obj
 0002:0001fb40       $unwind$?__scrt_throw_std_bad_array_new_length@@YAXXZ 0000000180079b40     LIBCMT:throw_bad_alloc.obj
 0002:0001fb40       $unwind$?_Xlength_error@std@@YAXPEBD@Z 0000000180079b40     libcpmt:xthrow.obj
 0002:0001fb40       $unwind$?_Xout_of_range@std@@YAXPEBD@Z 0000000180079b40     libcpmt:xthrow.obj
 0002:0001fb40       $unwind$_raise_exc         0000000180079b40     libucrt:fpexcept.obj
 0002:0001fb40       $unwind$_raise_excf        0000000180079b40     libucrt:fpexcept.obj
 0002:0001fb48       $unwind$__security_init_cookie 0000000180079b48     LIBCMT:gs_support.obj
 0002:0001fb54       $unwind$__scrt_is_nonwritable_in_current_image 0000000180079b54     LIBCMT:utility.obj
 0002:0001fb74       $unwind$__scrt_is_nonwritable_in_current_image$filt$0 0000000180079b74     LIBCMT:utility.obj
 0002:0001fb7c       $unwind$__scrt_fastfail    0000000180079b7c     LIBCMT:utility_desktop.obj
 0002:0001fb90       $xdatasym                  0000000180079b90     LIBCMT:guard_dispatch.obj
 0002:0001fb98       $xdatasym                  0000000180079b98     LIBCMT:guard_xfg_dispatch.obj
 0002:0001fb9c       $unwind$__isa_available_init 0000000180079b9c     LIBCMT:cpu_disp.obj
 0002:0001fbac       $unwind$??__Finit_atexit@@YAXXZ 0000000180079bac     libcpmt:iosptrs.obj
 0002:0001fbbc       $cppxdata$??__Finit_atexit@@YAXXZ 0000000180079bbc     libcpmt:iosptrs.obj
 0002:0001fbc5       $stateUnwindMap$??__Finit_atexit@@YAXXZ 0000000180079bc5     libcpmt:iosptrs.obj
 0002:0001fbcb       $ip2state$??__Finit_atexit@@YAXXZ 0000000180079bcb     libcpmt:iosptrs.obj
 0002:0001fbd0       $unwind$?DecompFuncInfo@FH4@@YA_JPEAEAEAUFuncInfo4@1@_KH_N@Z 0000000180079bd0     libvcruntime:risctrnsctrl.obj
 0002:0001fbe8       $unwind$?UnwindNestedFrames@__FrameHandler4@@SAXPEA_KPEAUEHExceptionRecord@@PEAU_CONTEXT@@0PEAXPEAUFuncInfo4@FH4@@HHPEAUHandlerType4@5@PEAU_xDISPATCHER_CONTEXT@@E@Z 0000000180079be8     libvcruntime:risctrnsctrl.obj
 0002:0001fbfc       $unwind$?GetRangeOfTrysToCheck@__FrameHandler4@@SA?AU?$pair@Viterator@TryBlockMap4@FH4@@V123@@std@@AEAVTryBlockMap4@FH4@@HPEAU_xDISPATCHER_CONTEXT@@PEAUFuncInfo4@5@H@Z 0000000180079bfc     libvcruntime:risctrnsctrl.obj
 0002:0001fc18       $unwind$__CxxFrameHandler4 0000000180079c18     libvcruntime:risctrnsctrl.obj
 0002:0001fc2c       $unwind$??$_CallSETranslator@V__FrameHandler4@@@@YAHPEAUEHExceptionRecord@@PEA_KPEAU_CONTEXT@@PEAU_xDISPATCHER_CONTEXT@@PEAUFuncInfo4@FH4@@K1H@Z 0000000180079c2c     libvcruntime:risctrnsctrl.obj
 0002:0001fc4c       $unwind$?filt$0@?0???$_CallSETranslator@V__FrameHandler4@@@@YAHPEAUEHExceptionRecord@@PEA_KPEAU_CONTEXT@@PEAU_xDISPATCHER_CONTEXT@@PEAUFuncInfo4@FH4@@K1H@Z@4HA 0000000180079c4c     libvcruntime:risctrnsctrl.obj
 0002:0001fc58       $unwind$__DestructExceptionObject 0000000180079c58     libvcruntime:ehhelpers.obj
 0002:0001fc78       $unwind$__DestructExceptionObject$filt$0 0000000180079c78     libvcruntime:ehhelpers.obj
 0002:0001fc78       $unwind$?fin$1@?0??CxxCallCatchBlock@__FrameHandler4@@SAPEAXPEAU_EXCEPTION_RECORD@@@Z@4HA 0000000180079c78     libvcruntime:frame.obj
 0002:0001fc84       $unwind$__C_specific_handler 0000000180079c84     libvcruntime:riscchandler.obj
 0002:0001fca0       $unwind$_CxxThrowException 0000000180079ca0     libvcruntime:throw.obj
 0002:0001fcb0       $xdatasym                  0000000180079cb0     libvcruntime:memset.obj
 0002:0001fcc0       $xdatasym                  0000000180079cc0     libvcruntime:memcpy.obj
 0002:0001fcd0       $xdatasym                  0000000180079cd0     libvcruntime:memchr.obj
 0002:0001fcd8       $xdatasym                  0000000180079cd8     libvcruntime:memcmp.obj
 0002:0001fcdc       $unwind$?StateFromIp@__FrameHandler4@@SAHPEAUFuncInfo4@FH4@@PEAU_xDISPATCHER_CONTEXT@@_K@Z 0000000180079cdc     libvcruntime:ehstate.obj
 0002:0001fcf0       $unwind$?getStartStop@UWMap4@FH4@@QEAAXHHAEAViterator@12@0@Z 0000000180079cf0     libvcruntime:frame.obj
 0002:0001fd08       $unwind$?getStateFromIterators@UWMap4@FH4@@SAHAEBViterator@12@H0H0@Z 0000000180079d08     libvcruntime:frame.obj
 0002:0001fd08       $unwind$??$initialize_environment_by_cloning_nolock@_W@@YAHXZ 0000000180079d08     libucrt:environment_initialization.obj
 0002:0001fd08       $unwind$_beginthreadex     0000000180079d08     libucrt:thread.obj
 0002:0001fd18       $unwind$?FrameUnwindToState@__FrameHandler4@@SAXPEA_KPEAU_xDISPATCHER_CONTEXT@@PEAUFuncInfo4@FH4@@H@Z 0000000180079d18     libvcruntime:frame.obj
 0002:0001fd60       $unwind$?CxxCallCatchBlock@__FrameHandler4@@SAPEAXPEAU_EXCEPTION_RECORD@@@Z 0000000180079d60     libvcruntime:frame.obj
 0002:0001fdbc       $unwind$?IsInExceptionSpec@@YAEPEAUEHExceptionRecord@@PEBU_s_ESTypeList@@@Z 0000000180079dbc     libvcruntime:frame.obj
 0002:0001fdd8       $unwind$??$__InternalCxxFrameHandler@V__FrameHandler4@@@@YA?AW4_EXCEPTION_DISPOSITION@@PEAUEHExceptionRecord@@PEA_KPEAU_CONTEXT@@PEAU_xDISPATCHER_CONTEXT@@PEAUFuncInfo4@FH4@@H1E@Z 0000000180079dd8     libvcruntime:frame.obj
 0002:0001fdf0       $unwind$__GSHandlerCheck_EH4 0000000180079df0     LIBCMT:gshandlereh4.obj
 0002:0001fdf0       $unwind$__GSHandlerCheck_SEH 0000000180079df0     LIBCMT:gshandlerseh.obj
 0002:0001fdf0       $unwind$??$TypeMatchHelper@V__FrameHandler3@@@@YAHPEBU_s_HandlerType@@PEBU_s_CatchableType@@PEBU_s_ThrowInfo@@@Z 0000000180079df0     libvcruntime:frame.obj
 0002:0001fdf0       $unwind$??$TypeMatchHelper@V__FrameHandler4@@@@YAHPEAUHandlerType4@FH4@@PEBU_s_CatchableType@@PEBU_s_ThrowInfo@@@Z 0000000180079df0     libvcruntime:frame.obj
 0002:0001fdf0       $unwind$?initialize_stdio_handles_nolock@@YAXXZ 0000000180079df0     libucrt:ioinit.obj
 0002:0001fdf0       $unwind$__acrt_initialize_stdio 0000000180079df0     libucrt:_file.obj
 0002:0001fdf0       $unwind$?type_case_integer@?$output_processor@DV?$stream_output_adapter@D@__crt_stdio_output@@V?$standard_base@DV?$stream_output_adapter@D@__crt_stdio_output@@@2@@__crt_stdio_output@@AEAA_NI_N@Z 0000000180079df0     libucrt:output.obj
 0002:0001fe08       $unwind$??$BuildCatchObjectHelperInternal@V__FrameHandler4@@@@YAHPEAUEHExceptionRecord@@PEAXPEAUHandlerType4@FH4@@PEBU_s_CatchableType@@@Z 0000000180079e08     libvcruntime:frame.obj
 0002:0001fe48       $unwind$??$BuildCatchObjectInternal@V__FrameHandler4@@@@YAXPEAUEHExceptionRecord@@PEAXPEAUHandlerType4@FH4@@PEBU_s_CatchableType@@@Z 0000000180079e48     libvcruntime:frame.obj
 0002:0001fe74       $unwind$??$FindHandler@V__FrameHandler4@@@@YAXPEAUEHExceptionRecord@@PEA_KPEAU_CONTEXT@@PEAU_xDISPATCHER_CONTEXT@@PEAUFuncInfo4@FH4@@EH1@Z 0000000180079e74     libvcruntime:frame.obj
 0002:0001fe94       $unwind$??$CatchIt@V__FrameHandler4@@@@YAXPEAUEHExceptionRecord@@PEA_KPEAU_CONTEXT@@PEAU_xDISPATCHER_CONTEXT@@PEAUFuncInfo4@FH4@@PEAUHandlerType4@4@PEBU_s_CatchableType@@PEAUTryBlockMapEntry4@4@H1EE@Z 0000000180079e94     libvcruntime:frame.obj
 0002:0001feac       $unwind$??$FindHandlerForForeignException@V__FrameHandler4@@@@YAXPEAUEHExceptionRecord@@PEA_KPEAU_CONTEXT@@PEAU_xDISPATCHER_CONTEXT@@PEAUFuncInfo4@FH4@@HH1@Z 0000000180079eac     libvcruntime:frame.obj
 0002:0001fed0       $xdatasym                  0000000180079ed0     libvcruntime:notify.obj
 0002:0001fedc       $unwind$?try_get_function@@YAPEAXW4function_id@?A0xf6f43728@@QEBDQEBW4module_id@2@2@Z 0000000180079edc     libvcruntime:winapi_downlevel.obj
 0002:0001fedc       $unwind$?try_get_function@@YAPEAXW4function_id@?A0x391cf84c@@QEBDQEBW4module_id@2@2@Z 0000000180079edc     libucrt:winapi_thunks.obj
 0002:0001fef8       $xdatasym                  0000000180079ef8     libvcruntime:handlers.obj
 0002:0001ff18       $unwind$__acrt_call_reportfault 0000000180079f18     libucrt:invalid_parameter.obj
 0002:0001ff38       $unwind$_invalid_parameter 0000000180079f38     libucrt:invalid_parameter.obj
 0002:0001ff4c       $unwind$_ftime64_s         0000000180079f4c     libucrt:ftime.obj
 0002:0001ff68       $unwind$iswctype           0000000180079f68     libucrt:iswctype.obj
 0002:0001ff68       $unwind$??$common_gmtime_s@_J@@YAHQEAUtm@@QEB_J@Z 0000000180079f68     libucrt:gmtime.obj
 0002:0001ff74       $unwind$__stdio_common_vfprintf 0000000180079f74     libucrt:output.obj
 0002:0001ff7c       $unwind$?should_round_up@@YA_NQEBN_KFW4__acrt_rounding_mode@@@Z 0000000180079f7c     libucrt:cvt.obj
 0002:0001ff7c       $unwind$??$parse_command_line@D@@YAXPEADPEAPEAD0PEA_K2@Z 0000000180079f7c     libucrt:argv_parsing.obj
 0002:0001ff7c       $unwind$?write_string_impl@?$output_adapter_common@DV?$stream_output_adapter@D@__crt_stdio_output@@@__crt_stdio_output@@IEBAXQEBDHQEAHAEAV__crt_deferred_errno_cache@@@Z 0000000180079f7c     libucrt:output.obj
 0002:0001ff98       $unwind$?process@?$output_processor@DV?$stream_output_adapter@D@__crt_stdio_output@@V?$standard_base@DV?$stream_output_adapter@D@__crt_stdio_output@@@2@@__crt_stdio_output@@QEAAHXZ 0000000180079f98     libucrt:output.obj
 0002:0001ffa8       $unwind$?parse_int_from_format_string@?$output_processor@DV?$stream_output_adapter@D@__crt_stdio_output@@V?$standard_base@DV?$stream_output_adapter@D@__crt_stdio_output@@@2@@__crt_stdio_output@@AEAA_NQEAH@Z 0000000180079fa8     libucrt:output.obj
 0002:0001ffbc       $unwind$?state_case_type@?$output_processor@DV?$stream_output_adapter@D@__crt_stdio_output@@V?$standard_base@DV?$stream_output_adapter@D@__crt_stdio_output@@@2@@__crt_stdio_output@@AEAA_NXZ 0000000180079fbc     libucrt:output.obj
 0002:0001ffd4       $unwind$?type_case_a@?$output_processor@DV?$stream_output_adapter@D@__crt_stdio_output@@V?$standard_base@DV?$stream_output_adapter@D@__crt_stdio_output@@@2@@__crt_stdio_output@@AEAA_NXZ 0000000180079fd4     libucrt:output.obj
 0002:0001ffe0       $unwind$?write_stored_string_tchar@?$output_processor@DV?$stream_output_adapter@D@__crt_stdio_output@@V?$standard_base@DV?$stream_output_adapter@D@__crt_stdio_output@@@2@@__crt_stdio_output@@AEAA_ND@Z 0000000180079fe0     libucrt:output.obj
 0002:0001fff8       $unwind$??R<lambda_36eeb330e99a4f0bf8a7da86d0894cb9>@@QEBAHXZ 0000000180079ff8     libucrt:output.obj
 0002:00020018       $unwind$??$write_multiple_characters@V?$stream_output_adapter@D@__crt_stdio_output@@D@__crt_stdio_output@@YAXAEBV?$stream_output_adapter@D@0@DHQEAH@Z 000000018007a018     libucrt:output.obj
 0002:00020030       $unwind$??$type_case_integer_parse_into_buffer@I@?$output_processor@DV?$stream_output_adapter@D@__crt_stdio_output@@V?$standard_base@DV?$stream_output_adapter@D@__crt_stdio_output@@@2@@__crt_stdio_output@@AEAAXII_N@Z 000000018007a030     libucrt:output.obj
 0002:00020030       $unwind$??$type_case_integer_parse_into_buffer@_K@?$output_processor@DV?$stream_output_adapter@D@__crt_stdio_output@@V?$standard_base@DV?$stream_output_adapter@D@__crt_stdio_output@@@2@@__crt_stdio_output@@AEAAX_KI_N@Z 000000018007a030     libucrt:output.obj
 0002:00020038       $unwind$??$?RV<lambda_fe5404e9642edbb7c8ae71e1dcfa4018>@@AEAV<lambda_36eeb330e99a4f0bf8a7da86d0894cb9>@@V<lambda_2fa474834de80dc12f7a3c6eddd7a366>@@@?$__crt_seh_guarded_call@H@@QEAAH$$QEAV<lambda_fe5404e9642edbb7c8ae71e1dcfa4018>@@AEAV<lambda_36eeb330e99a4f0bf8a7da86d0894cb9>@@$$QEAV<lambda_2fa474834de80dc12f7a3c6eddd7a366>@@@Z 000000018007a038     libucrt:output.obj
 0002:0002005c       $unwind$?divide@__crt_strtox@@YA_KAEAUbig_integer@1@AEBU21@@Z 000000018007a05c     libucrt:input.obj
 0002:00020074       $chain$0$?divide@__crt_strtox@@YA_KAEAUbig_integer@1@AEBU21@@Z 000000018007a074     libucrt:input.obj
 0002:00020088       $chain$1$?divide@__crt_strtox@@YA_KAEAUbig_integer@1@AEBU21@@Z 000000018007a088     libucrt:input.obj
 0002:00020098       $xdatasym                  000000018007a098     libucrt:strncmp.obj
 0002:0002009c       $unwind$??$thread_start@P6AIPEAX@Z$00@@YAKQEAX@Z 000000018007a09c     libucrt:thread.obj
 0002:000200bc       $unwind$_mbsdec_l          000000018007a0bc     libucrt:mbsdec.obj
 0002:000200bc       $unwind$_stricmp_l         000000018007a0bc     libucrt:stricmp.obj
 0002:000200c8       $unwind$_query_new_handler 000000018007a0c8     libucrt:new_handler.obj
 0002:000200e8       $unwind$?common_exit@@YAXHW4_crt_exit_cleanup_mode@@W4_crt_exit_return_mode@@@Z 000000018007a0e8     libucrt:exit.obj
 0002:000200f4       $unwind$??R<lambda_6e4b09c48022b2350581041d5f6b0c4c>@@QEBA@XZ 000000018007a0f4     libucrt:exit.obj
 0002:00020114       $unwind$??$?RV<lambda_d80eeec6fff315bfe5c115232f3240e3>@@AEAV<lambda_6e4b09c48022b2350581041d5f6b0c4c>@@V<lambda_2358e3775559c9db80273638284d5e45>@@@?$__crt_seh_guarded_call@X@@QEAAX$$QEAV<lambda_d80eeec6fff315bfe5c115232f3240e3>@@AEAV<lambda_6e4b09c48022b2350581041d5f6b0c4c>@@$$QEAV<lambda_2358e3775559c9db80273638284d5e45>@@@Z 000000018007a114     libucrt:exit.obj
 0002:00020138       $unwind$_configure_narrow_argv 000000018007a138     libucrt:argv_parsing.obj
 0002:0002014c       $unwind$??$free_environment@D@@YAXQEAPEAD@Z 000000018007a14c     libucrt:environment_initialization.obj
 0002:0002014c       $unwind$??$free_environment@_W@@YAXQEAPEA_W@Z 000000018007a14c     libucrt:environment_initialization.obj
 0002:00020158       $unwind$??$create_environment@D@@YAQEAPEADQEAD@Z 000000018007a158     libucrt:environment_initialization.obj
 0002:00020158       $unwind$??$create_environment@_W@@YAQEAPEA_WQEA_W@Z 000000018007a158     libucrt:environment_initialization.obj
 0002:00020170       $unwind$_register_onexit_function 000000018007a170     libucrt:onexit.obj
 0002:00020178       $unwind$_execute_onexit_table 000000018007a178     libucrt:onexit.obj
 0002:00020180       $unwind$??R<lambda_22ebabd17bc4fa466a2aca6d8deb888d>@@QEBAHXZ 000000018007a180     libucrt:onexit.obj
 0002:00020198       $unwind$__acrt_fp_strflt_to_string 000000018007a198     libucrt:_fptostr.obj
 0002:00020198       $unwind$__acrt_DownlevelLocaleNameToLCID 000000018007a198     libucrt:lcidtoname_downlevel.obj
 0002:00020198       $unwind$??R<lambda_f03950bc5685219e0bcd2087efbe011e>@@QEBAHXZ 000000018007a198     libucrt:onexit.obj
 0002:000201b0       $unwind$??$?RV<lambda_638799b9deba96c50f710eeac98168cd>@@AEAV<lambda_22ebabd17bc4fa466a2aca6d8deb888d>@@V<lambda_a6f7d7db0129f75315ebf26d50c089f1>@@@?$__crt_seh_guarded_call@H@@QEAAH$$QEAV<lambda_638799b9deba96c50f710eeac98168cd>@@AEAV<lambda_22ebabd17bc4fa466a2aca6d8deb888d>@@$$QEAV<lambda_a6f7d7db0129f75315ebf26d50c089f1>@@@Z 000000018007a1b0     libucrt:onexit.obj
 0002:000201d4       $unwind$??$?RV<lambda_7777bce6b2f8c936911f934f8298dc43>@@AEAV<lambda_f03950bc5685219e0bcd2087efbe011e>@@V<lambda_3883c3dff614d5e0c5f61bb1ac94921c>@@@?$__crt_seh_guarded_call@H@@QEAAH$$QEAV<lambda_7777bce6b2f8c936911f934f8298dc43>@@AEAV<lambda_f03950bc5685219e0bcd2087efbe011e>@@$$QEAV<lambda_3883c3dff614d5e0c5f61bb1ac94921c>@@@Z 000000018007a1d4     libucrt:onexit.obj
 0002:000201f8       $unwind$terminate          000000018007a1f8     libucrt:terminate.obj
 0002:00020218       $xdatasym                  000000018007a218     libucrt:pow.obj
 0002:00020228       $xdatasym                  000000018007a228     libucrt:powf.obj
 0002:00020238       $unwind$??$copy_environment@_W@@YAPEAPEA_WQEAPEA_W@Z 000000018007a238     libucrt:setenv.obj
 0002:00020238       $unwind$??$__acrt_mbs_to_wcs_cp@U__crt_win32_buffer_internal_dynamic_resizing@@@@YAHQEBDAEAV?$__crt_win32_buffer@_WU__crt_win32_buffer_internal_dynamic_resizing@@@@I@Z 000000018007a238     libucrt:strftime.obj
 0002:00020250       $unwind$__dcrt_write_console 000000018007a250     libucrt:initcon.obj
 0002:00020250       $unwind$??$__acrt_wcs_to_mbs_cp@U__crt_win32_buffer_no_resizing@@@@YAHQEB_WAEAV?$__crt_win32_buffer@DU__crt_win32_buffer_no_resizing@@@@I@Z 000000018007a250     libucrt:strftime.obj
 0002:00020264       $unwind$??$parse_integer@KV?$c_string_character_source@D@__crt_strtox@@@__crt_strtox@@YAKQEAU__crt_locale_pointers@@V?$c_string_character_source@D@0@H_N@Z 000000018007a264     libucrt:atox.obj
 0002:00020280       $unwind$??$parse_integer@KV?$c_string_character_source@_W@__crt_strtox@@@__crt_strtox@@YAKQEAU__crt_locale_pointers@@V?$c_string_character_source@_W@0@H_N@Z 000000018007a280     libucrt:atox.obj
 0002:00020298       $unwind$_free_base         000000018007a298     libucrt:free_base.obj
 0002:00020298       $unwind$?destroy_fls@@YAXPEAX@Z 000000018007a298     libucrt:per_thread_data.obj
 0002:00020298       $unwind$__acrt_locale_free_numeric 000000018007a298     libucrt:initnum.obj
 0002:00020298       $unwind$__acrt_locale_free_lc_time_if_unreferenced 000000018007a298     libucrt:locale_refcounting.obj
 0002:000202a0       $unwind$?construct_ptd_array@@YAXQEAU__acrt_ptd@@@Z 000000018007a2a0     libucrt:per_thread_data.obj
 0002:000202a8       $unwind$??$?RV<lambda_0ae27a3a962d80f24befdcbee591983d>@@AEAV<lambda_8d0ee55de4b1038c4002e0adecdf1839>@@V<lambda_dc504788e8f1664fe9b84e20bfb512f2>@@@?$__crt_seh_guarded_call@X@@QEAAX$$QEAV<lambda_0ae27a3a962d80f24befdcbee591983d>@@AEAV<lambda_8d0ee55de4b1038c4002e0adecdf1839>@@$$QEAV<lambda_dc504788e8f1664fe9b84e20bfb512f2>@@@Z 000000018007a2a8     libucrt:per_thread_data.obj
 0002:000202cc       $unwind$??$?RV<lambda_aa87e3671a710a21b5dc78c0bdf72e11>@@AEAV<lambda_92619d2358a28f41a33ba319515a20b9>@@V<lambda_6992ecaafeb10aed2b74cb1fae11a551>@@@?$__crt_seh_guarded_call@X@@QEAAX$$QEAV<lambda_aa87e3671a710a21b5dc78c0bdf72e11>@@AEAV<lambda_92619d2358a28f41a33ba319515a20b9>@@$$QEAV<lambda_6992ecaafeb10aed2b74cb1fae11a551>@@@Z 000000018007a2cc     libucrt:per_thread_data.obj
 0002:000202f0       $unwind$??$?RV<lambda_f2e299630e499de9f9a165e60fcd3db5>@@AEAV<lambda_2ae9d31cdba2644fcbeaf08da7c24588>@@V<lambda_40d01ff24d0e7b3814fdbdcee8eab3c7>@@@?$__crt_seh_guarded_call@X@@QEAAX$$QEAV<lambda_f2e299630e499de9f9a165e60fcd3db5>@@AEAV<lambda_2ae9d31cdba2644fcbeaf08da7c24588>@@$$QEAV<lambda_40d01ff24d0e7b3814fdbdcee8eab3c7>@@@Z 000000018007a2f0     libucrt:per_thread_data.obj
 0002:00020314       $unwind$??$?RV<lambda_2d41944a1d46af3157314b8a01080d33>@@AEAV<lambda_8f455de75cd7d7f24b4096f044d8b9e6>@@V<lambda_aa500f224e6afead328df44964fe2772>@@@?$__crt_seh_guarded_call@X@@QEAAX$$QEAV<lambda_2d41944a1d46af3157314b8a01080d33>@@AEAV<lambda_8f455de75cd7d7f24b4096f044d8b9e6>@@$$QEAV<lambda_aa500f224e6afead328df44964fe2772>@@@Z 000000018007a314     libucrt:per_thread_data.obj
 0002:00020338       $unwind$__acrt_initialize_winapi_thunks 000000018007a338     libucrt:winapi_thunks.obj
 0002:00020340       $unwind$?fp_format_e@@YAHQEBNQEAD_K12H_NIQEAU__crt_locale_pointers@@W4__acrt_rounding_mode@@@Z 000000018007a340     libucrt:cvt.obj
 0002:00020340       $unwind$_mbtowc_l          000000018007a340     libucrt:mbtowc.obj
 0002:00020340       $unwind$__acrt_CompareStringEx 000000018007a340     libucrt:winapi_thunks.obj
 0002:00020340       $unwind$__acrt_LCMapStringEx 000000018007a340     libucrt:winapi_thunks.obj
 0002:00020340       $unwind$_wcsnicoll_l       000000018007a340     libucrt:wcsnicol.obj
 0002:00020354       $unwind$__tzset            000000018007a354     libucrt:tzset.obj
 0002:00020374       $unwind$?x_ismbbtype_l@@YAHPEAU__crt_locale_pointers@@IHH@Z 000000018007a374     libucrt:ismbbyte.obj
 0002:00020374       $unwind$?tzset_os_copy_to_tzname@@YAXQEB_WQEA_WQEADI@Z 000000018007a374     libucrt:tzset.obj
 0002:00020384       $unwind$?tzset_from_system_nolock@@YAXXZ 000000018007a384     libucrt:tzset.obj
 0002:00020394       $unwind$?tzset_env_copy_to_tzname@@YAXQEB_WQEA_WQEAD_K@Z 000000018007a394     libucrt:tzset.obj
 0002:000203a4       $unwind$?tzset_from_environment_nolock@@YAXPEA_W@Z 000000018007a3a4     libucrt:tzset.obj
 0002:000203bc       $unwind$?tzset_nolock@@YAXXZ 000000018007a3bc     libucrt:tzset.obj
 0002:000203d8       $unwind$_wctomb_s_l        000000018007a3d8     libucrt:wctomb.obj
 0002:000203e8       $unwind$__acrt_fp_format   000000018007a3e8     libucrt:cvt.obj
 0002:00020400       $unwind$?fp_format_e_internal@@YAHQEAD_KH_NIQEAU_strflt@@2QEAU__crt_locale_pointers@@@Z 000000018007a400     libucrt:cvt.obj
 0002:00020418       $unwind$?fp_format_a@@YAHQEBNPEAD_KQEAD2H_NIQEAU__crt_locale_pointers@@W4__acrt_rounding_mode@@@Z 000000018007a418     libucrt:cvt.obj
 0002:00020434       $unwind$__dcrt_get_narrow_environment_from_os 000000018007a434     libucrt:get_environment_from_os.obj
 0002:00020434       $unwind$?fp_format_f_internal@@YAHQEAD_KHQEAU_strflt@@_NQEAU__crt_locale_pointers@@@Z 000000018007a434     libucrt:cvt.obj
 0002:00020434       $unwind$??$__acrt_wcs_to_mbs_cp@U__crt_win32_buffer_internal_dynamic_resizing@@@@YAHQEB_WAEAV?$__crt_win32_buffer@DU__crt_win32_buffer_internal_dynamic_resizing@@@@I@Z 000000018007a434     libucrt:argv_wildcards.obj
 0002:0002044c       $unwind$?fp_format_g@@YAHQEBNQEAD_K12H_NIW4__acrt_rounding_mode@@QEAU__crt_locale_pointers@@@Z 000000018007a44c     libucrt:cvt.obj
 0002:00020460       $unwind$__acrt_stdio_end_temporary_buffering_nolock 000000018007a460     libucrt:_sftbuf.obj
 0002:00020468       $unwind$__acrt_uninitialize_locale 000000018007a468     libucrt:wsetlocale.obj
 0002:00020468       $unwind$__acrt_get_sigabrt_handler 000000018007a468     libucrt:signal.obj
 0002:00020470       $unwind$??$?RV<lambda_410d79af7f07d98d83a3f525b3859a53>@@AEAV<lambda_3e16ef9562a7dcce91392c22ab16ea36>@@V<lambda_38119f0e861e05405d8a144b9b982f0a>@@@?$__crt_seh_guarded_call@X@@QEAAX$$QEAV<lambda_410d79af7f07d98d83a3f525b3859a53>@@AEAV<lambda_3e16ef9562a7dcce91392c22ab16ea36>@@$$QEAV<lambda_38119f0e861e05405d8a144b9b982f0a>@@@Z 000000018007a470     libucrt:wsetlocale.obj
 0002:00020498       $unwind$__acrt_initialize_lowio 000000018007a498     libucrt:ioinit.obj
 0002:000204b8       $unwind$?initialize_inherited_file_handles_nolock@@YAXXZ 000000018007a4b8     libucrt:ioinit.obj
 0002:000204d4       $unwind$raise              000000018007a4d4     libucrt:signal.obj
 0002:00020510       $unwind$??$?RV<lambda_450d765d439847d4c735a33c368b5fc0>@@AEAV<lambda_44731a7d0e6d81c3e6aa82d741081786>@@V<lambda_601a2a7da3b7a96e9554ac7215c4b07c>@@@?$__crt_seh_guarded_call@P6AXH@Z@@QEAAP6AXH@Z$$QEAV<lambda_450d765d439847d4c735a33c368b5fc0>@@AEAV<lambda_44731a7d0e6d81c3e6aa82d741081786>@@$$QEAV<lambda_601a2a7da3b7a96e9554ac7215c4b07c>@@@Z 000000018007a510     libucrt:signal.obj
 0002:00020534       $unwind$_fcloseall         000000018007a534     libucrt:closeall.obj
 0002:00020558       $unwind$?common_flush_all@@YAH_N@Z 000000018007a558     libucrt:fflush.obj
 0002:00020560       $unwind$??$?RV<lambda_842d9ff0dc9ef11c61343bbaebe7f885>@@AEAV<lambda_c5860995281e5c4ce005b3de8f5874ee>@@V<lambda_d90129c13df834fdcbf8d2b88dafcf2d>@@@?$__crt_seh_guarded_call@X@@QEAAX$$QEAV<lambda_842d9ff0dc9ef11c61343bbaebe7f885>@@AEAV<lambda_c5860995281e5c4ce005b3de8f5874ee>@@$$QEAV<lambda_d90129c13df834fdcbf8d2b88dafcf2d>@@@Z 000000018007a560     libucrt:fflush.obj
 0002:00020584       $unwind$??$?RV<lambda_886d6c58226a84441f68b9f2b8217b83>@@AEAV<lambda_ab61a845afdef5b7c387490eaf3616ee>@@V<lambda_f7f22ab5edc0698d5f6905b0d3f44752>@@@?$__crt_seh_guarded_call@X@@QEAAX$$QEAV<lambda_886d6c58226a84441f68b9f2b8217b83>@@AEAV<lambda_ab61a845afdef5b7c387490eaf3616ee>@@$$QEAV<lambda_f7f22ab5edc0698d5f6905b0d3f44752>@@@Z 000000018007a584     libucrt:fflush.obj
 0002:000205ac       $unwind$_raise_exc_ex      000000018007a5ac     libucrt:fpexcept.obj
 0002:000205c0       $unwind$_ctrlfp            000000018007a5c0     libucrt:fpctrl.obj
 0002:000205e8       $unwind$_isctype_l         000000018007a5e8     libucrt:isctype.obj
 0002:00020604       $unwind$??$common_expand_argv_wildcards@D@@YAHQEAPEADQEAPEAPEAD@Z 000000018007a604     libucrt:argv_wildcards.obj
 0002:0002061c       $unwind$??$common_set_variable_in_environment_nolock@_W@@YAHQEA_WH@Z 000000018007a61c     libucrt:setenv.obj
 0002:0002061c       $unwind$??$copy_and_add_argument_to_buffer@D@@YAHQEBD0_KAEAV?$argument_list@D@?A0x5f5c8891@@@Z 000000018007a61c     libucrt:argv_wildcards.obj
 0002:00020638       $unwind$??$expand_argument_wildcards@D@@YAHQEAD0AEAV?$argument_list@D@?A0x5f5c8891@@@Z 000000018007a638     libucrt:argv_wildcards.obj
 0002:0002065c       $unwind$__acrt_GetModuleFileNameA 000000018007a65c     libucrt:getmodulefilenamea.obj
 0002:00020678       $unwind$_setmbcp_nolock    000000018007a678     libucrt:mbctype.obj
 0002:00020698       $unwind$__dcrt_lowio_ensure_console_output_initialized 000000018007a698     libucrt:initcon.obj
 0002:00020698       $unwind$_isleadbyte_l      000000018007a698     libucrt:_wctype.obj
 0002:00020698       $unwind$?getSystemCP@@YAHH@Z 000000018007a698     libucrt:mbctype.obj
 0002:000206a0       $unwind$?update_thread_multibyte_data_internal@@YAPEAU__crt_multibyte_data@@QEAU__acrt_ptd@@QEAPEAU1@@Z 000000018007a6a0     libucrt:mbctype.obj
 0002:000206c8       $unwind$?setmbcp_internal@@YAHH_NQEAU__acrt_ptd@@QEAPEAU__crt_multibyte_data@@@Z 000000018007a6c8     libucrt:mbctype.obj
 0002:000206d8       $unwind$?setSBUpLow@@YAXPEAU__crt_multibyte_data@@@Z 000000018007a6d8     libucrt:mbctype.obj
 0002:000206f4       $unwind$??$?RV<lambda_efdfa57d1f175319df784efa44bb7b81>@@AEAV<lambda_5f0a4c1567f8adc6734073e5d1e1b35c>@@V<lambda_2e8a7d3640ea6ccb4c2413664c2db6fd>@@@?$__crt_seh_guarded_call@X@@QEAAX$$QEAV<lambda_efdfa57d1f175319df784efa44bb7b81>@@AEAV<lambda_5f0a4c1567f8adc6734073e5d1e1b35c>@@$$QEAV<lambda_2e8a7d3640ea6ccb4c2413664c2db6fd>@@@Z 000000018007a6f4     libucrt:mbctype.obj
 0002:00020718       $unwind$__acrt_WideCharToMultiByte 000000018007a718     libucrt:widechartomultibyte.obj
 0002:00020724       $unwind$__acrt_GetStringTypeA 000000018007a724     libucrt:getstringtypea.obj
 0002:0002074c       $unwind$__acrt_LCMapStringA 000000018007a74c     libucrt:lcmapstringa.obj
 0002:0002075c       $unwind$?__acrt_LCMapStringA_stat@@YAHPEAU__crt_locale_pointers@@PEB_WKPEBDHPEADHHH@Z 000000018007a75c     libucrt:lcmapstringa.obj
 0002:00020784       $unwind$__acrt_initialize_fma3 000000018007a784     libucrt:fma3_available.obj
 0002:0002078c       $unwind$_powf_special      000000018007a78c     libucrt:pow_special.obj
 0002:0002079c       $unwind$_pow_special       000000018007a79c     libucrt:pow_special.obj
 0002:000207a8       $unwind$__acrt_update_thread_locale_data 000000018007a7a8     libucrt:locale_refcounting.obj
 0002:000207cc       $unwind$??$common_getenv_s@_W@@YAHQEA_KQEA_W_KQEB_W@Z 000000018007a7cc     libucrt:getenv.obj
 0002:0002080c       $unwind$?__mbsrtowcs_utf8@__crt_mbstring@@YA_KPEA_WPEAPEBD_KPEAU_Mbstatet@@@Z 000000018007a80c     libucrt:mbrtowc.obj
 0002:00020824       $unwind$__acrt_fltout      000000018007a824     libucrt:cfout.obj
 0002:00020844       $unwind$??$write_buffer_nolock@D@@YA_NDV__crt_stdio_stream@@@Z 000000018007a844     libucrt:_flsbuf.obj
 0002:00020854       $unwind$__acrt_locale_free_monetary 000000018007a854     libucrt:initmon.obj
 0002:0002085c       $unwind$__acrt_locale_free_time 000000018007a85c     libucrt:inittime.obj
 0002:0002086c       $unwind$__acrt_lowio_destroy_handle_array 000000018007a86c     libucrt:osfinfo.obj
 0002:0002087c       $unwind$__acrt_lowio_ensure_fh_exists 000000018007a87c     libucrt:osfinfo.obj
 0002:000208a8       $unwind$fclose             000000018007a8a8     libucrt:fclose.obj
 0002:000208cc       $unwind$_close             000000018007a8cc     libucrt:close.obj
 0002:000208cc       $unwind$_commit            000000018007a8cc     libucrt:commit.obj
 0002:000208d4       $unwind$??$?RV<lambda_a37b2b86f63e897a80ea819b0eb08c01>@@AEAV<lambda_38ce7e780aa69e748d6df282ebc68efe>@@V<lambda_99fb1378e971ab6e7edea83e3a7a83a2>@@@?$__crt_seh_guarded_call@H@@QEAAH$$QEAV<lambda_a37b2b86f63e897a80ea819b0eb08c01>@@AEAV<lambda_38ce7e780aa69e748d6df282ebc68efe>@@$$QEAV<lambda_99fb1378e971ab6e7edea83e3a7a83a2>@@@Z 000000018007a8d4     libucrt:commit.obj
 0002:000208f8       $unwind$_write             000000018007a8f8     libucrt:write.obj
 0002:00020928       $unwind$_write_nolock      000000018007a928     libucrt:write.obj
 0002:00020940       $unwind$?write_double_translated_ansi_nolock@@YA?AUwrite_result@?A0x17268360@@HQEBDI@Z 000000018007a940     libucrt:write.obj
 0002:00020964       $unwind$?write_text_ansi_nolock@@YA?AUwrite_result@?A0x17268360@@HQEBDI@Z 000000018007a964     libucrt:write.obj
 0002:00020964       $unwind$?write_text_utf16le_nolock@@YA?AUwrite_result@?A0x17268360@@HQEBDI@Z 000000018007a964     libucrt:write.obj
 0002:00020984       $unwind$?write_text_utf8_nolock@@YA?AUwrite_result@?A0x17268360@@HQEBDI@Z 000000018007a984     libucrt:write.obj
 0002:000209a8       $xdatasym                  000000018007a9a8     libucrt:fpsr.obj
 0002:000209b0       $unwind$__acrt_fenv_set_control 000000018007a9b0     libucrt:_fenvutils.obj
 0002:000209c0       $unwind$qsort              000000018007a9c0     libucrt:qsort.obj
 0002:000209d8       $chain$4$qsort             000000018007a9d8     libucrt:qsort.obj
 0002:000209fc       $chain$5$qsort             000000018007a9fc     libucrt:qsort.obj
 0002:00020a0c       $unwind$strpbrk            000000018007aa0c     libucrt:strpbrk.obj
 0002:00020a1c       $unwind$fallbackMethod     000000018007aa1c     libucrt:strpbrk.obj
 0002:00020a2c       $unwind$_call_matherr      000000018007aa2c     libucrt:libm_error.obj
 0002:00020a34       $unwind$_handle_error      000000018007aa34     libucrt:libm_error.obj
 0002:00020a34       $unwind$_handle_errorf     000000018007aa34     libucrt:libm_error.obj
 0002:00020a54       $unwind$?__mbrtoc32_utf8@__crt_mbstring@@YA_KPEA_UPEBD_KPEAU_Mbstatet@@@Z 000000018007aa54     libucrt:mbrtoc32.obj
 0002:00020a70       $xdatasym                  000000018007aa70     libucrt:log10.obj
 0002:00020a7c       $unwind$??$common_lseek@_J@@YA_JH_JH@Z 000000018007aa7c     libucrt:lseek.obj
 0002:00020aac       $unwind$??$?RV<lambda_751a882b2c74d4b022dec766aa51a29a>@@AEAV<lambda_628dfdc04ba53c8bfc02c9951375f3f5>@@V<lambda_f6c7be5f7998530c34de24c7437d6b54>@@@?$__crt_seh_guarded_call@H@@QEAAH$$QEAV<lambda_751a882b2c74d4b022dec766aa51a29a>@@AEAV<lambda_628dfdc04ba53c8bfc02c9951375f3f5>@@$$QEAV<lambda_f6c7be5f7998530c34de24c7437d6b54>@@@Z 000000018007aaac     libucrt:close.obj
 0002:00020ad0       $unwind$_putwch_nolock     000000018007aad0     libucrt:putwch.obj
 0002:00020ad8       $unwind$__acrt_CompareStringW 000000018007aad8     libucrt:comparestringw.obj
 0002:00020af0       $unwind$common_control87   000000018007aaf0     libucrt:ieee.obj
 0002:00020b1c       $unwind$_log_special_common 000000018007ab1c     libucrt:log_special.obj
 0002:00020b28       $unwind$?DloadObtainSection@@YAPEAXPEAK0@Z 000000018007ab28     DelayImp:delayhlp.obj
 0002:00020b38       $unwind$?DloadMakePermanentImageCommit@@YAXPEAX_K@Z 000000018007ab38     DelayImp:delayhlp.obj
 0002:00020b44       $unwind$?DloadProtectSection@@YAXKPEAK@Z 000000018007ab44     DelayImp:delayhlp.obj
 0002:00020b54       $unwind$__delayLoadHelper2 000000018007ab54     DelayImp:delayhlp.obj
 0002:00020b70       $unwind$__GSHandlerCheckCommon 000000018007ab70     LIBCMT:gshandler.obj
 0002:00020b78       $xdatasym                  000000018007ab78     LIBCMT:chkstk.obj
 0002:00020b80       $unwind$_IsNonwritableInCurrentImage 000000018007ab80     LIBCMT:pesect.obj
 0002:00020ba4       $unwind$sqrt               000000018007aba4     libucrt:sqrt.obj
 0002:00021a60       .edata                     000000018007ba60     turtlecoin-crypto.exp
 0002:00021a88       rgpv                       000000018007ba88     turtlecoin-crypto.exp
 0002:00021a8c       rgszName                   000000018007ba8c     turtlecoin-crypto.exp
 0002:00021a90       rgwOrd                     000000018007ba90     turtlecoin-crypto.exp
 0002:00021a92       szName                     000000018007ba92     turtlecoin-crypto.exp
 0002:00021aa9       $N00001                    000000018007baa9     turtlecoin-crypto.exp
 0002:00021dd0       .idata$6                   000000018007bdd0     kernel32:KERNEL32.dll
 0003:00000038       ?init@std@@3JA             000000018007d038     libcpmt:xlock.obj
 0003:00000040       ?atcount_cdecl@@3_KA       000000018007d040     libcpmt:iosptrs.obj
 0003:00000050       ?__vcrt_flsindex@@3KA      000000018007d050     libvcruntime:per_thread_data.obj
 0003:00000060       ?dstflag_cache@@3HA        000000018007d060     libucrt:ftime.obj
 0003:00000228       ?errno_no_memory@@3HA      000000018007d228     libucrt:errno.obj
 0003:0000022c       ?doserrno_no_memory@@3KA   000000018007d22c     libucrt:errno.obj
 0003:00000230       ?__acrt_flsindex@@3KA      000000018007d230     libucrt:per_thread_data.obj
 0003:00000240       ?tzstd_program@@3PADA      000000018007d240     libucrt:timeset.obj
 0003:00000280       ?tzdst_program@@3PADA      000000018007d280     libucrt:timeset.obj
 0003:000002c0       ?w_tzstd_program@@3PA_WA   000000018007d2c0     libucrt:timeset.obj
 0003:00000340       ?w_tzdst_program@@3PA_WA   000000018007d340     libucrt:timeset.obj
 0003:000003c0       ?tzname_states@@3PAY01PEADA 000000018007d3c0     libucrt:timeset.obj
 0003:000003d0       ?w_tzname_states@@3PAY01PEA_WA 000000018007d3d0     libucrt:timeset.obj
 0003:000003e0       ?dststart@@3Utransitiondate@?A0x7639d0b4@@A 000000018007d3e0     libucrt:tzset.obj
 0003:000003f0       ?dstend@@3Utransitiondate@?A0x7639d0b4@@A 000000018007d3f0     libucrt:tzset.obj
 0003:000005b8       ?dazSupported@?1??_ctrlfp@@9@9 000000018007d5b8     libucrt:fpctrl.obj
 0003:000007f0       _mbctypes                  000000018007d7f0     libucrt:mbctype.obj
 0003:00000900       _mbcasemaps                000000018007d900     libucrt:mbctype.obj
 0003:00000a00       ?__rgctypeflag@@3PADA      000000018007da00     libucrt:mbctype.obj
 0003:00000a10       ?__rgcode_page_info@@3PAUcode_page_info@@A 000000018007da10     libucrt:mbctype.obj
 0003:00000c10       ?dazSupported@?1??common_control87@@9@9 000000018007dc10     libucrt:ieee.obj
 0003:00000c20       ?__dcrt_lowio_console_output_handle@@3PEAXEA 000000018007dc20     libucrt:initcon.obj
 0003:00000c30       ?distribution@Random@@3V?$uniform_int_distribution@H@std@@A 000000018007dc30     crypto.obj
 0003:00000c38       selected_argon_impl        000000018007dc38     impl-select.obj
 0003:00000c50       _module                    000000018007dc50     turtlecoin-crypto-node.obj
 0003:00000f48       ?__proc_attached@@3HA      000000018007df48     LIBCMT:dll_dllmain.obj
 0003:00000f50       GS_ExceptionRecord         000000018007df50     LIBCMT:gs_report.obj
 0003:00000ff0       GS_ContextRecord           000000018007dff0     LIBCMT:gs_report.obj
 0003:000014f0       ?is_initialized_as_dll@@3_NA 000000018007e4f0     LIBCMT:utility.obj
 0003:000014f1       ?module_local_atexit_table_initialized@@3_NA 000000018007e4f1     LIBCMT:utility.obj
 0003:000014f8       ?module_local_atexit_table@@3U_onexit_table_t@@A 000000018007e4f8     LIBCMT:utility.obj
 0003:00001510       ?module_local_at_quick_exit_table@@3U_onexit_table_t@@A 000000018007e510     LIBCMT:utility.obj
 0003:00001540       ?initlocks@std@@3V_Init_locks@1@A 000000018007e540     libcpmt:xlock.obj
 0003:00001550       ?mtx@std@@3PAU_RTL_CRITICAL_SECTION@@A 000000018007e550     libcpmt:xlock.obj
 0003:000016c0       ?classic_locale@std@@3Vlocale@1@A 000000018007e6c0     libcpmt:locale0.obj
 0003:000016d8       ?_Fac_head@std@@3PEAU_Fac_node@1@EA 000000018007e6d8     libcpmt:locale0.obj
 0003:000016e0       ?_Fac_tidy_reg@std@@3U_Fac_tidy_reg_t@1@B 000000018007e6e0     libcpmt:locale0.obj
 0003:000016e8       global_locale              000000018007e6e8     libcpmt:locale0.obj
 0003:00001700       ?stdstr@std@@3PAPEAVios_base@1@A 000000018007e700     libcpmt:ios.obj
 0003:00001750       ?stdopens@std@@3PADA       000000018007e750     libcpmt:ios.obj
 0003:000017b0       ?initlocks@std@@3V_Init_locks@1@A 000000018007e7b0     libcpmt:iosptrs.obj
 0003:000017b1       ?init_atexit@@3U_Init_atexit@@A 000000018007e7b1     libcpmt:iosptrs.obj
 0003:000017c0       ?atfuns_cdecl@@3PAP6AXXZA  000000018007e7c0     libcpmt:iosptrs.obj
 0003:00001910       ?__vcrt_startup_thread_ptd@@3U__vcrt_ptd@@A 000000018007e910     libvcruntime:per_thread_data.obj
 0003:000019d8       ?heap@@3V_HeapManager@@A   000000018007e9d8     libvcruntime:undname.obj
 0003:00001a00       __vcrt_lock_table          000000018007ea00     libvcruntime:locks.obj
 0003:00001a28       __vcrt_locks_initialized   000000018007ea28     libvcruntime:locks.obj
 0003:00001a30       ?module_handles@@3PAPEAUHINSTANCE__@@A 000000018007ea30     libvcruntime:winapi_downlevel.obj
 0003:00001a48       ?function_pointers@@3PAPEAXA 000000018007ea48     libvcruntime:winapi_downlevel.obj
 0003:00001a70       ?__acrt_invalid_parameter_handler@@3V?$dual_state_global@P6AXPEB_W00I_K@Z@__crt_state_management@@A 000000018007ea70     libucrt:invalid_parameter.obj
 0003:00001a78       ?elapsed_minutes_cache@@3_JA 000000018007ea78     libucrt:ftime.obj
 0003:00001aa0       ?source_frequency@@3_JA    000000018007eaa0     libucrt:clock.obj
 0003:00001aa8       ?start_count@@3_JA         000000018007eaa8     libucrt:clock.obj
 0003:00001ab0       ?__acrt_new_handler@@3V?$dual_state_global@P6AH_K@Z@__crt_state_management@@A 000000018007eab0     libucrt:new_handler.obj
 0003:00001ab8       ?c_termination_complete@@3JA 000000018007eab8     libucrt:exit.obj
 0003:00001ac0       ?thread_local_exit_callback_func@@3P6AXPEAXK0@ZEA 000000018007eac0     libucrt:exit.obj
 0003:00001ad0       ?program_name@?1???$common_configure_argv@D@@YAHW4_crt_argv_mode@@@Z@4PADA 000000018007ead0     libucrt:argv_parsing.obj
 0003:00001c30       ?__acrt_lock_table@@3PAU_RTL_CRITICAL_SECTION@@A 000000018007ec30     libucrt:locks.obj
 0003:00001e60       ?__acrt_locks_initialized@@3IA 000000018007ee60     libucrt:locks.obj
 0003:00001e70       ?module_handles@@3PAPEAUHINSTANCE__@@A 000000018007ee70     libucrt:winapi_thunks.obj
 0003:00001f10       ?encoded_function_pointers@@3PAPEAXA 000000018007ef10     libucrt:winapi_thunks.obj
 0003:00002030       ?_tzname@@3V?$dual_state_global@PEAPEAD@__crt_state_management@@A 000000018007f030     libucrt:timeset.obj
 0003:00002038       ?w_tzname@@3V?$dual_state_global@PEAPEA_W@__crt_state_management@@A 000000018007f038     libucrt:timeset.obj
 0003:00002040       ?last_wide_tz@@3PEA_WEA    000000018007f040     libucrt:tzset.obj
 0003:00002050       ?tz_api_used@@3HA          000000018007f050     libucrt:tzset.obj
 0003:00002054       ?tzset_init_state@@3V?$dual_state_global@J@__crt_state_management@@A 000000018007f054     libucrt:tzset.obj
 0003:00002060       ?tz_info@@3U_TIME_ZONE_INFORMATION@@A 000000018007f060     libucrt:tzset.obj
 0003:00002110       ?internal_state@?1??_mbtowc_l@@9@4U_Mbstatet@@A 000000018007f110     libucrt:mbtowc.obj
 0003:00002118       ?enable_percent_n@@3_KA    000000018007f118     libucrt:printf_count_output.obj
 0003:00002548       ?ctrlc_action@@3V?$dual_state_global@P6AXH@Z@__crt_state_management@@A 000000018007f548     libucrt:signal.obj
 0003:00002550       ?ctrlbreak_action@@3V?$dual_state_global@P6AXH@Z@__crt_state_management@@A 000000018007f550     libucrt:signal.obj
 0003:00002558       ?abort_action@@3V?$dual_state_global@P6AXH@Z@__crt_state_management@@A 000000018007f558     libucrt:signal.obj
 0003:00002560       ?term_action@@3V?$dual_state_global@P6AXH@Z@__crt_state_management@@A 000000018007f560     libucrt:signal.obj
 0003:00002568       ?state_cache@?1???$get_cached_win_policy@Ubegin_thread_init_policy_properties@?1??__acrt_get_begin_thread_init_policy@@YA?AW4begin_thread_init_policy@@XZ@@@YA?AW4begin_thread_init_policy@@W4AppPolicyThreadInitializationType@@@Z@4JA 000000018007f568     libucrt:win_policies.obj
 0003:00002588       ?fSystemSet@@3HA           000000018007f588     libucrt:mbctype.obj
 0003:0000258c       ?initialized@?1??__acrt_initialize_multibyte@@9@4_NA 000000018007f58c     libucrt:mbctype.obj
 0003:000025c8       ?user_matherr@@3V?$dual_state_global@P6AHPEAU_exception@@@Z@__crt_state_management@@A 000000018007f5c8     libucrt:matherr.obj
 0003:000025d8       ?__acrt_global_new_mode@@3V?$dual_state_global@J@__crt_state_management@@A 000000018007f5d8     libucrt:new_mode.obj
 0003:000025e0       ?internal_pst@?1??__mbrtoc32_utf8@__crt_mbstring@@YA_KPEA_UPEBD_KPEAU_Mbstatet@@@Z@4U3@A 000000018007f5e0     libucrt:mbrtoc32.obj
 0003:000025e8       ?__acrt_app_type@@3W4_crt_app_type@@A 000000018007f5e8     libucrt:report_runtime_error.obj
 0003:00002630       ?gen@@3V?$mersenne_twister_engine@I$0CA@$0CHA@$0BIN@$0BP@$0JJAILANP@$0L@$0PPPPPPPP@$06$0JNCMFGIA@$0P@$0OPMGAAAA@$0BC@$0GMAHIJGF@@std@@A 000000018007f630     random.obj
 0003:000039b8       ?argon_optimization_selected@Crypto@@3_NA 00000001800809b8     turtlecoin-crypto.obj
 0003:000039c0       memory                     00000001800809c0     impl-select.obj
 0005:00000000       MsetTab                    0000000180104000     libvcruntime:memset.obj
 0005:00000050       MoveSmall                  0000000180104050     libvcruntime:memcpy.obj
 0005:00000090       MoveSmallYmm               0000000180104090     libvcruntime:memcpy.obj
 0005:000000b4       MoveSmallYmmNT             00000001801040b4     libvcruntime:memcpy.obj
 0005:000000d8       MoveSmallXmm               00000001801040d8     libvcruntime:memcpy.obj
 0006:00000060       $R000000                   0000000180105060     * linker generated manifest res *

 Exports

  ordinal    name

        1    _register_turtlecoincrypto_
